
Xmega32A4U_testBoard.elf:     file format elf32-avr

Sections:
Idx Name          Size      VMA       LMA       File off  Algn
  0 .text         0000741c  00000000  00000000  00000094  2**1
                  CONTENTS, ALLOC, LOAD, READONLY, CODE
  1 .data         0000001e  00802000  0000741c  000074b0  2**0
                  CONTENTS, ALLOC, LOAD, DATA
  2 .bss          0000005e  0080201e  0080201e  000074ce  2**0
                  ALLOC
  3 .stab         00000750  00000000  00000000  000074d0  2**2
                  CONTENTS, READONLY, DEBUGGING
  4 .stabstr      0000010b  00000000  00000000  00007c20  2**0
                  CONTENTS, READONLY, DEBUGGING
  5 .comment      0000002f  00000000  00000000  00007d2b  2**0
                  CONTENTS, READONLY
  6 .debug_aranges 00000980  00000000  00000000  00007d60  2**3
                  CONTENTS, READONLY, DEBUGGING
  7 .debug_info   0000bba0  00000000  00000000  000086e0  2**0
                  CONTENTS, READONLY, DEBUGGING
  8 .debug_abbrev 00002d62  00000000  00000000  00014280  2**0
                  CONTENTS, READONLY, DEBUGGING
  9 .debug_line   000084bf  00000000  00000000  00016fe2  2**0
                  CONTENTS, READONLY, DEBUGGING
 10 .debug_frame  000026d0  00000000  00000000  0001f4a4  2**2
                  CONTENTS, READONLY, DEBUGGING
 11 .debug_str    0002766b  00000000  00000000  00021b74  2**0
                  CONTENTS, READONLY, DEBUGGING
 12 .debug_loc    00006118  00000000  00000000  000491df  2**0
                  CONTENTS, READONLY, DEBUGGING
 13 .debug_ranges 00000820  00000000  00000000  0004f2f8  2**3
                  CONTENTS, READONLY, DEBUGGING
 14 .debug_macro  00009a05  00000000  00000000  0004fb18  2**0
                  CONTENTS, READONLY, DEBUGGING

Disassembly of section .text:

00000000 <__vectors>:
       0:	26 c1       	rjmp	.+588    	; 0x24e <__ctors_end>
       2:	00 00       	nop
       4:	41 c1       	rjmp	.+642    	; 0x288 <__bad_interrupt>
       6:	00 00       	nop
       8:	3f c1       	rjmp	.+638    	; 0x288 <__bad_interrupt>
       a:	00 00       	nop
       c:	3d c1       	rjmp	.+634    	; 0x288 <__bad_interrupt>
       e:	00 00       	nop
      10:	3b c1       	rjmp	.+630    	; 0x288 <__bad_interrupt>
      12:	00 00       	nop
      14:	39 c1       	rjmp	.+626    	; 0x288 <__bad_interrupt>
      16:	00 00       	nop
      18:	37 c1       	rjmp	.+622    	; 0x288 <__bad_interrupt>
      1a:	00 00       	nop
      1c:	35 c1       	rjmp	.+618    	; 0x288 <__bad_interrupt>
      1e:	00 00       	nop
      20:	33 c1       	rjmp	.+614    	; 0x288 <__bad_interrupt>
      22:	00 00       	nop
      24:	31 c1       	rjmp	.+610    	; 0x288 <__bad_interrupt>
      26:	00 00       	nop
      28:	0c 94 cc 1a 	jmp	0x3598	; 0x3598 <__vector_10>
      2c:	0c 94 82 0b 	jmp	0x1704	; 0x1704 <__vector_11>
      30:	2b c1       	rjmp	.+598    	; 0x288 <__bad_interrupt>
      32:	00 00       	nop
      34:	29 c1       	rjmp	.+594    	; 0x288 <__bad_interrupt>
      36:	00 00       	nop
      38:	0c 94 60 0c 	jmp	0x18c0	; 0x18c0 <__vector_14>
      3c:	0c 94 96 0c 	jmp	0x192c	; 0x192c <__vector_15>
      40:	0c 94 cc 0c 	jmp	0x1998	; 0x1998 <__vector_16>
      44:	0c 94 02 0d 	jmp	0x1a04	; 0x1a04 <__vector_17>
      48:	0c 94 38 0d 	jmp	0x1a70	; 0x1a70 <__vector_18>
      4c:	0c 94 6e 0d 	jmp	0x1adc	; 0x1adc <__vector_19>
      50:	0c 94 a4 0d 	jmp	0x1b48	; 0x1b48 <__vector_20>
      54:	0c 94 da 0d 	jmp	0x1bb4	; 0x1bb4 <__vector_21>
      58:	0c 94 10 0e 	jmp	0x1c20	; 0x1c20 <__vector_22>
      5c:	0c 94 46 0e 	jmp	0x1c8c	; 0x1c8c <__vector_23>
      60:	13 c1       	rjmp	.+550    	; 0x288 <__bad_interrupt>
      62:	00 00       	nop
      64:	11 c1       	rjmp	.+546    	; 0x288 <__bad_interrupt>
      66:	00 00       	nop
      68:	0f c1       	rjmp	.+542    	; 0x288 <__bad_interrupt>
      6a:	00 00       	nop
      6c:	0d c1       	rjmp	.+538    	; 0x288 <__bad_interrupt>
      6e:	00 00       	nop
      70:	0b c1       	rjmp	.+534    	; 0x288 <__bad_interrupt>
      72:	00 00       	nop
      74:	09 c1       	rjmp	.+530    	; 0x288 <__bad_interrupt>
      76:	00 00       	nop
      78:	07 c1       	rjmp	.+526    	; 0x288 <__bad_interrupt>
      7a:	00 00       	nop
      7c:	05 c1       	rjmp	.+522    	; 0x288 <__bad_interrupt>
      7e:	00 00       	nop
      80:	03 c1       	rjmp	.+518    	; 0x288 <__bad_interrupt>
      82:	00 00       	nop
      84:	01 c1       	rjmp	.+514    	; 0x288 <__bad_interrupt>
      86:	00 00       	nop
      88:	ff c0       	rjmp	.+510    	; 0x288 <__bad_interrupt>
      8a:	00 00       	nop
      8c:	fd c0       	rjmp	.+506    	; 0x288 <__bad_interrupt>
      8e:	00 00       	nop
      90:	fb c0       	rjmp	.+502    	; 0x288 <__bad_interrupt>
      92:	00 00       	nop
      94:	f9 c0       	rjmp	.+498    	; 0x288 <__bad_interrupt>
      96:	00 00       	nop
      98:	f7 c0       	rjmp	.+494    	; 0x288 <__bad_interrupt>
      9a:	00 00       	nop
      9c:	f5 c0       	rjmp	.+490    	; 0x288 <__bad_interrupt>
      9e:	00 00       	nop
      a0:	f3 c0       	rjmp	.+486    	; 0x288 <__bad_interrupt>
      a2:	00 00       	nop
      a4:	f1 c0       	rjmp	.+482    	; 0x288 <__bad_interrupt>
      a6:	00 00       	nop
      a8:	ef c0       	rjmp	.+478    	; 0x288 <__bad_interrupt>
      aa:	00 00       	nop
      ac:	ed c0       	rjmp	.+474    	; 0x288 <__bad_interrupt>
      ae:	00 00       	nop
      b0:	eb c0       	rjmp	.+470    	; 0x288 <__bad_interrupt>
      b2:	00 00       	nop
      b4:	e9 c0       	rjmp	.+466    	; 0x288 <__bad_interrupt>
      b6:	00 00       	nop
      b8:	e7 c0       	rjmp	.+462    	; 0x288 <__bad_interrupt>
      ba:	00 00       	nop
      bc:	0c 94 98 10 	jmp	0x2130	; 0x2130 <__vector_47>
      c0:	0c 94 ce 10 	jmp	0x219c	; 0x219c <__vector_48>
      c4:	0c 94 04 11 	jmp	0x2208	; 0x2208 <__vector_49>
      c8:	0c 94 3a 11 	jmp	0x2274	; 0x2274 <__vector_50>
      cc:	0c 94 70 11 	jmp	0x22e0	; 0x22e0 <__vector_51>
      d0:	0c 94 a6 11 	jmp	0x234c	; 0x234c <__vector_52>
      d4:	d9 c0       	rjmp	.+434    	; 0x288 <__bad_interrupt>
      d6:	00 00       	nop
      d8:	d7 c0       	rjmp	.+430    	; 0x288 <__bad_interrupt>
      da:	00 00       	nop
      dc:	d5 c0       	rjmp	.+426    	; 0x288 <__bad_interrupt>
      de:	00 00       	nop
      e0:	d3 c0       	rjmp	.+422    	; 0x288 <__bad_interrupt>
      e2:	00 00       	nop
      e4:	d1 c0       	rjmp	.+418    	; 0x288 <__bad_interrupt>
      e6:	00 00       	nop
      e8:	0c 94 2e 19 	jmp	0x325c	; 0x325c <__vector_58>
      ec:	cd c0       	rjmp	.+410    	; 0x288 <__bad_interrupt>
      ee:	00 00       	nop
      f0:	cb c0       	rjmp	.+406    	; 0x288 <__bad_interrupt>
      f2:	00 00       	nop
      f4:	c9 c0       	rjmp	.+402    	; 0x288 <__bad_interrupt>
      f6:	00 00       	nop
      f8:	c7 c0       	rjmp	.+398    	; 0x288 <__bad_interrupt>
      fa:	00 00       	nop
      fc:	c5 c0       	rjmp	.+394    	; 0x288 <__bad_interrupt>
      fe:	00 00       	nop
     100:	c3 c0       	rjmp	.+390    	; 0x288 <__bad_interrupt>
     102:	00 00       	nop
     104:	c1 c0       	rjmp	.+386    	; 0x288 <__bad_interrupt>
     106:	00 00       	nop
     108:	bf c0       	rjmp	.+382    	; 0x288 <__bad_interrupt>
     10a:	00 00       	nop
     10c:	bd c0       	rjmp	.+378    	; 0x288 <__bad_interrupt>
     10e:	00 00       	nop
     110:	bb c0       	rjmp	.+374    	; 0x288 <__bad_interrupt>
     112:	00 00       	nop
     114:	b9 c0       	rjmp	.+370    	; 0x288 <__bad_interrupt>
     116:	00 00       	nop
     118:	b7 c0       	rjmp	.+366    	; 0x288 <__bad_interrupt>
     11a:	00 00       	nop
     11c:	b5 c0       	rjmp	.+362    	; 0x288 <__bad_interrupt>
     11e:	00 00       	nop
     120:	b3 c0       	rjmp	.+358    	; 0x288 <__bad_interrupt>
     122:	00 00       	nop
     124:	b1 c0       	rjmp	.+354    	; 0x288 <__bad_interrupt>
     126:	00 00       	nop
     128:	af c0       	rjmp	.+350    	; 0x288 <__bad_interrupt>
     12a:	00 00       	nop
     12c:	ad c0       	rjmp	.+346    	; 0x288 <__bad_interrupt>
     12e:	00 00       	nop
     130:	ab c0       	rjmp	.+342    	; 0x288 <__bad_interrupt>
     132:	00 00       	nop
     134:	0c 94 7c 0e 	jmp	0x1cf8	; 0x1cf8 <__vector_77>
     138:	0c 94 b2 0e 	jmp	0x1d64	; 0x1d64 <__vector_78>
     13c:	0c 94 e8 0e 	jmp	0x1dd0	; 0x1dd0 <__vector_79>
     140:	0c 94 1e 0f 	jmp	0x1e3c	; 0x1e3c <__vector_80>
     144:	0c 94 54 0f 	jmp	0x1ea8	; 0x1ea8 <__vector_81>
     148:	0c 94 8a 0f 	jmp	0x1f14	; 0x1f14 <__vector_82>
     14c:	0c 94 c0 0f 	jmp	0x1f80	; 0x1f80 <__vector_83>
     150:	0c 94 f6 0f 	jmp	0x1fec	; 0x1fec <__vector_84>
     154:	0c 94 2c 10 	jmp	0x2058	; 0x2058 <__vector_85>
     158:	0c 94 62 10 	jmp	0x20c4	; 0x20c4 <__vector_86>
     15c:	95 c0       	rjmp	.+298    	; 0x288 <__bad_interrupt>
     15e:	00 00       	nop
     160:	93 c0       	rjmp	.+294    	; 0x288 <__bad_interrupt>
     162:	00 00       	nop
     164:	91 c0       	rjmp	.+290    	; 0x288 <__bad_interrupt>
     166:	00 00       	nop
     168:	8f c0       	rjmp	.+286    	; 0x288 <__bad_interrupt>
     16a:	00 00       	nop
     16c:	8d c0       	rjmp	.+282    	; 0x288 <__bad_interrupt>
     16e:	00 00       	nop
     170:	8b c0       	rjmp	.+278    	; 0x288 <__bad_interrupt>
     172:	00 00       	nop
     174:	89 c0       	rjmp	.+274    	; 0x288 <__bad_interrupt>
     176:	00 00       	nop
     178:	87 c0       	rjmp	.+270    	; 0x288 <__bad_interrupt>
     17a:	00 00       	nop
     17c:	85 c0       	rjmp	.+266    	; 0x288 <__bad_interrupt>
     17e:	00 00       	nop
     180:	83 c0       	rjmp	.+262    	; 0x288 <__bad_interrupt>
     182:	00 00       	nop
     184:	81 c0       	rjmp	.+258    	; 0x288 <__bad_interrupt>
     186:	00 00       	nop
     188:	7f c0       	rjmp	.+254    	; 0x288 <__bad_interrupt>
     18a:	00 00       	nop
     18c:	7d c0       	rjmp	.+250    	; 0x288 <__bad_interrupt>
     18e:	00 00       	nop
     190:	7b c0       	rjmp	.+246    	; 0x288 <__bad_interrupt>
     192:	00 00       	nop
     194:	79 c0       	rjmp	.+242    	; 0x288 <__bad_interrupt>
     196:	00 00       	nop
     198:	77 c0       	rjmp	.+238    	; 0x288 <__bad_interrupt>
     19a:	00 00       	nop
     19c:	75 c0       	rjmp	.+234    	; 0x288 <__bad_interrupt>
     19e:	00 00       	nop
     1a0:	73 c0       	rjmp	.+230    	; 0x288 <__bad_interrupt>
     1a2:	00 00       	nop
     1a4:	71 c0       	rjmp	.+226    	; 0x288 <__bad_interrupt>
     1a6:	00 00       	nop
     1a8:	6f c0       	rjmp	.+222    	; 0x288 <__bad_interrupt>
     1aa:	00 00       	nop
     1ac:	6d c0       	rjmp	.+218    	; 0x288 <__bad_interrupt>
     1ae:	00 00       	nop
     1b0:	6b c0       	rjmp	.+214    	; 0x288 <__bad_interrupt>
     1b2:	00 00       	nop
     1b4:	69 c0       	rjmp	.+210    	; 0x288 <__bad_interrupt>
     1b6:	00 00       	nop
     1b8:	67 c0       	rjmp	.+206    	; 0x288 <__bad_interrupt>
     1ba:	00 00       	nop
     1bc:	65 c0       	rjmp	.+202    	; 0x288 <__bad_interrupt>
     1be:	00 00       	nop
     1c0:	63 c0       	rjmp	.+198    	; 0x288 <__bad_interrupt>
     1c2:	00 00       	nop
     1c4:	61 c0       	rjmp	.+194    	; 0x288 <__bad_interrupt>
     1c6:	00 00       	nop
     1c8:	5f c0       	rjmp	.+190    	; 0x288 <__bad_interrupt>
     1ca:	00 00       	nop
     1cc:	5d c0       	rjmp	.+186    	; 0x288 <__bad_interrupt>
     1ce:	00 00       	nop
     1d0:	5b c0       	rjmp	.+182    	; 0x288 <__bad_interrupt>
     1d2:	00 00       	nop
     1d4:	59 c0       	rjmp	.+178    	; 0x288 <__bad_interrupt>
     1d6:	00 00       	nop
     1d8:	57 c0       	rjmp	.+174    	; 0x288 <__bad_interrupt>
     1da:	00 00       	nop
     1dc:	55 c0       	rjmp	.+170    	; 0x288 <__bad_interrupt>
     1de:	00 00       	nop
     1e0:	53 c0       	rjmp	.+166    	; 0x288 <__bad_interrupt>
     1e2:	00 00       	nop
     1e4:	51 c0       	rjmp	.+162    	; 0x288 <__bad_interrupt>
     1e6:	00 00       	nop
     1e8:	4f c0       	rjmp	.+158    	; 0x288 <__bad_interrupt>
     1ea:	00 00       	nop
     1ec:	4d c0       	rjmp	.+154    	; 0x288 <__bad_interrupt>
     1ee:	00 00       	nop
     1f0:	4b c0       	rjmp	.+150    	; 0x288 <__bad_interrupt>
     1f2:	00 00       	nop
     1f4:	49 c0       	rjmp	.+146    	; 0x288 <__bad_interrupt>
     1f6:	00 00       	nop
     1f8:	47 c0       	rjmp	.+142    	; 0x288 <__bad_interrupt>
     1fa:	00 00       	nop
     1fc:	9b 19       	sub	r25, r11
     1fe:	a1 19       	sub	r26, r1
     200:	99 19       	sub	r25, r9
     202:	b9 19       	sub	r27, r9
     204:	ce 19       	sub	r28, r14
     206:	ce 19       	sub	r28, r14
     208:	ce 19       	sub	r28, r14
     20a:	ce 19       	sub	r28, r14
     20c:	ce 19       	sub	r28, r14
     20e:	95 19       	sub	r25, r5
     210:	ca 19       	sub	r28, r10
     212:	ce 19       	sub	r28, r14
     214:	ce 19       	sub	r28, r14
     216:	ce 19       	sub	r28, r14
     218:	ce 19       	sub	r28, r14
     21a:	ce 19       	sub	r28, r14
     21c:	ce 19       	sub	r28, r14
     21e:	ce 19       	sub	r28, r14
     220:	ce 19       	sub	r28, r14
     222:	8f 19       	sub	r24, r15
     224:	ce 19       	sub	r28, r14
     226:	ce 19       	sub	r28, r14
     228:	ce 19       	sub	r28, r14
     22a:	ce 19       	sub	r28, r14
     22c:	ce 19       	sub	r28, r14
     22e:	ce 19       	sub	r28, r14
     230:	ce 19       	sub	r28, r14
     232:	ce 19       	sub	r28, r14
     234:	ce 19       	sub	r28, r14
     236:	ad 19       	sub	r26, r13
     238:	ab 19       	sub	r26, r11
     23a:	b5 19       	sub	r27, r5
     23c:	b7 19       	sub	r27, r7
     23e:	b1 19       	sub	r27, r1
     240:	c4 19       	sub	r28, r4
     242:	bc 19       	sub	r27, r12
     244:	c0 19       	sub	r28, r0
     246:	ce 19       	sub	r28, r14
     248:	ce 19       	sub	r28, r14
     24a:	a3 19       	sub	r26, r3
     24c:	a7 19       	sub	r26, r7

0000024e <__ctors_end>:
     24e:	11 24       	eor	r1, r1
     250:	1f be       	out	0x3f, r1	; 63
     252:	cf ef       	ldi	r28, 0xFF	; 255
     254:	df e2       	ldi	r29, 0x2F	; 47
     256:	de bf       	out	0x3e, r29	; 62
     258:	cd bf       	out	0x3d, r28	; 61

0000025a <__do_copy_data>:
     25a:	10 e2       	ldi	r17, 0x20	; 32
     25c:	a0 e0       	ldi	r26, 0x00	; 0
     25e:	b0 e2       	ldi	r27, 0x20	; 32
     260:	ec e1       	ldi	r30, 0x1C	; 28
     262:	f4 e7       	ldi	r31, 0x74	; 116
     264:	02 c0       	rjmp	.+4      	; 0x26a <__do_copy_data+0x10>
     266:	05 90       	lpm	r0, Z+
     268:	0d 92       	st	X+, r0
     26a:	ae 31       	cpi	r26, 0x1E	; 30
     26c:	b1 07       	cpc	r27, r17
     26e:	d9 f7       	brne	.-10     	; 0x266 <__do_copy_data+0xc>

00000270 <__do_clear_bss>:
     270:	20 e2       	ldi	r18, 0x20	; 32
     272:	ae e1       	ldi	r26, 0x1E	; 30
     274:	b0 e2       	ldi	r27, 0x20	; 32
     276:	01 c0       	rjmp	.+2      	; 0x27a <.do_clear_bss_start>

00000278 <.do_clear_bss_loop>:
     278:	1d 92       	st	X+, r1

0000027a <.do_clear_bss_start>:
     27a:	ac 37       	cpi	r26, 0x7C	; 124
     27c:	b2 07       	cpc	r27, r18
     27e:	e1 f7       	brne	.-8      	; 0x278 <.do_clear_bss_loop>
     280:	0e 94 e1 22 	call	0x45c2	; 0x45c2 <main>
     284:	0c 94 0c 3a 	jmp	0x7418	; 0x7418 <_exit>

00000288 <__bad_interrupt>:
     288:	bb ce       	rjmp	.-650    	; 0x0 <__vectors>

0000028a <__fixunssfdi>:
     28a:	a0 e0       	ldi	r26, 0x00	; 0
     28c:	b0 e0       	ldi	r27, 0x00	; 0
     28e:	eb e4       	ldi	r30, 0x4B	; 75
     290:	f1 e0       	ldi	r31, 0x01	; 1
     292:	0c 94 c3 39 	jmp	0x7386	; 0x7386 <__prologue_saves__>
     296:	6b 01       	movw	r12, r22
     298:	7c 01       	movw	r14, r24
     29a:	20 e0       	ldi	r18, 0x00	; 0
     29c:	30 e0       	ldi	r19, 0x00	; 0
     29e:	40 e8       	ldi	r20, 0x80	; 128
     2a0:	5f e3       	ldi	r21, 0x3F	; 63
     2a2:	eb d2       	rcall	.+1494   	; 0x87a <__ltsf2>
     2a4:	87 fd       	sbrc	r24, 7
     2a6:	80 c0       	rjmp	.+256    	; 0x3a8 <__fixunssfdi+0x11e>
     2a8:	20 e0       	ldi	r18, 0x00	; 0
     2aa:	30 e0       	ldi	r19, 0x00	; 0
     2ac:	40 e8       	ldi	r20, 0x80	; 128
     2ae:	5f e4       	ldi	r21, 0x4F	; 79
     2b0:	c7 01       	movw	r24, r14
     2b2:	b6 01       	movw	r22, r12
     2b4:	e2 d2       	rcall	.+1476   	; 0x87a <__ltsf2>
     2b6:	87 ff       	sbrs	r24, 7
     2b8:	09 c0       	rjmp	.+18     	; 0x2cc <__fixunssfdi+0x42>
     2ba:	c7 01       	movw	r24, r14
     2bc:	b6 01       	movw	r22, r12
     2be:	d9 d3       	rcall	.+1970   	; 0xa72 <__fixunssfsi>
     2c0:	4b 01       	movw	r8, r22
     2c2:	5c 01       	movw	r10, r24
     2c4:	c1 2c       	mov	r12, r1
     2c6:	d1 2c       	mov	r13, r1
     2c8:	76 01       	movw	r14, r12
     2ca:	87 c0       	rjmp	.+270    	; 0x3da <__fixunssfdi+0x150>
     2cc:	20 e0       	ldi	r18, 0x00	; 0
     2ce:	30 e0       	ldi	r19, 0x00	; 0
     2d0:	40 e8       	ldi	r20, 0x80	; 128
     2d2:	5f e5       	ldi	r21, 0x5F	; 95
     2d4:	c7 01       	movw	r24, r14
     2d6:	b6 01       	movw	r22, r12
     2d8:	d0 d2       	rcall	.+1440   	; 0x87a <__ltsf2>
     2da:	87 ff       	sbrs	r24, 7
     2dc:	6e c0       	rjmp	.+220    	; 0x3ba <__fixunssfdi+0x130>
     2de:	20 e0       	ldi	r18, 0x00	; 0
     2e0:	30 e0       	ldi	r19, 0x00	; 0
     2e2:	40 e8       	ldi	r20, 0x80	; 128
     2e4:	5f e2       	ldi	r21, 0x2F	; 47
     2e6:	c7 01       	movw	r24, r14
     2e8:	b6 01       	movw	r22, r12
     2ea:	19 d1       	rcall	.+562    	; 0x51e <__mulsf3>
     2ec:	8b 01       	movw	r16, r22
     2ee:	d8 2f       	mov	r29, r24
     2f0:	c9 2f       	mov	r28, r25
     2f2:	95 e0       	ldi	r25, 0x05	; 5
     2f4:	29 2e       	mov	r2, r25
     2f6:	31 2c       	mov	r3, r1
     2f8:	20 e1       	ldi	r18, 0x10	; 16
     2fa:	c2 2e       	mov	r12, r18
     2fc:	d1 2c       	mov	r13, r1
     2fe:	e1 2c       	mov	r14, r1
     300:	f1 2c       	mov	r15, r1
     302:	81 2c       	mov	r8, r1
     304:	91 2c       	mov	r9, r1
     306:	54 01       	movw	r10, r8
     308:	61 e0       	ldi	r22, 0x01	; 1
     30a:	70 e0       	ldi	r23, 0x00	; 0
     30c:	80 e0       	ldi	r24, 0x00	; 0
     30e:	90 e0       	ldi	r25, 0x00	; 0
     310:	0c 2c       	mov	r0, r12
     312:	04 c0       	rjmp	.+8      	; 0x31c <__fixunssfdi+0x92>
     314:	66 0f       	add	r22, r22
     316:	77 1f       	adc	r23, r23
     318:	88 1f       	adc	r24, r24
     31a:	99 1f       	adc	r25, r25
     31c:	0a 94       	dec	r0
     31e:	d2 f7       	brpl	.-12     	; 0x314 <__fixunssfdi+0x8a>
     320:	33 d3       	rcall	.+1638   	; 0x988 <__floatunsisf>
     322:	2b 01       	movw	r4, r22
     324:	3c 01       	movw	r6, r24
     326:	76 2f       	mov	r23, r22
     328:	27 2f       	mov	r18, r23
     32a:	35 2d       	mov	r19, r5
     32c:	46 2d       	mov	r20, r6
     32e:	57 2d       	mov	r21, r7
     330:	fe 01       	movw	r30, r28
     332:	60 2f       	mov	r22, r16
     334:	71 2f       	mov	r23, r17
     336:	8f 2f       	mov	r24, r31
     338:	9c 2f       	mov	r25, r28
     33a:	73 d2       	rcall	.+1254   	; 0x822 <__gesf2>
     33c:	87 fd       	sbrc	r24, 7
     33e:	11 c0       	rjmp	.+34     	; 0x362 <__fixunssfdi+0xd8>
     340:	8c 28       	or	r8, r12
     342:	9d 28       	or	r9, r13
     344:	ae 28       	or	r10, r14
     346:	bf 28       	or	r11, r15
     348:	24 2d       	mov	r18, r4
     34a:	35 2d       	mov	r19, r5
     34c:	46 2d       	mov	r20, r6
     34e:	57 2d       	mov	r21, r7
     350:	fe 01       	movw	r30, r28
     352:	60 2f       	mov	r22, r16
     354:	71 2f       	mov	r23, r17
     356:	8f 2f       	mov	r24, r31
     358:	9c 2f       	mov	r25, r28
     35a:	c3 d1       	rcall	.+902    	; 0x6e2 <__divsf3>
     35c:	8b 01       	movw	r16, r22
     35e:	d8 2f       	mov	r29, r24
     360:	c9 2f       	mov	r28, r25
     362:	f6 94       	lsr	r15
     364:	e7 94       	ror	r14
     366:	d7 94       	ror	r13
     368:	c7 94       	ror	r12
     36a:	81 e0       	ldi	r24, 0x01	; 1
     36c:	28 1a       	sub	r2, r24
     36e:	31 08       	sbc	r3, r1
     370:	59 f6       	brne	.-106    	; 0x308 <__fixunssfdi+0x7e>
     372:	20 e0       	ldi	r18, 0x00	; 0
     374:	30 e0       	ldi	r19, 0x00	; 0
     376:	40 e8       	ldi	r20, 0x80	; 128
     378:	5f e4       	ldi	r21, 0x4F	; 79
     37a:	fe 01       	movw	r30, r28
     37c:	60 2f       	mov	r22, r16
     37e:	71 2f       	mov	r23, r17
     380:	8f 2f       	mov	r24, r31
     382:	9c 2f       	mov	r25, r28
     384:	cc d0       	rcall	.+408    	; 0x51e <__mulsf3>
     386:	75 d3       	rcall	.+1770   	; 0xa72 <__fixunssfsi>
     388:	dc 01       	movw	r26, r24
     38a:	cb 01       	movw	r24, r22
     38c:	9c 01       	movw	r18, r24
     38e:	ad 01       	movw	r20, r26
     390:	60 e0       	ldi	r22, 0x00	; 0
     392:	70 e0       	ldi	r23, 0x00	; 0
     394:	80 e0       	ldi	r24, 0x00	; 0
     396:	90 e0       	ldi	r25, 0x00	; 0
     398:	08 2d       	mov	r16, r8
     39a:	0e 94 89 39 	call	0x7312	; 0x7312 <__ashldi3>
     39e:	49 01       	movw	r8, r18
     3a0:	5a 01       	movw	r10, r20
     3a2:	6b 01       	movw	r12, r22
     3a4:	7c 01       	movw	r14, r24
     3a6:	19 c0       	rjmp	.+50     	; 0x3da <__fixunssfdi+0x150>
     3a8:	81 2c       	mov	r8, r1
     3aa:	91 2c       	mov	r9, r1
     3ac:	a1 2c       	mov	r10, r1
     3ae:	b1 2c       	mov	r11, r1
     3b0:	c1 2c       	mov	r12, r1
     3b2:	d1 2c       	mov	r13, r1
     3b4:	e1 2c       	mov	r14, r1
     3b6:	f1 2c       	mov	r15, r1
     3b8:	10 c0       	rjmp	.+32     	; 0x3da <__fixunssfdi+0x150>
     3ba:	88 24       	eor	r8, r8
     3bc:	8a 94       	dec	r8
     3be:	99 24       	eor	r9, r9
     3c0:	9a 94       	dec	r9
     3c2:	aa 24       	eor	r10, r10
     3c4:	aa 94       	dec	r10
     3c6:	bb 24       	eor	r11, r11
     3c8:	ba 94       	dec	r11
     3ca:	cc 24       	eor	r12, r12
     3cc:	ca 94       	dec	r12
     3ce:	dd 24       	eor	r13, r13
     3d0:	da 94       	dec	r13
     3d2:	ee 24       	eor	r14, r14
     3d4:	ea 94       	dec	r14
     3d6:	ff 24       	eor	r15, r15
     3d8:	fa 94       	dec	r15
     3da:	94 01       	movw	r18, r8
     3dc:	a5 01       	movw	r20, r10
     3de:	b6 01       	movw	r22, r12
     3e0:	c7 01       	movw	r24, r14
     3e2:	cd b7       	in	r28, 0x3d	; 61
     3e4:	de b7       	in	r29, 0x3e	; 62
     3e6:	e2 e1       	ldi	r30, 0x12	; 18
     3e8:	0c 94 dc 39 	jmp	0x73b8	; 0x73b8 <__epilogue_restores__>

000003ec <__floatundisf>:
     3ec:	2f 92       	push	r2
     3ee:	3f 92       	push	r3
     3f0:	4f 92       	push	r4
     3f2:	5f 92       	push	r5
     3f4:	6f 92       	push	r6
     3f6:	7f 92       	push	r7
     3f8:	8f 92       	push	r8
     3fa:	9f 92       	push	r9
     3fc:	af 92       	push	r10
     3fe:	bf 92       	push	r11
     400:	cf 92       	push	r12
     402:	df 92       	push	r13
     404:	ef 92       	push	r14
     406:	ff 92       	push	r15
     408:	0f 93       	push	r16
     40a:	1f 93       	push	r17
     40c:	cf 93       	push	r28
     40e:	19 01       	movw	r2, r18
     410:	2a 01       	movw	r4, r20
     412:	3b 01       	movw	r6, r22
     414:	4c 01       	movw	r8, r24
     416:	60 e0       	ldi	r22, 0x00	; 0
     418:	70 e0       	ldi	r23, 0x00	; 0
     41a:	80 e0       	ldi	r24, 0x00	; 0
     41c:	90 e0       	ldi	r25, 0x00	; 0
     41e:	51 01       	movw	r10, r2
     420:	62 01       	movw	r12, r4
     422:	73 01       	movw	r14, r6
     424:	84 01       	movw	r16, r8
     426:	0e 94 03 3a 	call	0x7406	; 0x7406 <__cmpdi2>
     42a:	21 f4       	brne	.+8      	; 0x434 <__floatundisf+0x48>
     42c:	b1 01       	movw	r22, r2
     42e:	c2 01       	movw	r24, r4
     430:	ab d2       	rcall	.+1366   	; 0x988 <__floatunsisf>
     432:	63 c0       	rjmp	.+198    	; 0x4fa <__floatundisf+0x10e>
     434:	91 01       	movw	r18, r2
     436:	a2 01       	movw	r20, r4
     438:	b3 01       	movw	r22, r6
     43a:	c4 01       	movw	r24, r8
     43c:	00 e2       	ldi	r16, 0x20	; 32
     43e:	0e 94 f4 39 	call	0x73e8	; 0x73e8 <__lshrdi3>
     442:	b9 01       	movw	r22, r18
     444:	ca 01       	movw	r24, r20
     446:	0e 94 aa 39 	call	0x7354	; 0x7354 <__clzsi2>
     44a:	aa 27       	eor	r26, r26
     44c:	97 fd       	sbrc	r25, 7
     44e:	a0 95       	com	r26
     450:	ba 2f       	mov	r27, r26
     452:	20 e2       	ldi	r18, 0x20	; 32
     454:	c2 2e       	mov	r12, r18
     456:	d1 2c       	mov	r13, r1
     458:	e1 2c       	mov	r14, r1
     45a:	f1 2c       	mov	r15, r1
     45c:	c8 1a       	sub	r12, r24
     45e:	d9 0a       	sbc	r13, r25
     460:	ea 0a       	sbc	r14, r26
     462:	fb 0a       	sbc	r15, r27
     464:	cc 2d       	mov	r28, r12
     466:	91 01       	movw	r18, r2
     468:	a2 01       	movw	r20, r4
     46a:	b3 01       	movw	r22, r6
     46c:	c4 01       	movw	r24, r8
     46e:	0c 2d       	mov	r16, r12
     470:	0e 94 f4 39 	call	0x73e8	; 0x73e8 <__lshrdi3>
     474:	60 e2       	ldi	r22, 0x20	; 32
     476:	70 e0       	ldi	r23, 0x00	; 0
     478:	6c 19       	sub	r22, r12
     47a:	7d 09       	sbc	r23, r13
     47c:	04 c0       	rjmp	.+8      	; 0x486 <__floatundisf+0x9a>
     47e:	22 0c       	add	r2, r2
     480:	33 1c       	adc	r3, r3
     482:	44 1c       	adc	r4, r4
     484:	55 1c       	adc	r5, r5
     486:	6a 95       	dec	r22
     488:	d2 f7       	brpl	.-12     	; 0x47e <__floatundisf+0x92>
     48a:	62 2f       	mov	r22, r18
     48c:	23 28       	or	r2, r3
     48e:	24 28       	or	r2, r4
     490:	25 28       	or	r2, r5
     492:	09 f4       	brne	.+2      	; 0x496 <__floatundisf+0xaa>
     494:	01 c0       	rjmp	.+2      	; 0x498 <__floatundisf+0xac>
     496:	61 60       	ori	r22, 0x01	; 1
     498:	73 2f       	mov	r23, r19
     49a:	ca 01       	movw	r24, r20
     49c:	75 d2       	rcall	.+1258   	; 0x988 <__floatunsisf>
     49e:	3b 01       	movw	r6, r22
     4a0:	4c 01       	movw	r8, r24
     4a2:	80 e2       	ldi	r24, 0x20	; 32
     4a4:	c8 16       	cp	r12, r24
     4a6:	d1 04       	cpc	r13, r1
     4a8:	e1 04       	cpc	r14, r1
     4aa:	f1 04       	cpc	r15, r1
     4ac:	a1 f0       	breq	.+40     	; 0x4d6 <__floatundisf+0xea>
     4ae:	9f e1       	ldi	r25, 0x1F	; 31
     4b0:	c9 16       	cp	r12, r25
     4b2:	d1 04       	cpc	r13, r1
     4b4:	e1 04       	cpc	r14, r1
     4b6:	f1 04       	cpc	r15, r1
     4b8:	91 f0       	breq	.+36     	; 0x4de <__floatundisf+0xf2>
     4ba:	61 e0       	ldi	r22, 0x01	; 1
     4bc:	70 e0       	ldi	r23, 0x00	; 0
     4be:	80 e0       	ldi	r24, 0x00	; 0
     4c0:	90 e0       	ldi	r25, 0x00	; 0
     4c2:	04 c0       	rjmp	.+8      	; 0x4cc <__floatundisf+0xe0>
     4c4:	66 0f       	add	r22, r22
     4c6:	77 1f       	adc	r23, r23
     4c8:	88 1f       	adc	r24, r24
     4ca:	99 1f       	adc	r25, r25
     4cc:	ca 95       	dec	r28
     4ce:	d2 f7       	brpl	.-12     	; 0x4c4 <__floatundisf+0xd8>
     4d0:	00 d2       	rcall	.+1024   	; 0x8d2 <__floatsisf>
     4d2:	27 2f       	mov	r18, r23
     4d4:	08 c0       	rjmp	.+16     	; 0x4e6 <__floatundisf+0xfa>
     4d6:	60 e0       	ldi	r22, 0x00	; 0
     4d8:	20 e0       	ldi	r18, 0x00	; 0
     4da:	80 e8       	ldi	r24, 0x80	; 128
     4dc:	03 c0       	rjmp	.+6      	; 0x4e4 <__floatundisf+0xf8>
     4de:	60 e0       	ldi	r22, 0x00	; 0
     4e0:	20 e0       	ldi	r18, 0x00	; 0
     4e2:	80 e0       	ldi	r24, 0x00	; 0
     4e4:	9f e4       	ldi	r25, 0x4F	; 79
     4e6:	f2 2f       	mov	r31, r18
     4e8:	26 2f       	mov	r18, r22
     4ea:	3f 2f       	mov	r19, r31
     4ec:	48 2f       	mov	r20, r24
     4ee:	59 2f       	mov	r21, r25
     4f0:	66 2d       	mov	r22, r6
     4f2:	77 2d       	mov	r23, r7
     4f4:	88 2d       	mov	r24, r8
     4f6:	99 2d       	mov	r25, r9
     4f8:	12 d0       	rcall	.+36     	; 0x51e <__mulsf3>
     4fa:	cf 91       	pop	r28
     4fc:	1f 91       	pop	r17
     4fe:	0f 91       	pop	r16
     500:	ff 90       	pop	r15
     502:	ef 90       	pop	r14
     504:	df 90       	pop	r13
     506:	cf 90       	pop	r12
     508:	bf 90       	pop	r11
     50a:	af 90       	pop	r10
     50c:	9f 90       	pop	r9
     50e:	8f 90       	pop	r8
     510:	7f 90       	pop	r7
     512:	6f 90       	pop	r6
     514:	5f 90       	pop	r5
     516:	4f 90       	pop	r4
     518:	3f 90       	pop	r3
     51a:	2f 90       	pop	r2
     51c:	08 95       	ret

0000051e <__mulsf3>:
     51e:	a0 e2       	ldi	r26, 0x20	; 32
     520:	b0 e0       	ldi	r27, 0x00	; 0
     522:	e5 e9       	ldi	r30, 0x95	; 149
     524:	f2 e0       	ldi	r31, 0x02	; 2
     526:	0c 94 c5 39 	jmp	0x738a	; 0x738a <__prologue_saves__+0x4>
     52a:	6d 8f       	std	Y+29, r22	; 0x1d
     52c:	7e 8f       	std	Y+30, r23	; 0x1e
     52e:	8f 8f       	std	Y+31, r24	; 0x1f
     530:	98 a3       	std	Y+32, r25	; 0x20
     532:	29 8f       	std	Y+25, r18	; 0x19
     534:	3a 8f       	std	Y+26, r19	; 0x1a
     536:	4b 8f       	std	Y+27, r20	; 0x1b
     538:	5c 8f       	std	Y+28, r21	; 0x1c
     53a:	be 01       	movw	r22, r28
     53c:	6f 5e       	subi	r22, 0xEF	; 239
     53e:	7f 4f       	sbci	r23, 0xFF	; 255
     540:	ce 01       	movw	r24, r28
     542:	4d 96       	adiw	r24, 0x1d	; 29
     544:	89 d3       	rcall	.+1810   	; 0xc58 <__unpack_f>
     546:	be 01       	movw	r22, r28
     548:	67 5f       	subi	r22, 0xF7	; 247
     54a:	7f 4f       	sbci	r23, 0xFF	; 255
     54c:	ce 01       	movw	r24, r28
     54e:	49 96       	adiw	r24, 0x19	; 25
     550:	83 d3       	rcall	.+1798   	; 0xc58 <__unpack_f>
     552:	99 89       	ldd	r25, Y+17	; 0x11
     554:	92 30       	cpi	r25, 0x02	; 2
     556:	08 f4       	brcc	.+2      	; 0x55a <__mulsf3+0x3c>
     558:	12 c0       	rjmp	.+36     	; 0x57e <__mulsf3+0x60>
     55a:	89 85       	ldd	r24, Y+9	; 0x09
     55c:	82 30       	cpi	r24, 0x02	; 2
     55e:	08 f4       	brcc	.+2      	; 0x562 <__mulsf3+0x44>
     560:	1a c0       	rjmp	.+52     	; 0x596 <__mulsf3+0x78>
     562:	94 30       	cpi	r25, 0x04	; 4
     564:	21 f4       	brne	.+8      	; 0x56e <__mulsf3+0x50>
     566:	82 30       	cpi	r24, 0x02	; 2
     568:	09 f4       	brne	.+2      	; 0x56c <__mulsf3+0x4e>
     56a:	b4 c0       	rjmp	.+360    	; 0x6d4 <__mulsf3+0x1b6>
     56c:	08 c0       	rjmp	.+16     	; 0x57e <__mulsf3+0x60>
     56e:	84 30       	cpi	r24, 0x04	; 4
     570:	21 f4       	brne	.+8      	; 0x57a <__mulsf3+0x5c>
     572:	92 30       	cpi	r25, 0x02	; 2
     574:	09 f4       	brne	.+2      	; 0x578 <__mulsf3+0x5a>
     576:	ae c0       	rjmp	.+348    	; 0x6d4 <__mulsf3+0x1b6>
     578:	0e c0       	rjmp	.+28     	; 0x596 <__mulsf3+0x78>
     57a:	92 30       	cpi	r25, 0x02	; 2
     57c:	51 f4       	brne	.+20     	; 0x592 <__mulsf3+0x74>
     57e:	81 e0       	ldi	r24, 0x01	; 1
     580:	2a 89       	ldd	r18, Y+18	; 0x12
     582:	9a 85       	ldd	r25, Y+10	; 0x0a
     584:	29 13       	cpse	r18, r25
     586:	01 c0       	rjmp	.+2      	; 0x58a <__mulsf3+0x6c>
     588:	80 e0       	ldi	r24, 0x00	; 0
     58a:	8a 8b       	std	Y+18, r24	; 0x12
     58c:	ce 01       	movw	r24, r28
     58e:	41 96       	adiw	r24, 0x11	; 17
     590:	a3 c0       	rjmp	.+326    	; 0x6d8 <__mulsf3+0x1ba>
     592:	82 30       	cpi	r24, 0x02	; 2
     594:	51 f4       	brne	.+20     	; 0x5aa <__mulsf3+0x8c>
     596:	81 e0       	ldi	r24, 0x01	; 1
     598:	2a 89       	ldd	r18, Y+18	; 0x12
     59a:	9a 85       	ldd	r25, Y+10	; 0x0a
     59c:	29 13       	cpse	r18, r25
     59e:	01 c0       	rjmp	.+2      	; 0x5a2 <__mulsf3+0x84>
     5a0:	80 e0       	ldi	r24, 0x00	; 0
     5a2:	8a 87       	std	Y+10, r24	; 0x0a
     5a4:	ce 01       	movw	r24, r28
     5a6:	09 96       	adiw	r24, 0x09	; 9
     5a8:	97 c0       	rjmp	.+302    	; 0x6d8 <__mulsf3+0x1ba>
     5aa:	8d 88       	ldd	r8, Y+21	; 0x15
     5ac:	9e 88       	ldd	r9, Y+22	; 0x16
     5ae:	af 88       	ldd	r10, Y+23	; 0x17
     5b0:	b8 8c       	ldd	r11, Y+24	; 0x18
     5b2:	0d 85       	ldd	r16, Y+13	; 0x0d
     5b4:	1e 85       	ldd	r17, Y+14	; 0x0e
     5b6:	2f 85       	ldd	r18, Y+15	; 0x0f
     5b8:	38 89       	ldd	r19, Y+16	; 0x10
     5ba:	e0 e2       	ldi	r30, 0x20	; 32
     5bc:	f0 e0       	ldi	r31, 0x00	; 0
     5be:	80 e0       	ldi	r24, 0x00	; 0
     5c0:	90 e0       	ldi	r25, 0x00	; 0
     5c2:	dc 01       	movw	r26, r24
     5c4:	c1 2c       	mov	r12, r1
     5c6:	d1 2c       	mov	r13, r1
     5c8:	76 01       	movw	r14, r12
     5ca:	40 e0       	ldi	r20, 0x00	; 0
     5cc:	50 e0       	ldi	r21, 0x00	; 0
     5ce:	ba 01       	movw	r22, r20
     5d0:	80 fe       	sbrs	r8, 0
     5d2:	18 c0       	rjmp	.+48     	; 0x604 <__mulsf3+0xe6>
     5d4:	40 0f       	add	r20, r16
     5d6:	51 1f       	adc	r21, r17
     5d8:	62 1f       	adc	r22, r18
     5da:	73 1f       	adc	r23, r19
     5dc:	8c 0d       	add	r24, r12
     5de:	9d 1d       	adc	r25, r13
     5e0:	ae 1d       	adc	r26, r14
     5e2:	bf 1d       	adc	r27, r15
     5e4:	41 2c       	mov	r4, r1
     5e6:	51 2c       	mov	r5, r1
     5e8:	32 01       	movw	r6, r4
     5ea:	43 94       	inc	r4
     5ec:	40 17       	cp	r20, r16
     5ee:	51 07       	cpc	r21, r17
     5f0:	62 07       	cpc	r22, r18
     5f2:	73 07       	cpc	r23, r19
     5f4:	18 f0       	brcs	.+6      	; 0x5fc <__mulsf3+0xde>
     5f6:	41 2c       	mov	r4, r1
     5f8:	51 2c       	mov	r5, r1
     5fa:	32 01       	movw	r6, r4
     5fc:	84 0d       	add	r24, r4
     5fe:	95 1d       	adc	r25, r5
     600:	a6 1d       	adc	r26, r6
     602:	b7 1d       	adc	r27, r7
     604:	cc 0c       	add	r12, r12
     606:	dd 1c       	adc	r13, r13
     608:	ee 1c       	adc	r14, r14
     60a:	ff 1c       	adc	r15, r15
     60c:	37 ff       	sbrs	r19, 7
     60e:	02 c0       	rjmp	.+4      	; 0x614 <__mulsf3+0xf6>
     610:	68 94       	set
     612:	c0 f8       	bld	r12, 0
     614:	00 0f       	add	r16, r16
     616:	11 1f       	adc	r17, r17
     618:	22 1f       	adc	r18, r18
     61a:	33 1f       	adc	r19, r19
     61c:	b6 94       	lsr	r11
     61e:	a7 94       	ror	r10
     620:	97 94       	ror	r9
     622:	87 94       	ror	r8
     624:	31 97       	sbiw	r30, 0x01	; 1
     626:	a1 f6       	brne	.-88     	; 0x5d0 <__mulsf3+0xb2>
     628:	2b 89       	ldd	r18, Y+19	; 0x13
     62a:	3c 89       	ldd	r19, Y+20	; 0x14
     62c:	eb 85       	ldd	r30, Y+11	; 0x0b
     62e:	fc 85       	ldd	r31, Y+12	; 0x0c
     630:	2e 0f       	add	r18, r30
     632:	3f 1f       	adc	r19, r31
     634:	2e 5f       	subi	r18, 0xFE	; 254
     636:	3f 4f       	sbci	r19, 0xFF	; 255
     638:	2b 83       	std	Y+3, r18	; 0x03
     63a:	3c 83       	std	Y+4, r19	; 0x04
     63c:	21 e0       	ldi	r18, 0x01	; 1
     63e:	ea 89       	ldd	r30, Y+18	; 0x12
     640:	3a 85       	ldd	r19, Y+10	; 0x0a
     642:	e3 13       	cpse	r30, r19
     644:	01 c0       	rjmp	.+2      	; 0x648 <__mulsf3+0x12a>
     646:	20 e0       	ldi	r18, 0x00	; 0
     648:	2a 83       	std	Y+2, r18	; 0x02
     64a:	eb 81       	ldd	r30, Y+3	; 0x03
     64c:	fc 81       	ldd	r31, Y+4	; 0x04
     64e:	0c c0       	rjmp	.+24     	; 0x668 <__mulsf3+0x14a>
     650:	80 ff       	sbrs	r24, 0
     652:	05 c0       	rjmp	.+10     	; 0x65e <__mulsf3+0x140>
     654:	76 95       	lsr	r23
     656:	67 95       	ror	r22
     658:	57 95       	ror	r21
     65a:	47 95       	ror	r20
     65c:	70 68       	ori	r23, 0x80	; 128
     65e:	b6 95       	lsr	r27
     660:	a7 95       	ror	r26
     662:	97 95       	ror	r25
     664:	87 95       	ror	r24
     666:	31 96       	adiw	r30, 0x01	; 1
     668:	b7 fd       	sbrc	r27, 7
     66a:	f2 cf       	rjmp	.-28     	; 0x650 <__mulsf3+0x132>
     66c:	9f 01       	movw	r18, r30
     66e:	0c c0       	rjmp	.+24     	; 0x688 <__mulsf3+0x16a>
     670:	88 0f       	add	r24, r24
     672:	99 1f       	adc	r25, r25
     674:	aa 1f       	adc	r26, r26
     676:	bb 1f       	adc	r27, r27
     678:	77 fd       	sbrc	r23, 7
     67a:	81 60       	ori	r24, 0x01	; 1
     67c:	44 0f       	add	r20, r20
     67e:	55 1f       	adc	r21, r21
     680:	66 1f       	adc	r22, r22
     682:	77 1f       	adc	r23, r23
     684:	21 50       	subi	r18, 0x01	; 1
     686:	31 09       	sbc	r19, r1
     688:	00 97       	sbiw	r24, 0x00	; 0
     68a:	a1 05       	cpc	r26, r1
     68c:	e0 e4       	ldi	r30, 0x40	; 64
     68e:	be 07       	cpc	r27, r30
     690:	78 f3       	brcs	.-34     	; 0x670 <__mulsf3+0x152>
     692:	2b 83       	std	Y+3, r18	; 0x03
     694:	3c 83       	std	Y+4, r19	; 0x04
     696:	8c 01       	movw	r16, r24
     698:	9d 01       	movw	r18, r26
     69a:	0f 77       	andi	r16, 0x7F	; 127
     69c:	11 27       	eor	r17, r17
     69e:	22 27       	eor	r18, r18
     6a0:	33 27       	eor	r19, r19
     6a2:	00 34       	cpi	r16, 0x40	; 64
     6a4:	11 05       	cpc	r17, r1
     6a6:	21 05       	cpc	r18, r1
     6a8:	31 05       	cpc	r19, r1
     6aa:	59 f4       	brne	.+22     	; 0x6c2 <__mulsf3+0x1a4>
     6ac:	87 fd       	sbrc	r24, 7
     6ae:	09 c0       	rjmp	.+18     	; 0x6c2 <__mulsf3+0x1a4>
     6b0:	45 2b       	or	r20, r21
     6b2:	46 2b       	or	r20, r22
     6b4:	47 2b       	or	r20, r23
     6b6:	29 f0       	breq	.+10     	; 0x6c2 <__mulsf3+0x1a4>
     6b8:	80 5c       	subi	r24, 0xC0	; 192
     6ba:	9f 4f       	sbci	r25, 0xFF	; 255
     6bc:	af 4f       	sbci	r26, 0xFF	; 255
     6be:	bf 4f       	sbci	r27, 0xFF	; 255
     6c0:	80 78       	andi	r24, 0x80	; 128
     6c2:	8d 83       	std	Y+5, r24	; 0x05
     6c4:	9e 83       	std	Y+6, r25	; 0x06
     6c6:	af 83       	std	Y+7, r26	; 0x07
     6c8:	b8 87       	std	Y+8, r27	; 0x08
     6ca:	83 e0       	ldi	r24, 0x03	; 3
     6cc:	89 83       	std	Y+1, r24	; 0x01
     6ce:	ce 01       	movw	r24, r28
     6d0:	01 96       	adiw	r24, 0x01	; 1
     6d2:	02 c0       	rjmp	.+4      	; 0x6d8 <__mulsf3+0x1ba>
     6d4:	85 e1       	ldi	r24, 0x15	; 21
     6d6:	90 e2       	ldi	r25, 0x20	; 32
     6d8:	f5 d1       	rcall	.+1002   	; 0xac4 <__pack_f>
     6da:	a0 96       	adiw	r28, 0x20	; 32
     6dc:	e0 e1       	ldi	r30, 0x10	; 16
     6de:	0c 94 de 39 	jmp	0x73bc	; 0x73bc <__epilogue_restores__+0x4>

000006e2 <__divsf3>:
     6e2:	a8 e1       	ldi	r26, 0x18	; 24
     6e4:	b0 e0       	ldi	r27, 0x00	; 0
     6e6:	e7 e7       	ldi	r30, 0x77	; 119
     6e8:	f3 e0       	ldi	r31, 0x03	; 3
     6ea:	0c 94 cd 39 	jmp	0x739a	; 0x739a <__prologue_saves__+0x14>
     6ee:	6d 8b       	std	Y+21, r22	; 0x15
     6f0:	7e 8b       	std	Y+22, r23	; 0x16
     6f2:	8f 8b       	std	Y+23, r24	; 0x17
     6f4:	98 8f       	std	Y+24, r25	; 0x18
     6f6:	29 8b       	std	Y+17, r18	; 0x11
     6f8:	3a 8b       	std	Y+18, r19	; 0x12
     6fa:	4b 8b       	std	Y+19, r20	; 0x13
     6fc:	5c 8b       	std	Y+20, r21	; 0x14
     6fe:	be 01       	movw	r22, r28
     700:	67 5f       	subi	r22, 0xF7	; 247
     702:	7f 4f       	sbci	r23, 0xFF	; 255
     704:	ce 01       	movw	r24, r28
     706:	45 96       	adiw	r24, 0x15	; 21
     708:	a7 d2       	rcall	.+1358   	; 0xc58 <__unpack_f>
     70a:	be 01       	movw	r22, r28
     70c:	6f 5f       	subi	r22, 0xFF	; 255
     70e:	7f 4f       	sbci	r23, 0xFF	; 255
     710:	ce 01       	movw	r24, r28
     712:	41 96       	adiw	r24, 0x11	; 17
     714:	a1 d2       	rcall	.+1346   	; 0xc58 <__unpack_f>
     716:	99 85       	ldd	r25, Y+9	; 0x09
     718:	92 30       	cpi	r25, 0x02	; 2
     71a:	08 f4       	brcc	.+2      	; 0x71e <__divsf3+0x3c>
     71c:	75 c0       	rjmp	.+234    	; 0x808 <__divsf3+0x126>
     71e:	89 81       	ldd	r24, Y+1	; 0x01
     720:	82 30       	cpi	r24, 0x02	; 2
     722:	08 f4       	brcc	.+2      	; 0x726 <__divsf3+0x44>
     724:	74 c0       	rjmp	.+232    	; 0x80e <__divsf3+0x12c>
     726:	2a 85       	ldd	r18, Y+10	; 0x0a
     728:	3a 81       	ldd	r19, Y+2	; 0x02
     72a:	23 27       	eor	r18, r19
     72c:	2a 87       	std	Y+10, r18	; 0x0a
     72e:	94 30       	cpi	r25, 0x04	; 4
     730:	11 f0       	breq	.+4      	; 0x736 <__divsf3+0x54>
     732:	92 30       	cpi	r25, 0x02	; 2
     734:	19 f4       	brne	.+6      	; 0x73c <__divsf3+0x5a>
     736:	98 13       	cpse	r25, r24
     738:	67 c0       	rjmp	.+206    	; 0x808 <__divsf3+0x126>
     73a:	6c c0       	rjmp	.+216    	; 0x814 <__divsf3+0x132>
     73c:	84 30       	cpi	r24, 0x04	; 4
     73e:	39 f4       	brne	.+14     	; 0x74e <__divsf3+0x6c>
     740:	1d 86       	std	Y+13, r1	; 0x0d
     742:	1e 86       	std	Y+14, r1	; 0x0e
     744:	1f 86       	std	Y+15, r1	; 0x0f
     746:	18 8a       	std	Y+16, r1	; 0x10
     748:	1b 86       	std	Y+11, r1	; 0x0b
     74a:	1c 86       	std	Y+12, r1	; 0x0c
     74c:	04 c0       	rjmp	.+8      	; 0x756 <__divsf3+0x74>
     74e:	82 30       	cpi	r24, 0x02	; 2
     750:	29 f4       	brne	.+10     	; 0x75c <__divsf3+0x7a>
     752:	84 e0       	ldi	r24, 0x04	; 4
     754:	89 87       	std	Y+9, r24	; 0x09
     756:	ce 01       	movw	r24, r28
     758:	09 96       	adiw	r24, 0x09	; 9
     75a:	5e c0       	rjmp	.+188    	; 0x818 <__divsf3+0x136>
     75c:	8b 85       	ldd	r24, Y+11	; 0x0b
     75e:	9c 85       	ldd	r25, Y+12	; 0x0c
     760:	2b 81       	ldd	r18, Y+3	; 0x03
     762:	3c 81       	ldd	r19, Y+4	; 0x04
     764:	82 1b       	sub	r24, r18
     766:	93 0b       	sbc	r25, r19
     768:	8b 87       	std	Y+11, r24	; 0x0b
     76a:	9c 87       	std	Y+12, r25	; 0x0c
     76c:	4d 85       	ldd	r20, Y+13	; 0x0d
     76e:	5e 85       	ldd	r21, Y+14	; 0x0e
     770:	6f 85       	ldd	r22, Y+15	; 0x0f
     772:	78 89       	ldd	r23, Y+16	; 0x10
     774:	cd 80       	ldd	r12, Y+5	; 0x05
     776:	de 80       	ldd	r13, Y+6	; 0x06
     778:	ef 80       	ldd	r14, Y+7	; 0x07
     77a:	f8 84       	ldd	r15, Y+8	; 0x08
     77c:	4c 15       	cp	r20, r12
     77e:	5d 05       	cpc	r21, r13
     780:	6e 05       	cpc	r22, r14
     782:	7f 05       	cpc	r23, r15
     784:	38 f4       	brcc	.+14     	; 0x794 <__divsf3+0xb2>
     786:	44 0f       	add	r20, r20
     788:	55 1f       	adc	r21, r21
     78a:	66 1f       	adc	r22, r22
     78c:	77 1f       	adc	r23, r23
     78e:	01 97       	sbiw	r24, 0x01	; 1
     790:	8b 87       	std	Y+11, r24	; 0x0b
     792:	9c 87       	std	Y+12, r25	; 0x0c
     794:	ef e1       	ldi	r30, 0x1F	; 31
     796:	f0 e0       	ldi	r31, 0x00	; 0
     798:	00 e0       	ldi	r16, 0x00	; 0
     79a:	10 e0       	ldi	r17, 0x00	; 0
     79c:	20 e0       	ldi	r18, 0x00	; 0
     79e:	30 e4       	ldi	r19, 0x40	; 64
     7a0:	80 e0       	ldi	r24, 0x00	; 0
     7a2:	90 e0       	ldi	r25, 0x00	; 0
     7a4:	dc 01       	movw	r26, r24
     7a6:	4c 15       	cp	r20, r12
     7a8:	5d 05       	cpc	r21, r13
     7aa:	6e 05       	cpc	r22, r14
     7ac:	7f 05       	cpc	r23, r15
     7ae:	40 f0       	brcs	.+16     	; 0x7c0 <__divsf3+0xde>
     7b0:	80 2b       	or	r24, r16
     7b2:	91 2b       	or	r25, r17
     7b4:	a2 2b       	or	r26, r18
     7b6:	b3 2b       	or	r27, r19
     7b8:	4c 19       	sub	r20, r12
     7ba:	5d 09       	sbc	r21, r13
     7bc:	6e 09       	sbc	r22, r14
     7be:	7f 09       	sbc	r23, r15
     7c0:	36 95       	lsr	r19
     7c2:	27 95       	ror	r18
     7c4:	17 95       	ror	r17
     7c6:	07 95       	ror	r16
     7c8:	44 0f       	add	r20, r20
     7ca:	55 1f       	adc	r21, r21
     7cc:	66 1f       	adc	r22, r22
     7ce:	77 1f       	adc	r23, r23
     7d0:	31 97       	sbiw	r30, 0x01	; 1
     7d2:	49 f7       	brne	.-46     	; 0x7a6 <__divsf3+0xc4>
     7d4:	8c 01       	movw	r16, r24
     7d6:	9d 01       	movw	r18, r26
     7d8:	0f 77       	andi	r16, 0x7F	; 127
     7da:	11 27       	eor	r17, r17
     7dc:	22 27       	eor	r18, r18
     7de:	33 27       	eor	r19, r19
     7e0:	00 34       	cpi	r16, 0x40	; 64
     7e2:	11 05       	cpc	r17, r1
     7e4:	21 05       	cpc	r18, r1
     7e6:	31 05       	cpc	r19, r1
     7e8:	59 f4       	brne	.+22     	; 0x800 <__divsf3+0x11e>
     7ea:	87 fd       	sbrc	r24, 7
     7ec:	09 c0       	rjmp	.+18     	; 0x800 <__divsf3+0x11e>
     7ee:	45 2b       	or	r20, r21
     7f0:	46 2b       	or	r20, r22
     7f2:	47 2b       	or	r20, r23
     7f4:	29 f0       	breq	.+10     	; 0x800 <__divsf3+0x11e>
     7f6:	80 5c       	subi	r24, 0xC0	; 192
     7f8:	9f 4f       	sbci	r25, 0xFF	; 255
     7fa:	af 4f       	sbci	r26, 0xFF	; 255
     7fc:	bf 4f       	sbci	r27, 0xFF	; 255
     7fe:	80 78       	andi	r24, 0x80	; 128
     800:	8d 87       	std	Y+13, r24	; 0x0d
     802:	9e 87       	std	Y+14, r25	; 0x0e
     804:	af 87       	std	Y+15, r26	; 0x0f
     806:	b8 8b       	std	Y+16, r27	; 0x10
     808:	ce 01       	movw	r24, r28
     80a:	09 96       	adiw	r24, 0x09	; 9
     80c:	05 c0       	rjmp	.+10     	; 0x818 <__divsf3+0x136>
     80e:	ce 01       	movw	r24, r28
     810:	01 96       	adiw	r24, 0x01	; 1
     812:	02 c0       	rjmp	.+4      	; 0x818 <__divsf3+0x136>
     814:	85 e1       	ldi	r24, 0x15	; 21
     816:	90 e2       	ldi	r25, 0x20	; 32
     818:	55 d1       	rcall	.+682    	; 0xac4 <__pack_f>
     81a:	68 96       	adiw	r28, 0x18	; 24
     81c:	e8 e0       	ldi	r30, 0x08	; 8
     81e:	0c 94 e6 39 	jmp	0x73cc	; 0x73cc <__epilogue_restores__+0x14>

00000822 <__gesf2>:
     822:	a8 e1       	ldi	r26, 0x18	; 24
     824:	b0 e0       	ldi	r27, 0x00	; 0
     826:	e7 e1       	ldi	r30, 0x17	; 23
     828:	f4 e0       	ldi	r31, 0x04	; 4
     82a:	0c 94 d3 39 	jmp	0x73a6	; 0x73a6 <__prologue_saves__+0x20>
     82e:	6d 8b       	std	Y+21, r22	; 0x15
     830:	7e 8b       	std	Y+22, r23	; 0x16
     832:	8f 8b       	std	Y+23, r24	; 0x17
     834:	98 8f       	std	Y+24, r25	; 0x18
     836:	29 8b       	std	Y+17, r18	; 0x11
     838:	3a 8b       	std	Y+18, r19	; 0x12
     83a:	4b 8b       	std	Y+19, r20	; 0x13
     83c:	5c 8b       	std	Y+20, r21	; 0x14
     83e:	be 01       	movw	r22, r28
     840:	67 5f       	subi	r22, 0xF7	; 247
     842:	7f 4f       	sbci	r23, 0xFF	; 255
     844:	ce 01       	movw	r24, r28
     846:	45 96       	adiw	r24, 0x15	; 21
     848:	07 d2       	rcall	.+1038   	; 0xc58 <__unpack_f>
     84a:	be 01       	movw	r22, r28
     84c:	6f 5f       	subi	r22, 0xFF	; 255
     84e:	7f 4f       	sbci	r23, 0xFF	; 255
     850:	ce 01       	movw	r24, r28
     852:	41 96       	adiw	r24, 0x11	; 17
     854:	01 d2       	rcall	.+1026   	; 0xc58 <__unpack_f>
     856:	89 85       	ldd	r24, Y+9	; 0x09
     858:	82 30       	cpi	r24, 0x02	; 2
     85a:	50 f0       	brcs	.+20     	; 0x870 <__gesf2+0x4e>
     85c:	89 81       	ldd	r24, Y+1	; 0x01
     85e:	82 30       	cpi	r24, 0x02	; 2
     860:	38 f0       	brcs	.+14     	; 0x870 <__gesf2+0x4e>
     862:	be 01       	movw	r22, r28
     864:	6f 5f       	subi	r22, 0xFF	; 255
     866:	7f 4f       	sbci	r23, 0xFF	; 255
     868:	ce 01       	movw	r24, r28
     86a:	09 96       	adiw	r24, 0x09	; 9
     86c:	14 d4       	rcall	.+2088   	; 0x1096 <__fpcmp_parts_f>
     86e:	01 c0       	rjmp	.+2      	; 0x872 <__gesf2+0x50>
     870:	8f ef       	ldi	r24, 0xFF	; 255
     872:	68 96       	adiw	r28, 0x18	; 24
     874:	e2 e0       	ldi	r30, 0x02	; 2
     876:	0c 94 ec 39 	jmp	0x73d8	; 0x73d8 <__epilogue_restores__+0x20>

0000087a <__ltsf2>:
     87a:	a8 e1       	ldi	r26, 0x18	; 24
     87c:	b0 e0       	ldi	r27, 0x00	; 0
     87e:	e3 e4       	ldi	r30, 0x43	; 67
     880:	f4 e0       	ldi	r31, 0x04	; 4
     882:	0c 94 d3 39 	jmp	0x73a6	; 0x73a6 <__prologue_saves__+0x20>
     886:	6d 8b       	std	Y+21, r22	; 0x15
     888:	7e 8b       	std	Y+22, r23	; 0x16
     88a:	8f 8b       	std	Y+23, r24	; 0x17
     88c:	98 8f       	std	Y+24, r25	; 0x18
     88e:	29 8b       	std	Y+17, r18	; 0x11
     890:	3a 8b       	std	Y+18, r19	; 0x12
     892:	4b 8b       	std	Y+19, r20	; 0x13
     894:	5c 8b       	std	Y+20, r21	; 0x14
     896:	be 01       	movw	r22, r28
     898:	67 5f       	subi	r22, 0xF7	; 247
     89a:	7f 4f       	sbci	r23, 0xFF	; 255
     89c:	ce 01       	movw	r24, r28
     89e:	45 96       	adiw	r24, 0x15	; 21
     8a0:	db d1       	rcall	.+950    	; 0xc58 <__unpack_f>
     8a2:	be 01       	movw	r22, r28
     8a4:	6f 5f       	subi	r22, 0xFF	; 255
     8a6:	7f 4f       	sbci	r23, 0xFF	; 255
     8a8:	ce 01       	movw	r24, r28
     8aa:	41 96       	adiw	r24, 0x11	; 17
     8ac:	d5 d1       	rcall	.+938    	; 0xc58 <__unpack_f>
     8ae:	89 85       	ldd	r24, Y+9	; 0x09
     8b0:	82 30       	cpi	r24, 0x02	; 2
     8b2:	50 f0       	brcs	.+20     	; 0x8c8 <__ltsf2+0x4e>
     8b4:	89 81       	ldd	r24, Y+1	; 0x01
     8b6:	82 30       	cpi	r24, 0x02	; 2
     8b8:	38 f0       	brcs	.+14     	; 0x8c8 <__ltsf2+0x4e>
     8ba:	be 01       	movw	r22, r28
     8bc:	6f 5f       	subi	r22, 0xFF	; 255
     8be:	7f 4f       	sbci	r23, 0xFF	; 255
     8c0:	ce 01       	movw	r24, r28
     8c2:	09 96       	adiw	r24, 0x09	; 9
     8c4:	e8 d3       	rcall	.+2000   	; 0x1096 <__fpcmp_parts_f>
     8c6:	01 c0       	rjmp	.+2      	; 0x8ca <__ltsf2+0x50>
     8c8:	81 e0       	ldi	r24, 0x01	; 1
     8ca:	68 96       	adiw	r28, 0x18	; 24
     8cc:	e2 e0       	ldi	r30, 0x02	; 2
     8ce:	0c 94 ec 39 	jmp	0x73d8	; 0x73d8 <__epilogue_restores__+0x20>

000008d2 <__floatsisf>:
     8d2:	a8 e0       	ldi	r26, 0x08	; 8
     8d4:	b0 e0       	ldi	r27, 0x00	; 0
     8d6:	ef e6       	ldi	r30, 0x6F	; 111
     8d8:	f4 e0       	ldi	r31, 0x04	; 4
     8da:	0c 94 d1 39 	jmp	0x73a2	; 0x73a2 <__prologue_saves__+0x1c>
     8de:	23 e0       	ldi	r18, 0x03	; 3
     8e0:	29 83       	std	Y+1, r18	; 0x01
     8e2:	8b 01       	movw	r16, r22
     8e4:	9c 01       	movw	r18, r24
     8e6:	00 27       	eor	r16, r16
     8e8:	37 fd       	sbrc	r19, 7
     8ea:	03 95       	inc	r16
     8ec:	11 27       	eor	r17, r17
     8ee:	22 27       	eor	r18, r18
     8f0:	33 27       	eor	r19, r19
     8f2:	40 2f       	mov	r20, r16
     8f4:	0a 83       	std	Y+2, r16	; 0x02
     8f6:	61 15       	cp	r22, r1
     8f8:	71 05       	cpc	r23, r1
     8fa:	81 05       	cpc	r24, r1
     8fc:	91 05       	cpc	r25, r1
     8fe:	19 f4       	brne	.+6      	; 0x906 <__floatsisf+0x34>
     900:	82 e0       	ldi	r24, 0x02	; 2
     902:	89 83       	std	Y+1, r24	; 0x01
     904:	35 c0       	rjmp	.+106    	; 0x970 <__floatsisf+0x9e>
     906:	2e e1       	ldi	r18, 0x1E	; 30
     908:	30 e0       	ldi	r19, 0x00	; 0
     90a:	2b 83       	std	Y+3, r18	; 0x03
     90c:	3c 83       	std	Y+4, r19	; 0x04
     90e:	44 23       	and	r20, r20
     910:	71 f0       	breq	.+28     	; 0x92e <__floatsisf+0x5c>
     912:	61 15       	cp	r22, r1
     914:	71 05       	cpc	r23, r1
     916:	81 05       	cpc	r24, r1
     918:	20 e8       	ldi	r18, 0x80	; 128
     91a:	92 07       	cpc	r25, r18
     91c:	69 f1       	breq	.+90     	; 0x978 <__floatsisf+0xa6>
     91e:	00 27       	eor	r16, r16
     920:	11 27       	eor	r17, r17
     922:	98 01       	movw	r18, r16
     924:	06 1b       	sub	r16, r22
     926:	17 0b       	sbc	r17, r23
     928:	28 0b       	sbc	r18, r24
     92a:	39 0b       	sbc	r19, r25
     92c:	02 c0       	rjmp	.+4      	; 0x932 <__floatsisf+0x60>
     92e:	8b 01       	movw	r16, r22
     930:	9c 01       	movw	r18, r24
     932:	c9 01       	movw	r24, r18
     934:	b8 01       	movw	r22, r16
     936:	0e 94 aa 39 	call	0x7354	; 0x7354 <__clzsi2>
     93a:	01 97       	sbiw	r24, 0x01	; 1
     93c:	18 16       	cp	r1, r24
     93e:	19 06       	cpc	r1, r25
     940:	2c f0       	brlt	.+10     	; 0x94c <__floatsisf+0x7a>
     942:	0d 83       	std	Y+5, r16	; 0x05
     944:	1e 83       	std	Y+6, r17	; 0x06
     946:	2f 83       	std	Y+7, r18	; 0x07
     948:	38 87       	std	Y+8, r19	; 0x08
     94a:	12 c0       	rjmp	.+36     	; 0x970 <__floatsisf+0x9e>
     94c:	08 2e       	mov	r0, r24
     94e:	04 c0       	rjmp	.+8      	; 0x958 <__floatsisf+0x86>
     950:	00 0f       	add	r16, r16
     952:	11 1f       	adc	r17, r17
     954:	22 1f       	adc	r18, r18
     956:	33 1f       	adc	r19, r19
     958:	0a 94       	dec	r0
     95a:	d2 f7       	brpl	.-12     	; 0x950 <__floatsisf+0x7e>
     95c:	0d 83       	std	Y+5, r16	; 0x05
     95e:	1e 83       	std	Y+6, r17	; 0x06
     960:	2f 83       	std	Y+7, r18	; 0x07
     962:	38 87       	std	Y+8, r19	; 0x08
     964:	2e e1       	ldi	r18, 0x1E	; 30
     966:	30 e0       	ldi	r19, 0x00	; 0
     968:	28 1b       	sub	r18, r24
     96a:	39 0b       	sbc	r19, r25
     96c:	2b 83       	std	Y+3, r18	; 0x03
     96e:	3c 83       	std	Y+4, r19	; 0x04
     970:	ce 01       	movw	r24, r28
     972:	01 96       	adiw	r24, 0x01	; 1
     974:	a7 d0       	rcall	.+334    	; 0xac4 <__pack_f>
     976:	04 c0       	rjmp	.+8      	; 0x980 <__floatsisf+0xae>
     978:	60 e0       	ldi	r22, 0x00	; 0
     97a:	70 e0       	ldi	r23, 0x00	; 0
     97c:	80 e0       	ldi	r24, 0x00	; 0
     97e:	9f ec       	ldi	r25, 0xCF	; 207
     980:	28 96       	adiw	r28, 0x08	; 8
     982:	e4 e0       	ldi	r30, 0x04	; 4
     984:	0c 94 ea 39 	jmp	0x73d4	; 0x73d4 <__epilogue_restores__+0x1c>

00000988 <__floatunsisf>:
     988:	a8 e0       	ldi	r26, 0x08	; 8
     98a:	b0 e0       	ldi	r27, 0x00	; 0
     98c:	ea ec       	ldi	r30, 0xCA	; 202
     98e:	f4 e0       	ldi	r31, 0x04	; 4
     990:	0c 94 cd 39 	jmp	0x739a	; 0x739a <__prologue_saves__+0x14>
     994:	8b 01       	movw	r16, r22
     996:	9c 01       	movw	r18, r24
     998:	1a 82       	std	Y+2, r1	; 0x02
     99a:	61 15       	cp	r22, r1
     99c:	71 05       	cpc	r23, r1
     99e:	81 05       	cpc	r24, r1
     9a0:	91 05       	cpc	r25, r1
     9a2:	19 f4       	brne	.+6      	; 0x9aa <__floatunsisf+0x22>
     9a4:	82 e0       	ldi	r24, 0x02	; 2
     9a6:	89 83       	std	Y+1, r24	; 0x01
     9a8:	5d c0       	rjmp	.+186    	; 0xa64 <__floatunsisf+0xdc>
     9aa:	83 e0       	ldi	r24, 0x03	; 3
     9ac:	89 83       	std	Y+1, r24	; 0x01
     9ae:	4e e1       	ldi	r20, 0x1E	; 30
     9b0:	50 e0       	ldi	r21, 0x00	; 0
     9b2:	4b 83       	std	Y+3, r20	; 0x03
     9b4:	5c 83       	std	Y+4, r21	; 0x04
     9b6:	c9 01       	movw	r24, r18
     9b8:	b8 01       	movw	r22, r16
     9ba:	0e 94 aa 39 	call	0x7354	; 0x7354 <__clzsi2>
     9be:	01 97       	sbiw	r24, 0x01	; 1
     9c0:	97 ff       	sbrs	r25, 7
     9c2:	39 c0       	rjmp	.+114    	; 0xa36 <__floatunsisf+0xae>
     9c4:	ee 27       	eor	r30, r30
     9c6:	ff 27       	eor	r31, r31
     9c8:	e8 1b       	sub	r30, r24
     9ca:	f9 0b       	sbc	r31, r25
     9cc:	41 e0       	ldi	r20, 0x01	; 1
     9ce:	50 e0       	ldi	r21, 0x00	; 0
     9d0:	60 e0       	ldi	r22, 0x00	; 0
     9d2:	70 e0       	ldi	r23, 0x00	; 0
     9d4:	0e 2e       	mov	r0, r30
     9d6:	04 c0       	rjmp	.+8      	; 0x9e0 <__floatunsisf+0x58>
     9d8:	44 0f       	add	r20, r20
     9da:	55 1f       	adc	r21, r21
     9dc:	66 1f       	adc	r22, r22
     9de:	77 1f       	adc	r23, r23
     9e0:	0a 94       	dec	r0
     9e2:	d2 f7       	brpl	.-12     	; 0x9d8 <__floatunsisf+0x50>
     9e4:	41 50       	subi	r20, 0x01	; 1
     9e6:	51 09       	sbc	r21, r1
     9e8:	61 09       	sbc	r22, r1
     9ea:	71 09       	sbc	r23, r1
     9ec:	40 23       	and	r20, r16
     9ee:	51 23       	and	r21, r17
     9f0:	62 23       	and	r22, r18
     9f2:	73 23       	and	r23, r19
     9f4:	c1 2c       	mov	r12, r1
     9f6:	d1 2c       	mov	r13, r1
     9f8:	76 01       	movw	r14, r12
     9fa:	c3 94       	inc	r12
     9fc:	45 2b       	or	r20, r21
     9fe:	46 2b       	or	r20, r22
     a00:	47 2b       	or	r20, r23
     a02:	19 f4       	brne	.+6      	; 0xa0a <__floatunsisf+0x82>
     a04:	c1 2c       	mov	r12, r1
     a06:	d1 2c       	mov	r13, r1
     a08:	76 01       	movw	r14, r12
     a0a:	04 c0       	rjmp	.+8      	; 0xa14 <__floatunsisf+0x8c>
     a0c:	36 95       	lsr	r19
     a0e:	27 95       	ror	r18
     a10:	17 95       	ror	r17
     a12:	07 95       	ror	r16
     a14:	ea 95       	dec	r30
     a16:	d2 f7       	brpl	.-12     	; 0xa0c <__floatunsisf+0x84>
     a18:	0c 29       	or	r16, r12
     a1a:	1d 29       	or	r17, r13
     a1c:	2e 29       	or	r18, r14
     a1e:	3f 29       	or	r19, r15
     a20:	0d 83       	std	Y+5, r16	; 0x05
     a22:	1e 83       	std	Y+6, r17	; 0x06
     a24:	2f 83       	std	Y+7, r18	; 0x07
     a26:	38 87       	std	Y+8, r19	; 0x08
     a28:	2e e1       	ldi	r18, 0x1E	; 30
     a2a:	30 e0       	ldi	r19, 0x00	; 0
     a2c:	28 1b       	sub	r18, r24
     a2e:	39 0b       	sbc	r19, r25
     a30:	2b 83       	std	Y+3, r18	; 0x03
     a32:	3c 83       	std	Y+4, r19	; 0x04
     a34:	17 c0       	rjmp	.+46     	; 0xa64 <__floatunsisf+0xdc>
     a36:	00 97       	sbiw	r24, 0x00	; 0
     a38:	29 f4       	brne	.+10     	; 0xa44 <__floatunsisf+0xbc>
     a3a:	0d 83       	std	Y+5, r16	; 0x05
     a3c:	1e 83       	std	Y+6, r17	; 0x06
     a3e:	2f 83       	std	Y+7, r18	; 0x07
     a40:	38 87       	std	Y+8, r19	; 0x08
     a42:	10 c0       	rjmp	.+32     	; 0xa64 <__floatunsisf+0xdc>
     a44:	08 2e       	mov	r0, r24
     a46:	04 c0       	rjmp	.+8      	; 0xa50 <__floatunsisf+0xc8>
     a48:	00 0f       	add	r16, r16
     a4a:	11 1f       	adc	r17, r17
     a4c:	22 1f       	adc	r18, r18
     a4e:	33 1f       	adc	r19, r19
     a50:	0a 94       	dec	r0
     a52:	d2 f7       	brpl	.-12     	; 0xa48 <__floatunsisf+0xc0>
     a54:	0d 83       	std	Y+5, r16	; 0x05
     a56:	1e 83       	std	Y+6, r17	; 0x06
     a58:	2f 83       	std	Y+7, r18	; 0x07
     a5a:	38 87       	std	Y+8, r19	; 0x08
     a5c:	48 1b       	sub	r20, r24
     a5e:	59 0b       	sbc	r21, r25
     a60:	4b 83       	std	Y+3, r20	; 0x03
     a62:	5c 83       	std	Y+4, r21	; 0x04
     a64:	ce 01       	movw	r24, r28
     a66:	01 96       	adiw	r24, 0x01	; 1
     a68:	2d d0       	rcall	.+90     	; 0xac4 <__pack_f>
     a6a:	28 96       	adiw	r28, 0x08	; 8
     a6c:	e8 e0       	ldi	r30, 0x08	; 8
     a6e:	0c 94 e6 39 	jmp	0x73cc	; 0x73cc <__epilogue_restores__+0x14>

00000a72 <__fixunssfsi>:
     a72:	cf 92       	push	r12
     a74:	df 92       	push	r13
     a76:	ef 92       	push	r14
     a78:	ff 92       	push	r15
     a7a:	0f 93       	push	r16
     a7c:	1f 93       	push	r17
     a7e:	6b 01       	movw	r12, r22
     a80:	7c 01       	movw	r14, r24
     a82:	20 e0       	ldi	r18, 0x00	; 0
     a84:	30 e0       	ldi	r19, 0x00	; 0
     a86:	40 e0       	ldi	r20, 0x00	; 0
     a88:	5f e4       	ldi	r21, 0x4F	; 79
     a8a:	cb de       	rcall	.-618    	; 0x822 <__gesf2>
     a8c:	87 fd       	sbrc	r24, 7
     a8e:	0c c0       	rjmp	.+24     	; 0xaa8 <__fixunssfsi+0x36>
     a90:	20 e0       	ldi	r18, 0x00	; 0
     a92:	30 e0       	ldi	r19, 0x00	; 0
     a94:	40 e0       	ldi	r20, 0x00	; 0
     a96:	5f e4       	ldi	r21, 0x4F	; 79
     a98:	c7 01       	movw	r24, r14
     a9a:	b6 01       	movw	r22, r12
     a9c:	d0 d2       	rcall	.+1440   	; 0x103e <__subsf3>
     a9e:	5c d3       	rcall	.+1720   	; 0x1158 <__fixsfsi>
     aa0:	8b 01       	movw	r16, r22
     aa2:	9c 01       	movw	r18, r24
     aa4:	30 58       	subi	r19, 0x80	; 128
     aa6:	05 c0       	rjmp	.+10     	; 0xab2 <__fixunssfsi+0x40>
     aa8:	c7 01       	movw	r24, r14
     aaa:	b6 01       	movw	r22, r12
     aac:	55 d3       	rcall	.+1706   	; 0x1158 <__fixsfsi>
     aae:	8b 01       	movw	r16, r22
     ab0:	9c 01       	movw	r18, r24
     ab2:	b8 01       	movw	r22, r16
     ab4:	c9 01       	movw	r24, r18
     ab6:	1f 91       	pop	r17
     ab8:	0f 91       	pop	r16
     aba:	ff 90       	pop	r15
     abc:	ef 90       	pop	r14
     abe:	df 90       	pop	r13
     ac0:	cf 90       	pop	r12
     ac2:	08 95       	ret

00000ac4 <__pack_f>:
     ac4:	0f 93       	push	r16
     ac6:	1f 93       	push	r17
     ac8:	cf 93       	push	r28
     aca:	df 93       	push	r29
     acc:	dc 01       	movw	r26, r24
     ace:	14 96       	adiw	r26, 0x04	; 4
     ad0:	4d 91       	ld	r20, X+
     ad2:	5d 91       	ld	r21, X+
     ad4:	6d 91       	ld	r22, X+
     ad6:	7c 91       	ld	r23, X
     ad8:	17 97       	sbiw	r26, 0x07	; 7
     ada:	11 96       	adiw	r26, 0x01	; 1
     adc:	ec 91       	ld	r30, X
     ade:	11 97       	sbiw	r26, 0x01	; 1
     ae0:	8c 91       	ld	r24, X
     ae2:	82 30       	cpi	r24, 0x02	; 2
     ae4:	20 f4       	brcc	.+8      	; 0xaee <__pack_f+0x2a>
     ae6:	60 61       	ori	r22, 0x10	; 16
     ae8:	8f ef       	ldi	r24, 0xFF	; 255
     aea:	90 e0       	ldi	r25, 0x00	; 0
     aec:	a6 c0       	rjmp	.+332    	; 0xc3a <__pack_f+0x176>
     aee:	84 30       	cpi	r24, 0x04	; 4
     af0:	09 f4       	brne	.+2      	; 0xaf4 <__pack_f+0x30>
     af2:	9e c0       	rjmp	.+316    	; 0xc30 <__pack_f+0x16c>
     af4:	82 30       	cpi	r24, 0x02	; 2
     af6:	09 f4       	brne	.+2      	; 0xafa <__pack_f+0x36>
     af8:	95 c0       	rjmp	.+298    	; 0xc24 <__pack_f+0x160>
     afa:	41 15       	cp	r20, r1
     afc:	51 05       	cpc	r21, r1
     afe:	61 05       	cpc	r22, r1
     b00:	71 05       	cpc	r23, r1
     b02:	09 f4       	brne	.+2      	; 0xb06 <__pack_f+0x42>
     b04:	92 c0       	rjmp	.+292    	; 0xc2a <__pack_f+0x166>
     b06:	12 96       	adiw	r26, 0x02	; 2
     b08:	2d 91       	ld	r18, X+
     b0a:	3c 91       	ld	r19, X
     b0c:	13 97       	sbiw	r26, 0x03	; 3
     b0e:	22 38       	cpi	r18, 0x82	; 130
     b10:	8f ef       	ldi	r24, 0xFF	; 255
     b12:	38 07       	cpc	r19, r24
     b14:	0c f0       	brlt	.+2      	; 0xb18 <__pack_f+0x54>
     b16:	58 c0       	rjmp	.+176    	; 0xbc8 <__pack_f+0x104>
     b18:	c2 e8       	ldi	r28, 0x82	; 130
     b1a:	df ef       	ldi	r29, 0xFF	; 255
     b1c:	c2 1b       	sub	r28, r18
     b1e:	d3 0b       	sbc	r29, r19
     b20:	ca 31       	cpi	r28, 0x1A	; 26
     b22:	d1 05       	cpc	r29, r1
     b24:	6c f5       	brge	.+90     	; 0xb80 <__pack_f+0xbc>
     b26:	8a 01       	movw	r16, r20
     b28:	9b 01       	movw	r18, r22
     b2a:	0c 2e       	mov	r0, r28
     b2c:	04 c0       	rjmp	.+8      	; 0xb36 <__pack_f+0x72>
     b2e:	36 95       	lsr	r19
     b30:	27 95       	ror	r18
     b32:	17 95       	ror	r17
     b34:	07 95       	ror	r16
     b36:	0a 94       	dec	r0
     b38:	d2 f7       	brpl	.-12     	; 0xb2e <__pack_f+0x6a>
     b3a:	81 e0       	ldi	r24, 0x01	; 1
     b3c:	90 e0       	ldi	r25, 0x00	; 0
     b3e:	a0 e0       	ldi	r26, 0x00	; 0
     b40:	b0 e0       	ldi	r27, 0x00	; 0
     b42:	0c 2e       	mov	r0, r28
     b44:	04 c0       	rjmp	.+8      	; 0xb4e <__pack_f+0x8a>
     b46:	88 0f       	add	r24, r24
     b48:	99 1f       	adc	r25, r25
     b4a:	aa 1f       	adc	r26, r26
     b4c:	bb 1f       	adc	r27, r27
     b4e:	0a 94       	dec	r0
     b50:	d2 f7       	brpl	.-12     	; 0xb46 <__pack_f+0x82>
     b52:	01 97       	sbiw	r24, 0x01	; 1
     b54:	a1 09       	sbc	r26, r1
     b56:	b1 09       	sbc	r27, r1
     b58:	84 23       	and	r24, r20
     b5a:	95 23       	and	r25, r21
     b5c:	a6 23       	and	r26, r22
     b5e:	b7 23       	and	r27, r23
     b60:	41 e0       	ldi	r20, 0x01	; 1
     b62:	50 e0       	ldi	r21, 0x00	; 0
     b64:	60 e0       	ldi	r22, 0x00	; 0
     b66:	70 e0       	ldi	r23, 0x00	; 0
     b68:	89 2b       	or	r24, r25
     b6a:	8a 2b       	or	r24, r26
     b6c:	8b 2b       	or	r24, r27
     b6e:	19 f4       	brne	.+6      	; 0xb76 <__pack_f+0xb2>
     b70:	40 e0       	ldi	r20, 0x00	; 0
     b72:	50 e0       	ldi	r21, 0x00	; 0
     b74:	ba 01       	movw	r22, r20
     b76:	40 2b       	or	r20, r16
     b78:	51 2b       	or	r21, r17
     b7a:	62 2b       	or	r22, r18
     b7c:	73 2b       	or	r23, r19
     b7e:	03 c0       	rjmp	.+6      	; 0xb86 <__pack_f+0xc2>
     b80:	40 e0       	ldi	r20, 0x00	; 0
     b82:	50 e0       	ldi	r21, 0x00	; 0
     b84:	ba 01       	movw	r22, r20
     b86:	db 01       	movw	r26, r22
     b88:	ca 01       	movw	r24, r20
     b8a:	8f 77       	andi	r24, 0x7F	; 127
     b8c:	99 27       	eor	r25, r25
     b8e:	aa 27       	eor	r26, r26
     b90:	bb 27       	eor	r27, r27
     b92:	80 34       	cpi	r24, 0x40	; 64
     b94:	91 05       	cpc	r25, r1
     b96:	a1 05       	cpc	r26, r1
     b98:	b1 05       	cpc	r27, r1
     b9a:	39 f4       	brne	.+14     	; 0xbaa <__pack_f+0xe6>
     b9c:	47 ff       	sbrs	r20, 7
     b9e:	09 c0       	rjmp	.+18     	; 0xbb2 <__pack_f+0xee>
     ba0:	40 5c       	subi	r20, 0xC0	; 192
     ba2:	5f 4f       	sbci	r21, 0xFF	; 255
     ba4:	6f 4f       	sbci	r22, 0xFF	; 255
     ba6:	7f 4f       	sbci	r23, 0xFF	; 255
     ba8:	04 c0       	rjmp	.+8      	; 0xbb2 <__pack_f+0xee>
     baa:	41 5c       	subi	r20, 0xC1	; 193
     bac:	5f 4f       	sbci	r21, 0xFF	; 255
     bae:	6f 4f       	sbci	r22, 0xFF	; 255
     bb0:	7f 4f       	sbci	r23, 0xFF	; 255
     bb2:	81 e0       	ldi	r24, 0x01	; 1
     bb4:	90 e0       	ldi	r25, 0x00	; 0
     bb6:	41 15       	cp	r20, r1
     bb8:	51 05       	cpc	r21, r1
     bba:	61 05       	cpc	r22, r1
     bbc:	20 e4       	ldi	r18, 0x40	; 64
     bbe:	72 07       	cpc	r23, r18
     bc0:	48 f5       	brcc	.+82     	; 0xc14 <__pack_f+0x150>
     bc2:	80 e0       	ldi	r24, 0x00	; 0
     bc4:	90 e0       	ldi	r25, 0x00	; 0
     bc6:	26 c0       	rjmp	.+76     	; 0xc14 <__pack_f+0x150>
     bc8:	20 38       	cpi	r18, 0x80	; 128
     bca:	31 05       	cpc	r19, r1
     bcc:	8c f5       	brge	.+98     	; 0xc30 <__pack_f+0x16c>
     bce:	db 01       	movw	r26, r22
     bd0:	ca 01       	movw	r24, r20
     bd2:	8f 77       	andi	r24, 0x7F	; 127
     bd4:	99 27       	eor	r25, r25
     bd6:	aa 27       	eor	r26, r26
     bd8:	bb 27       	eor	r27, r27
     bda:	80 34       	cpi	r24, 0x40	; 64
     bdc:	91 05       	cpc	r25, r1
     bde:	a1 05       	cpc	r26, r1
     be0:	b1 05       	cpc	r27, r1
     be2:	39 f4       	brne	.+14     	; 0xbf2 <__pack_f+0x12e>
     be4:	47 ff       	sbrs	r20, 7
     be6:	09 c0       	rjmp	.+18     	; 0xbfa <__pack_f+0x136>
     be8:	40 5c       	subi	r20, 0xC0	; 192
     bea:	5f 4f       	sbci	r21, 0xFF	; 255
     bec:	6f 4f       	sbci	r22, 0xFF	; 255
     bee:	7f 4f       	sbci	r23, 0xFF	; 255
     bf0:	04 c0       	rjmp	.+8      	; 0xbfa <__pack_f+0x136>
     bf2:	41 5c       	subi	r20, 0xC1	; 193
     bf4:	5f 4f       	sbci	r21, 0xFF	; 255
     bf6:	6f 4f       	sbci	r22, 0xFF	; 255
     bf8:	7f 4f       	sbci	r23, 0xFF	; 255
     bfa:	77 fd       	sbrc	r23, 7
     bfc:	04 c0       	rjmp	.+8      	; 0xc06 <__pack_f+0x142>
     bfe:	c9 01       	movw	r24, r18
     c00:	81 58       	subi	r24, 0x81	; 129
     c02:	9f 4f       	sbci	r25, 0xFF	; 255
     c04:	07 c0       	rjmp	.+14     	; 0xc14 <__pack_f+0x150>
     c06:	76 95       	lsr	r23
     c08:	67 95       	ror	r22
     c0a:	57 95       	ror	r21
     c0c:	47 95       	ror	r20
     c0e:	c9 01       	movw	r24, r18
     c10:	80 58       	subi	r24, 0x80	; 128
     c12:	9f 4f       	sbci	r25, 0xFF	; 255
     c14:	97 e0       	ldi	r25, 0x07	; 7
     c16:	76 95       	lsr	r23
     c18:	67 95       	ror	r22
     c1a:	57 95       	ror	r21
     c1c:	47 95       	ror	r20
     c1e:	9a 95       	dec	r25
     c20:	d1 f7       	brne	.-12     	; 0xc16 <__pack_f+0x152>
     c22:	0b c0       	rjmp	.+22     	; 0xc3a <__pack_f+0x176>
     c24:	80 e0       	ldi	r24, 0x00	; 0
     c26:	90 e0       	ldi	r25, 0x00	; 0
     c28:	05 c0       	rjmp	.+10     	; 0xc34 <__pack_f+0x170>
     c2a:	80 e0       	ldi	r24, 0x00	; 0
     c2c:	90 e0       	ldi	r25, 0x00	; 0
     c2e:	05 c0       	rjmp	.+10     	; 0xc3a <__pack_f+0x176>
     c30:	8f ef       	ldi	r24, 0xFF	; 255
     c32:	90 e0       	ldi	r25, 0x00	; 0
     c34:	40 e0       	ldi	r20, 0x00	; 0
     c36:	50 e0       	ldi	r21, 0x00	; 0
     c38:	ba 01       	movw	r22, r20
     c3a:	98 2f       	mov	r25, r24
     c3c:	96 95       	lsr	r25
     c3e:	e0 fb       	bst	r30, 0
     c40:	97 f9       	bld	r25, 7
     c42:	36 2f       	mov	r19, r22
     c44:	80 fb       	bst	r24, 0
     c46:	37 f9       	bld	r19, 7
     c48:	64 2f       	mov	r22, r20
     c4a:	75 2f       	mov	r23, r21
     c4c:	83 2f       	mov	r24, r19
     c4e:	df 91       	pop	r29
     c50:	cf 91       	pop	r28
     c52:	1f 91       	pop	r17
     c54:	0f 91       	pop	r16
     c56:	08 95       	ret

00000c58 <__unpack_f>:
     c58:	cf 92       	push	r12
     c5a:	df 92       	push	r13
     c5c:	ef 92       	push	r14
     c5e:	dc 01       	movw	r26, r24
     c60:	fb 01       	movw	r30, r22
     c62:	cc 90       	ld	r12, X
     c64:	11 96       	adiw	r26, 0x01	; 1
     c66:	dc 90       	ld	r13, X
     c68:	11 97       	sbiw	r26, 0x01	; 1
     c6a:	12 96       	adiw	r26, 0x02	; 2
     c6c:	8c 91       	ld	r24, X
     c6e:	12 97       	sbiw	r26, 0x02	; 2
     c70:	3f e7       	ldi	r19, 0x7F	; 127
     c72:	e3 2e       	mov	r14, r19
     c74:	e8 22       	and	r14, r24
     c76:	6e 2d       	mov	r22, r14
     c78:	a6 01       	movw	r20, r12
     c7a:	70 e0       	ldi	r23, 0x00	; 0
     c7c:	98 2f       	mov	r25, r24
     c7e:	99 1f       	adc	r25, r25
     c80:	99 27       	eor	r25, r25
     c82:	99 1f       	adc	r25, r25
     c84:	13 96       	adiw	r26, 0x03	; 3
     c86:	2c 91       	ld	r18, X
     c88:	82 2f       	mov	r24, r18
     c8a:	88 0f       	add	r24, r24
     c8c:	89 2b       	or	r24, r25
     c8e:	90 e0       	ldi	r25, 0x00	; 0
     c90:	27 fb       	bst	r18, 7
     c92:	22 27       	eor	r18, r18
     c94:	20 f9       	bld	r18, 0
     c96:	21 83       	std	Z+1, r18	; 0x01
     c98:	00 97       	sbiw	r24, 0x00	; 0
     c9a:	29 f5       	brne	.+74     	; 0xce6 <__unpack_f+0x8e>
     c9c:	41 15       	cp	r20, r1
     c9e:	51 05       	cpc	r21, r1
     ca0:	61 05       	cpc	r22, r1
     ca2:	71 05       	cpc	r23, r1
     ca4:	11 f4       	brne	.+4      	; 0xcaa <__unpack_f+0x52>
     ca6:	82 e0       	ldi	r24, 0x02	; 2
     ca8:	27 c0       	rjmp	.+78     	; 0xcf8 <__unpack_f+0xa0>
     caa:	82 e8       	ldi	r24, 0x82	; 130
     cac:	9f ef       	ldi	r25, 0xFF	; 255
     cae:	82 83       	std	Z+2, r24	; 0x02
     cb0:	93 83       	std	Z+3, r25	; 0x03
     cb2:	27 e0       	ldi	r18, 0x07	; 7
     cb4:	44 0f       	add	r20, r20
     cb6:	55 1f       	adc	r21, r21
     cb8:	66 1f       	adc	r22, r22
     cba:	77 1f       	adc	r23, r23
     cbc:	2a 95       	dec	r18
     cbe:	d1 f7       	brne	.-12     	; 0xcb4 <__unpack_f+0x5c>
     cc0:	83 e0       	ldi	r24, 0x03	; 3
     cc2:	80 83       	st	Z, r24
     cc4:	09 c0       	rjmp	.+18     	; 0xcd8 <__unpack_f+0x80>
     cc6:	44 0f       	add	r20, r20
     cc8:	55 1f       	adc	r21, r21
     cca:	66 1f       	adc	r22, r22
     ccc:	77 1f       	adc	r23, r23
     cce:	82 81       	ldd	r24, Z+2	; 0x02
     cd0:	93 81       	ldd	r25, Z+3	; 0x03
     cd2:	01 97       	sbiw	r24, 0x01	; 1
     cd4:	82 83       	std	Z+2, r24	; 0x02
     cd6:	93 83       	std	Z+3, r25	; 0x03
     cd8:	41 15       	cp	r20, r1
     cda:	51 05       	cpc	r21, r1
     cdc:	61 05       	cpc	r22, r1
     cde:	80 e4       	ldi	r24, 0x40	; 64
     ce0:	78 07       	cpc	r23, r24
     ce2:	88 f3       	brcs	.-30     	; 0xcc6 <__unpack_f+0x6e>
     ce4:	20 c0       	rjmp	.+64     	; 0xd26 <__unpack_f+0xce>
     ce6:	8f 3f       	cpi	r24, 0xFF	; 255
     ce8:	91 05       	cpc	r25, r1
     cea:	79 f4       	brne	.+30     	; 0xd0a <__unpack_f+0xb2>
     cec:	41 15       	cp	r20, r1
     cee:	51 05       	cpc	r21, r1
     cf0:	61 05       	cpc	r22, r1
     cf2:	71 05       	cpc	r23, r1
     cf4:	19 f4       	brne	.+6      	; 0xcfc <__unpack_f+0xa4>
     cf6:	84 e0       	ldi	r24, 0x04	; 4
     cf8:	80 83       	st	Z, r24
     cfa:	19 c0       	rjmp	.+50     	; 0xd2e <__unpack_f+0xd6>
     cfc:	e4 fe       	sbrs	r14, 4
     cfe:	03 c0       	rjmp	.+6      	; 0xd06 <__unpack_f+0xae>
     d00:	81 e0       	ldi	r24, 0x01	; 1
     d02:	80 83       	st	Z, r24
     d04:	10 c0       	rjmp	.+32     	; 0xd26 <__unpack_f+0xce>
     d06:	10 82       	st	Z, r1
     d08:	0e c0       	rjmp	.+28     	; 0xd26 <__unpack_f+0xce>
     d0a:	8f 57       	subi	r24, 0x7F	; 127
     d0c:	91 09       	sbc	r25, r1
     d0e:	82 83       	std	Z+2, r24	; 0x02
     d10:	93 83       	std	Z+3, r25	; 0x03
     d12:	83 e0       	ldi	r24, 0x03	; 3
     d14:	80 83       	st	Z, r24
     d16:	87 e0       	ldi	r24, 0x07	; 7
     d18:	44 0f       	add	r20, r20
     d1a:	55 1f       	adc	r21, r21
     d1c:	66 1f       	adc	r22, r22
     d1e:	77 1f       	adc	r23, r23
     d20:	8a 95       	dec	r24
     d22:	d1 f7       	brne	.-12     	; 0xd18 <__unpack_f+0xc0>
     d24:	70 64       	ori	r23, 0x40	; 64
     d26:	44 83       	std	Z+4, r20	; 0x04
     d28:	55 83       	std	Z+5, r21	; 0x05
     d2a:	66 83       	std	Z+6, r22	; 0x06
     d2c:	77 83       	std	Z+7, r23	; 0x07
     d2e:	ef 90       	pop	r14
     d30:	df 90       	pop	r13
     d32:	cf 90       	pop	r12
     d34:	08 95       	ret

00000d36 <_fpadd_parts>:
     d36:	a4 e0       	ldi	r26, 0x04	; 4
     d38:	b0 e0       	ldi	r27, 0x00	; 0
     d3a:	e1 ea       	ldi	r30, 0xA1	; 161
     d3c:	f6 e0       	ldi	r31, 0x06	; 6
     d3e:	0c 94 c5 39 	jmp	0x738a	; 0x738a <__prologue_saves__+0x4>
     d42:	7c 01       	movw	r14, r24
     d44:	6a 01       	movw	r12, r20
     d46:	fc 01       	movw	r30, r24
     d48:	80 81       	ld	r24, Z
     d4a:	82 30       	cpi	r24, 0x02	; 2
     d4c:	08 f4       	brcc	.+2      	; 0xd50 <_fpadd_parts+0x1a>
     d4e:	4a c1       	rjmp	.+660    	; 0xfe4 <_fpadd_parts+0x2ae>
     d50:	fb 01       	movw	r30, r22
     d52:	90 81       	ld	r25, Z
     d54:	92 30       	cpi	r25, 0x02	; 2
     d56:	08 f4       	brcc	.+2      	; 0xd5a <_fpadd_parts+0x24>
     d58:	42 c1       	rjmp	.+644    	; 0xfde <_fpadd_parts+0x2a8>
     d5a:	84 30       	cpi	r24, 0x04	; 4
     d5c:	79 f4       	brne	.+30     	; 0xd7c <_fpadd_parts+0x46>
     d5e:	94 30       	cpi	r25, 0x04	; 4
     d60:	09 f0       	breq	.+2      	; 0xd64 <_fpadd_parts+0x2e>
     d62:	40 c1       	rjmp	.+640    	; 0xfe4 <_fpadd_parts+0x2ae>
     d64:	f7 01       	movw	r30, r14
     d66:	91 81       	ldd	r25, Z+1	; 0x01
     d68:	fb 01       	movw	r30, r22
     d6a:	81 81       	ldd	r24, Z+1	; 0x01
     d6c:	98 17       	cp	r25, r24
     d6e:	09 f4       	brne	.+2      	; 0xd72 <_fpadd_parts+0x3c>
     d70:	39 c1       	rjmp	.+626    	; 0xfe4 <_fpadd_parts+0x2ae>
     d72:	a5 e1       	ldi	r26, 0x15	; 21
     d74:	ea 2e       	mov	r14, r26
     d76:	a0 e2       	ldi	r26, 0x20	; 32
     d78:	fa 2e       	mov	r15, r26
     d7a:	34 c1       	rjmp	.+616    	; 0xfe4 <_fpadd_parts+0x2ae>
     d7c:	94 30       	cpi	r25, 0x04	; 4
     d7e:	09 f4       	brne	.+2      	; 0xd82 <_fpadd_parts+0x4c>
     d80:	2e c1       	rjmp	.+604    	; 0xfde <_fpadd_parts+0x2a8>
     d82:	92 30       	cpi	r25, 0x02	; 2
     d84:	91 f4       	brne	.+36     	; 0xdaa <_fpadd_parts+0x74>
     d86:	82 30       	cpi	r24, 0x02	; 2
     d88:	09 f0       	breq	.+2      	; 0xd8c <_fpadd_parts+0x56>
     d8a:	2c c1       	rjmp	.+600    	; 0xfe4 <_fpadd_parts+0x2ae>
     d8c:	88 e0       	ldi	r24, 0x08	; 8
     d8e:	f7 01       	movw	r30, r14
     d90:	da 01       	movw	r26, r20
     d92:	01 90       	ld	r0, Z+
     d94:	0d 92       	st	X+, r0
     d96:	8a 95       	dec	r24
     d98:	e1 f7       	brne	.-8      	; 0xd92 <_fpadd_parts+0x5c>
     d9a:	fb 01       	movw	r30, r22
     d9c:	81 81       	ldd	r24, Z+1	; 0x01
     d9e:	f7 01       	movw	r30, r14
     da0:	91 81       	ldd	r25, Z+1	; 0x01
     da2:	89 23       	and	r24, r25
     da4:	fa 01       	movw	r30, r20
     da6:	81 83       	std	Z+1, r24	; 0x01
     da8:	1c c1       	rjmp	.+568    	; 0xfe2 <_fpadd_parts+0x2ac>
     daa:	82 30       	cpi	r24, 0x02	; 2
     dac:	09 f4       	brne	.+2      	; 0xdb0 <_fpadd_parts+0x7a>
     dae:	17 c1       	rjmp	.+558    	; 0xfde <_fpadd_parts+0x2a8>
     db0:	f7 01       	movw	r30, r14
     db2:	82 81       	ldd	r24, Z+2	; 0x02
     db4:	93 81       	ldd	r25, Z+3	; 0x03
     db6:	fb 01       	movw	r30, r22
     db8:	a2 81       	ldd	r26, Z+2	; 0x02
     dba:	b3 81       	ldd	r27, Z+3	; 0x03
     dbc:	f7 01       	movw	r30, r14
     dbe:	04 81       	ldd	r16, Z+4	; 0x04
     dc0:	15 81       	ldd	r17, Z+5	; 0x05
     dc2:	26 81       	ldd	r18, Z+6	; 0x06
     dc4:	37 81       	ldd	r19, Z+7	; 0x07
     dc6:	fb 01       	movw	r30, r22
     dc8:	84 80       	ldd	r8, Z+4	; 0x04
     dca:	95 80       	ldd	r9, Z+5	; 0x05
     dcc:	a6 80       	ldd	r10, Z+6	; 0x06
     dce:	b7 80       	ldd	r11, Z+7	; 0x07
     dd0:	fc 01       	movw	r30, r24
     dd2:	ea 1b       	sub	r30, r26
     dd4:	fb 0b       	sbc	r31, r27
     dd6:	af 01       	movw	r20, r30
     dd8:	f7 ff       	sbrs	r31, 7
     dda:	04 c0       	rjmp	.+8      	; 0xde4 <_fpadd_parts+0xae>
     ddc:	44 27       	eor	r20, r20
     dde:	55 27       	eor	r21, r21
     de0:	4e 1b       	sub	r20, r30
     de2:	5f 0b       	sbc	r21, r31
     de4:	40 32       	cpi	r20, 0x20	; 32
     de6:	51 05       	cpc	r21, r1
     de8:	0c f0       	brlt	.+2      	; 0xdec <_fpadd_parts+0xb6>
     dea:	74 c0       	rjmp	.+232    	; 0xed4 <_fpadd_parts+0x19e>
     dec:	1e 16       	cp	r1, r30
     dee:	1f 06       	cpc	r1, r31
     df0:	b4 f5       	brge	.+108    	; 0xe5e <_fpadd_parts+0x128>
     df2:	24 01       	movw	r4, r8
     df4:	35 01       	movw	r6, r10
     df6:	04 2e       	mov	r0, r20
     df8:	04 c0       	rjmp	.+8      	; 0xe02 <_fpadd_parts+0xcc>
     dfa:	76 94       	lsr	r7
     dfc:	67 94       	ror	r6
     dfe:	57 94       	ror	r5
     e00:	47 94       	ror	r4
     e02:	0a 94       	dec	r0
     e04:	d2 f7       	brpl	.-12     	; 0xdfa <_fpadd_parts+0xc4>
     e06:	49 82       	std	Y+1, r4	; 0x01
     e08:	5a 82       	std	Y+2, r5	; 0x02
     e0a:	6b 82       	std	Y+3, r6	; 0x03
     e0c:	7c 82       	std	Y+4, r7	; 0x04
     e0e:	41 2c       	mov	r4, r1
     e10:	51 2c       	mov	r5, r1
     e12:	32 01       	movw	r6, r4
     e14:	43 94       	inc	r4
     e16:	04 c0       	rjmp	.+8      	; 0xe20 <_fpadd_parts+0xea>
     e18:	44 0c       	add	r4, r4
     e1a:	55 1c       	adc	r5, r5
     e1c:	66 1c       	adc	r6, r6
     e1e:	77 1c       	adc	r7, r7
     e20:	4a 95       	dec	r20
     e22:	d2 f7       	brpl	.-12     	; 0xe18 <_fpadd_parts+0xe2>
     e24:	41 e0       	ldi	r20, 0x01	; 1
     e26:	44 1a       	sub	r4, r20
     e28:	51 08       	sbc	r5, r1
     e2a:	61 08       	sbc	r6, r1
     e2c:	71 08       	sbc	r7, r1
     e2e:	48 20       	and	r4, r8
     e30:	59 20       	and	r5, r9
     e32:	6a 20       	and	r6, r10
     e34:	7b 20       	and	r7, r11
     e36:	81 2c       	mov	r8, r1
     e38:	91 2c       	mov	r9, r1
     e3a:	54 01       	movw	r10, r8
     e3c:	83 94       	inc	r8
     e3e:	45 28       	or	r4, r5
     e40:	46 28       	or	r4, r6
     e42:	47 28       	or	r4, r7
     e44:	19 f4       	brne	.+6      	; 0xe4c <_fpadd_parts+0x116>
     e46:	81 2c       	mov	r8, r1
     e48:	91 2c       	mov	r9, r1
     e4a:	54 01       	movw	r10, r8
     e4c:	49 80       	ldd	r4, Y+1	; 0x01
     e4e:	5a 80       	ldd	r5, Y+2	; 0x02
     e50:	6b 80       	ldd	r6, Y+3	; 0x03
     e52:	7c 80       	ldd	r7, Y+4	; 0x04
     e54:	84 28       	or	r8, r4
     e56:	95 28       	or	r9, r5
     e58:	a6 28       	or	r10, r6
     e5a:	b7 28       	or	r11, r7
     e5c:	46 c0       	rjmp	.+140    	; 0xeea <_fpadd_parts+0x1b4>
     e5e:	ef 2b       	or	r30, r31
     e60:	09 f4       	brne	.+2      	; 0xe64 <_fpadd_parts+0x12e>
     e62:	43 c0       	rjmp	.+134    	; 0xeea <_fpadd_parts+0x1b4>
     e64:	84 0f       	add	r24, r20
     e66:	95 1f       	adc	r25, r21
     e68:	28 01       	movw	r4, r16
     e6a:	39 01       	movw	r6, r18
     e6c:	04 2e       	mov	r0, r20
     e6e:	04 c0       	rjmp	.+8      	; 0xe78 <_fpadd_parts+0x142>
     e70:	76 94       	lsr	r7
     e72:	67 94       	ror	r6
     e74:	57 94       	ror	r5
     e76:	47 94       	ror	r4
     e78:	0a 94       	dec	r0
     e7a:	d2 f7       	brpl	.-12     	; 0xe70 <_fpadd_parts+0x13a>
     e7c:	49 82       	std	Y+1, r4	; 0x01
     e7e:	5a 82       	std	Y+2, r5	; 0x02
     e80:	6b 82       	std	Y+3, r6	; 0x03
     e82:	7c 82       	std	Y+4, r7	; 0x04
     e84:	41 2c       	mov	r4, r1
     e86:	51 2c       	mov	r5, r1
     e88:	32 01       	movw	r6, r4
     e8a:	43 94       	inc	r4
     e8c:	04 c0       	rjmp	.+8      	; 0xe96 <_fpadd_parts+0x160>
     e8e:	44 0c       	add	r4, r4
     e90:	55 1c       	adc	r5, r5
     e92:	66 1c       	adc	r6, r6
     e94:	77 1c       	adc	r7, r7
     e96:	4a 95       	dec	r20
     e98:	d2 f7       	brpl	.-12     	; 0xe8e <_fpadd_parts+0x158>
     e9a:	41 e0       	ldi	r20, 0x01	; 1
     e9c:	44 1a       	sub	r4, r20
     e9e:	51 08       	sbc	r5, r1
     ea0:	61 08       	sbc	r6, r1
     ea2:	71 08       	sbc	r7, r1
     ea4:	40 22       	and	r4, r16
     ea6:	51 22       	and	r5, r17
     ea8:	62 22       	and	r6, r18
     eaa:	73 22       	and	r7, r19
     eac:	01 e0       	ldi	r16, 0x01	; 1
     eae:	10 e0       	ldi	r17, 0x00	; 0
     eb0:	20 e0       	ldi	r18, 0x00	; 0
     eb2:	30 e0       	ldi	r19, 0x00	; 0
     eb4:	45 28       	or	r4, r5
     eb6:	46 28       	or	r4, r6
     eb8:	47 28       	or	r4, r7
     eba:	19 f4       	brne	.+6      	; 0xec2 <_fpadd_parts+0x18c>
     ebc:	00 e0       	ldi	r16, 0x00	; 0
     ebe:	10 e0       	ldi	r17, 0x00	; 0
     ec0:	98 01       	movw	r18, r16
     ec2:	49 80       	ldd	r4, Y+1	; 0x01
     ec4:	5a 80       	ldd	r5, Y+2	; 0x02
     ec6:	6b 80       	ldd	r6, Y+3	; 0x03
     ec8:	7c 80       	ldd	r7, Y+4	; 0x04
     eca:	04 29       	or	r16, r4
     ecc:	15 29       	or	r17, r5
     ece:	26 29       	or	r18, r6
     ed0:	37 29       	or	r19, r7
     ed2:	0b c0       	rjmp	.+22     	; 0xeea <_fpadd_parts+0x1b4>
     ed4:	a8 17       	cp	r26, r24
     ed6:	b9 07       	cpc	r27, r25
     ed8:	24 f4       	brge	.+8      	; 0xee2 <_fpadd_parts+0x1ac>
     eda:	81 2c       	mov	r8, r1
     edc:	91 2c       	mov	r9, r1
     ede:	54 01       	movw	r10, r8
     ee0:	04 c0       	rjmp	.+8      	; 0xeea <_fpadd_parts+0x1b4>
     ee2:	cd 01       	movw	r24, r26
     ee4:	00 e0       	ldi	r16, 0x00	; 0
     ee6:	10 e0       	ldi	r17, 0x00	; 0
     ee8:	98 01       	movw	r18, r16
     eea:	f7 01       	movw	r30, r14
     eec:	41 81       	ldd	r20, Z+1	; 0x01
     eee:	fb 01       	movw	r30, r22
     ef0:	51 81       	ldd	r21, Z+1	; 0x01
     ef2:	45 17       	cp	r20, r21
     ef4:	09 f4       	brne	.+2      	; 0xef8 <_fpadd_parts+0x1c2>
     ef6:	46 c0       	rjmp	.+140    	; 0xf84 <_fpadd_parts+0x24e>
     ef8:	44 23       	and	r20, r20
     efa:	49 f0       	breq	.+18     	; 0xf0e <_fpadd_parts+0x1d8>
     efc:	24 01       	movw	r4, r8
     efe:	35 01       	movw	r6, r10
     f00:	40 1a       	sub	r4, r16
     f02:	51 0a       	sbc	r5, r17
     f04:	62 0a       	sbc	r6, r18
     f06:	73 0a       	sbc	r7, r19
     f08:	93 01       	movw	r18, r6
     f0a:	82 01       	movw	r16, r4
     f0c:	04 c0       	rjmp	.+8      	; 0xf16 <_fpadd_parts+0x1e0>
     f0e:	08 19       	sub	r16, r8
     f10:	19 09       	sbc	r17, r9
     f12:	2a 09       	sbc	r18, r10
     f14:	3b 09       	sbc	r19, r11
     f16:	37 fd       	sbrc	r19, 7
     f18:	05 c0       	rjmp	.+10     	; 0xf24 <_fpadd_parts+0x1ee>
     f1a:	f6 01       	movw	r30, r12
     f1c:	11 82       	std	Z+1, r1	; 0x01
     f1e:	82 83       	std	Z+2, r24	; 0x02
     f20:	93 83       	std	Z+3, r25	; 0x03
     f22:	0c c0       	rjmp	.+24     	; 0xf3c <_fpadd_parts+0x206>
     f24:	41 e0       	ldi	r20, 0x01	; 1
     f26:	f6 01       	movw	r30, r12
     f28:	41 83       	std	Z+1, r20	; 0x01
     f2a:	82 83       	std	Z+2, r24	; 0x02
     f2c:	93 83       	std	Z+3, r25	; 0x03
     f2e:	30 95       	com	r19
     f30:	20 95       	com	r18
     f32:	10 95       	com	r17
     f34:	01 95       	neg	r16
     f36:	1f 4f       	sbci	r17, 0xFF	; 255
     f38:	2f 4f       	sbci	r18, 0xFF	; 255
     f3a:	3f 4f       	sbci	r19, 0xFF	; 255
     f3c:	04 83       	std	Z+4, r16	; 0x04
     f3e:	15 83       	std	Z+5, r17	; 0x05
     f40:	26 83       	std	Z+6, r18	; 0x06
     f42:	37 83       	std	Z+7, r19	; 0x07
     f44:	0e c0       	rjmp	.+28     	; 0xf62 <_fpadd_parts+0x22c>
     f46:	88 0f       	add	r24, r24
     f48:	99 1f       	adc	r25, r25
     f4a:	aa 1f       	adc	r26, r26
     f4c:	bb 1f       	adc	r27, r27
     f4e:	f6 01       	movw	r30, r12
     f50:	84 83       	std	Z+4, r24	; 0x04
     f52:	95 83       	std	Z+5, r25	; 0x05
     f54:	a6 83       	std	Z+6, r26	; 0x06
     f56:	b7 83       	std	Z+7, r27	; 0x07
     f58:	82 81       	ldd	r24, Z+2	; 0x02
     f5a:	93 81       	ldd	r25, Z+3	; 0x03
     f5c:	01 97       	sbiw	r24, 0x01	; 1
     f5e:	82 83       	std	Z+2, r24	; 0x02
     f60:	93 83       	std	Z+3, r25	; 0x03
     f62:	f6 01       	movw	r30, r12
     f64:	84 81       	ldd	r24, Z+4	; 0x04
     f66:	95 81       	ldd	r25, Z+5	; 0x05
     f68:	a6 81       	ldd	r26, Z+6	; 0x06
     f6a:	b7 81       	ldd	r27, Z+7	; 0x07
     f6c:	ac 01       	movw	r20, r24
     f6e:	bd 01       	movw	r22, r26
     f70:	41 50       	subi	r20, 0x01	; 1
     f72:	51 09       	sbc	r21, r1
     f74:	61 09       	sbc	r22, r1
     f76:	71 09       	sbc	r23, r1
     f78:	4f 3f       	cpi	r20, 0xFF	; 255
     f7a:	5f 4f       	sbci	r21, 0xFF	; 255
     f7c:	6f 4f       	sbci	r22, 0xFF	; 255
     f7e:	7f 43       	sbci	r23, 0x3F	; 63
     f80:	10 f3       	brcs	.-60     	; 0xf46 <_fpadd_parts+0x210>
     f82:	0c c0       	rjmp	.+24     	; 0xf9c <_fpadd_parts+0x266>
     f84:	f6 01       	movw	r30, r12
     f86:	41 83       	std	Z+1, r20	; 0x01
     f88:	82 83       	std	Z+2, r24	; 0x02
     f8a:	93 83       	std	Z+3, r25	; 0x03
     f8c:	08 0d       	add	r16, r8
     f8e:	19 1d       	adc	r17, r9
     f90:	2a 1d       	adc	r18, r10
     f92:	3b 1d       	adc	r19, r11
     f94:	04 83       	std	Z+4, r16	; 0x04
     f96:	15 83       	std	Z+5, r17	; 0x05
     f98:	26 83       	std	Z+6, r18	; 0x06
     f9a:	37 83       	std	Z+7, r19	; 0x07
     f9c:	83 e0       	ldi	r24, 0x03	; 3
     f9e:	f6 01       	movw	r30, r12
     fa0:	80 83       	st	Z, r24
     fa2:	44 81       	ldd	r20, Z+4	; 0x04
     fa4:	55 81       	ldd	r21, Z+5	; 0x05
     fa6:	66 81       	ldd	r22, Z+6	; 0x06
     fa8:	77 81       	ldd	r23, Z+7	; 0x07
     faa:	77 ff       	sbrs	r23, 7
     fac:	1a c0       	rjmp	.+52     	; 0xfe2 <_fpadd_parts+0x2ac>
     fae:	db 01       	movw	r26, r22
     fb0:	ca 01       	movw	r24, r20
     fb2:	81 70       	andi	r24, 0x01	; 1
     fb4:	99 27       	eor	r25, r25
     fb6:	aa 27       	eor	r26, r26
     fb8:	bb 27       	eor	r27, r27
     fba:	76 95       	lsr	r23
     fbc:	67 95       	ror	r22
     fbe:	57 95       	ror	r21
     fc0:	47 95       	ror	r20
     fc2:	84 2b       	or	r24, r20
     fc4:	95 2b       	or	r25, r21
     fc6:	a6 2b       	or	r26, r22
     fc8:	b7 2b       	or	r27, r23
     fca:	84 83       	std	Z+4, r24	; 0x04
     fcc:	95 83       	std	Z+5, r25	; 0x05
     fce:	a6 83       	std	Z+6, r26	; 0x06
     fd0:	b7 83       	std	Z+7, r27	; 0x07
     fd2:	82 81       	ldd	r24, Z+2	; 0x02
     fd4:	93 81       	ldd	r25, Z+3	; 0x03
     fd6:	01 96       	adiw	r24, 0x01	; 1
     fd8:	82 83       	std	Z+2, r24	; 0x02
     fda:	93 83       	std	Z+3, r25	; 0x03
     fdc:	02 c0       	rjmp	.+4      	; 0xfe2 <_fpadd_parts+0x2ac>
     fde:	7b 01       	movw	r14, r22
     fe0:	01 c0       	rjmp	.+2      	; 0xfe4 <_fpadd_parts+0x2ae>
     fe2:	76 01       	movw	r14, r12
     fe4:	c7 01       	movw	r24, r14
     fe6:	24 96       	adiw	r28, 0x04	; 4
     fe8:	e0 e1       	ldi	r30, 0x10	; 16
     fea:	0c 94 de 39 	jmp	0x73bc	; 0x73bc <__epilogue_restores__+0x4>

00000fee <__addsf3>:
     fee:	a0 e2       	ldi	r26, 0x20	; 32
     ff0:	b0 e0       	ldi	r27, 0x00	; 0
     ff2:	ed ef       	ldi	r30, 0xFD	; 253
     ff4:	f7 e0       	ldi	r31, 0x07	; 7
     ff6:	0c 94 d3 39 	jmp	0x73a6	; 0x73a6 <__prologue_saves__+0x20>
     ffa:	6d 8f       	std	Y+29, r22	; 0x1d
     ffc:	7e 8f       	std	Y+30, r23	; 0x1e
     ffe:	8f 8f       	std	Y+31, r24	; 0x1f
    1000:	98 a3       	std	Y+32, r25	; 0x20
    1002:	29 8f       	std	Y+25, r18	; 0x19
    1004:	3a 8f       	std	Y+26, r19	; 0x1a
    1006:	4b 8f       	std	Y+27, r20	; 0x1b
    1008:	5c 8f       	std	Y+28, r21	; 0x1c
    100a:	be 01       	movw	r22, r28
    100c:	6f 5e       	subi	r22, 0xEF	; 239
    100e:	7f 4f       	sbci	r23, 0xFF	; 255
    1010:	ce 01       	movw	r24, r28
    1012:	4d 96       	adiw	r24, 0x1d	; 29
    1014:	21 de       	rcall	.-958    	; 0xc58 <__unpack_f>
    1016:	be 01       	movw	r22, r28
    1018:	67 5f       	subi	r22, 0xF7	; 247
    101a:	7f 4f       	sbci	r23, 0xFF	; 255
    101c:	ce 01       	movw	r24, r28
    101e:	49 96       	adiw	r24, 0x19	; 25
    1020:	1b de       	rcall	.-970    	; 0xc58 <__unpack_f>
    1022:	ae 01       	movw	r20, r28
    1024:	4f 5f       	subi	r20, 0xFF	; 255
    1026:	5f 4f       	sbci	r21, 0xFF	; 255
    1028:	be 01       	movw	r22, r28
    102a:	67 5f       	subi	r22, 0xF7	; 247
    102c:	7f 4f       	sbci	r23, 0xFF	; 255
    102e:	ce 01       	movw	r24, r28
    1030:	41 96       	adiw	r24, 0x11	; 17
    1032:	81 de       	rcall	.-766    	; 0xd36 <_fpadd_parts>
    1034:	47 dd       	rcall	.-1394   	; 0xac4 <__pack_f>
    1036:	a0 96       	adiw	r28, 0x20	; 32
    1038:	e2 e0       	ldi	r30, 0x02	; 2
    103a:	0c 94 ec 39 	jmp	0x73d8	; 0x73d8 <__epilogue_restores__+0x20>

0000103e <__subsf3>:
    103e:	a0 e2       	ldi	r26, 0x20	; 32
    1040:	b0 e0       	ldi	r27, 0x00	; 0
    1042:	e5 e2       	ldi	r30, 0x25	; 37
    1044:	f8 e0       	ldi	r31, 0x08	; 8
    1046:	0c 94 d3 39 	jmp	0x73a6	; 0x73a6 <__prologue_saves__+0x20>
    104a:	6d 8f       	std	Y+29, r22	; 0x1d
    104c:	7e 8f       	std	Y+30, r23	; 0x1e
    104e:	8f 8f       	std	Y+31, r24	; 0x1f
    1050:	98 a3       	std	Y+32, r25	; 0x20
    1052:	29 8f       	std	Y+25, r18	; 0x19
    1054:	3a 8f       	std	Y+26, r19	; 0x1a
    1056:	4b 8f       	std	Y+27, r20	; 0x1b
    1058:	5c 8f       	std	Y+28, r21	; 0x1c
    105a:	be 01       	movw	r22, r28
    105c:	6f 5e       	subi	r22, 0xEF	; 239
    105e:	7f 4f       	sbci	r23, 0xFF	; 255
    1060:	ce 01       	movw	r24, r28
    1062:	4d 96       	adiw	r24, 0x1d	; 29
    1064:	f9 dd       	rcall	.-1038   	; 0xc58 <__unpack_f>
    1066:	be 01       	movw	r22, r28
    1068:	67 5f       	subi	r22, 0xF7	; 247
    106a:	7f 4f       	sbci	r23, 0xFF	; 255
    106c:	ce 01       	movw	r24, r28
    106e:	49 96       	adiw	r24, 0x19	; 25
    1070:	f3 dd       	rcall	.-1050   	; 0xc58 <__unpack_f>
    1072:	8a 85       	ldd	r24, Y+10	; 0x0a
    1074:	91 e0       	ldi	r25, 0x01	; 1
    1076:	89 27       	eor	r24, r25
    1078:	8a 87       	std	Y+10, r24	; 0x0a
    107a:	ae 01       	movw	r20, r28
    107c:	4f 5f       	subi	r20, 0xFF	; 255
    107e:	5f 4f       	sbci	r21, 0xFF	; 255
    1080:	be 01       	movw	r22, r28
    1082:	67 5f       	subi	r22, 0xF7	; 247
    1084:	7f 4f       	sbci	r23, 0xFF	; 255
    1086:	ce 01       	movw	r24, r28
    1088:	41 96       	adiw	r24, 0x11	; 17
    108a:	55 de       	rcall	.-854    	; 0xd36 <_fpadd_parts>
    108c:	1b dd       	rcall	.-1482   	; 0xac4 <__pack_f>
    108e:	a0 96       	adiw	r28, 0x20	; 32
    1090:	e2 e0       	ldi	r30, 0x02	; 2
    1092:	0c 94 ec 39 	jmp	0x73d8	; 0x73d8 <__epilogue_restores__+0x20>

00001096 <__fpcmp_parts_f>:
    1096:	cf 93       	push	r28
    1098:	fc 01       	movw	r30, r24
    109a:	db 01       	movw	r26, r22
    109c:	90 81       	ld	r25, Z
    109e:	92 30       	cpi	r25, 0x02	; 2
    10a0:	08 f4       	brcc	.+2      	; 0x10a4 <__fpcmp_parts_f+0xe>
    10a2:	52 c0       	rjmp	.+164    	; 0x1148 <__fpcmp_parts_f+0xb2>
    10a4:	8c 91       	ld	r24, X
    10a6:	82 30       	cpi	r24, 0x02	; 2
    10a8:	08 f4       	brcc	.+2      	; 0x10ac <__fpcmp_parts_f+0x16>
    10aa:	4e c0       	rjmp	.+156    	; 0x1148 <__fpcmp_parts_f+0xb2>
    10ac:	94 30       	cpi	r25, 0x04	; 4
    10ae:	71 f4       	brne	.+28     	; 0x10cc <__fpcmp_parts_f+0x36>
    10b0:	84 30       	cpi	r24, 0x04	; 4
    10b2:	39 f4       	brne	.+14     	; 0x10c2 <__fpcmp_parts_f+0x2c>
    10b4:	11 96       	adiw	r26, 0x01	; 1
    10b6:	2c 91       	ld	r18, X
    10b8:	30 e0       	ldi	r19, 0x00	; 0
    10ba:	81 81       	ldd	r24, Z+1	; 0x01
    10bc:	28 1b       	sub	r18, r24
    10be:	31 09       	sbc	r19, r1
    10c0:	48 c0       	rjmp	.+144    	; 0x1152 <__fpcmp_parts_f+0xbc>
    10c2:	81 81       	ldd	r24, Z+1	; 0x01
    10c4:	88 23       	and	r24, r24
    10c6:	09 f4       	brne	.+2      	; 0x10ca <__fpcmp_parts_f+0x34>
    10c8:	3f c0       	rjmp	.+126    	; 0x1148 <__fpcmp_parts_f+0xb2>
    10ca:	3b c0       	rjmp	.+118    	; 0x1142 <__fpcmp_parts_f+0xac>
    10cc:	84 30       	cpi	r24, 0x04	; 4
    10ce:	29 f4       	brne	.+10     	; 0x10da <__fpcmp_parts_f+0x44>
    10d0:	11 96       	adiw	r26, 0x01	; 1
    10d2:	8c 91       	ld	r24, X
    10d4:	81 11       	cpse	r24, r1
    10d6:	38 c0       	rjmp	.+112    	; 0x1148 <__fpcmp_parts_f+0xb2>
    10d8:	34 c0       	rjmp	.+104    	; 0x1142 <__fpcmp_parts_f+0xac>
    10da:	92 30       	cpi	r25, 0x02	; 2
    10dc:	19 f4       	brne	.+6      	; 0x10e4 <__fpcmp_parts_f+0x4e>
    10de:	82 30       	cpi	r24, 0x02	; 2
    10e0:	b9 f7       	brne	.-18     	; 0x10d0 <__fpcmp_parts_f+0x3a>
    10e2:	35 c0       	rjmp	.+106    	; 0x114e <__fpcmp_parts_f+0xb8>
    10e4:	82 30       	cpi	r24, 0x02	; 2
    10e6:	69 f3       	breq	.-38     	; 0x10c2 <__fpcmp_parts_f+0x2c>
    10e8:	c1 81       	ldd	r28, Z+1	; 0x01
    10ea:	11 96       	adiw	r26, 0x01	; 1
    10ec:	8c 91       	ld	r24, X
    10ee:	11 97       	sbiw	r26, 0x01	; 1
    10f0:	c8 13       	cpse	r28, r24
    10f2:	1d c0       	rjmp	.+58     	; 0x112e <__fpcmp_parts_f+0x98>
    10f4:	22 81       	ldd	r18, Z+2	; 0x02
    10f6:	33 81       	ldd	r19, Z+3	; 0x03
    10f8:	12 96       	adiw	r26, 0x02	; 2
    10fa:	8d 91       	ld	r24, X+
    10fc:	9c 91       	ld	r25, X
    10fe:	13 97       	sbiw	r26, 0x03	; 3
    1100:	82 17       	cp	r24, r18
    1102:	93 07       	cpc	r25, r19
    1104:	0c f4       	brge	.+2      	; 0x1108 <__fpcmp_parts_f+0x72>
    1106:	13 c0       	rjmp	.+38     	; 0x112e <__fpcmp_parts_f+0x98>
    1108:	28 17       	cp	r18, r24
    110a:	39 07       	cpc	r19, r25
    110c:	0c f4       	brge	.+2      	; 0x1110 <__fpcmp_parts_f+0x7a>
    110e:	17 c0       	rjmp	.+46     	; 0x113e <__fpcmp_parts_f+0xa8>
    1110:	44 81       	ldd	r20, Z+4	; 0x04
    1112:	55 81       	ldd	r21, Z+5	; 0x05
    1114:	66 81       	ldd	r22, Z+6	; 0x06
    1116:	77 81       	ldd	r23, Z+7	; 0x07
    1118:	14 96       	adiw	r26, 0x04	; 4
    111a:	8d 91       	ld	r24, X+
    111c:	9d 91       	ld	r25, X+
    111e:	0d 90       	ld	r0, X+
    1120:	bc 91       	ld	r27, X
    1122:	a0 2d       	mov	r26, r0
    1124:	84 17       	cp	r24, r20
    1126:	95 07       	cpc	r25, r21
    1128:	a6 07       	cpc	r26, r22
    112a:	b7 07       	cpc	r27, r23
    112c:	18 f4       	brcc	.+6      	; 0x1134 <__fpcmp_parts_f+0x9e>
    112e:	c1 11       	cpse	r28, r1
    1130:	08 c0       	rjmp	.+16     	; 0x1142 <__fpcmp_parts_f+0xac>
    1132:	0a c0       	rjmp	.+20     	; 0x1148 <__fpcmp_parts_f+0xb2>
    1134:	48 17       	cp	r20, r24
    1136:	59 07       	cpc	r21, r25
    1138:	6a 07       	cpc	r22, r26
    113a:	7b 07       	cpc	r23, r27
    113c:	40 f4       	brcc	.+16     	; 0x114e <__fpcmp_parts_f+0xb8>
    113e:	c1 11       	cpse	r28, r1
    1140:	03 c0       	rjmp	.+6      	; 0x1148 <__fpcmp_parts_f+0xb2>
    1142:	2f ef       	ldi	r18, 0xFF	; 255
    1144:	3f ef       	ldi	r19, 0xFF	; 255
    1146:	05 c0       	rjmp	.+10     	; 0x1152 <__fpcmp_parts_f+0xbc>
    1148:	21 e0       	ldi	r18, 0x01	; 1
    114a:	30 e0       	ldi	r19, 0x00	; 0
    114c:	02 c0       	rjmp	.+4      	; 0x1152 <__fpcmp_parts_f+0xbc>
    114e:	20 e0       	ldi	r18, 0x00	; 0
    1150:	30 e0       	ldi	r19, 0x00	; 0
    1152:	c9 01       	movw	r24, r18
    1154:	cf 91       	pop	r28
    1156:	08 95       	ret

00001158 <__fixsfsi>:
    1158:	ac e0       	ldi	r26, 0x0C	; 12
    115a:	b0 e0       	ldi	r27, 0x00	; 0
    115c:	e2 eb       	ldi	r30, 0xB2	; 178
    115e:	f8 e0       	ldi	r31, 0x08	; 8
    1160:	0c 94 d1 39 	jmp	0x73a2	; 0x73a2 <__prologue_saves__+0x1c>
    1164:	69 87       	std	Y+9, r22	; 0x09
    1166:	7a 87       	std	Y+10, r23	; 0x0a
    1168:	8b 87       	std	Y+11, r24	; 0x0b
    116a:	9c 87       	std	Y+12, r25	; 0x0c
    116c:	be 01       	movw	r22, r28
    116e:	6f 5f       	subi	r22, 0xFF	; 255
    1170:	7f 4f       	sbci	r23, 0xFF	; 255
    1172:	ce 01       	movw	r24, r28
    1174:	09 96       	adiw	r24, 0x09	; 9
    1176:	70 dd       	rcall	.-1312   	; 0xc58 <__unpack_f>
    1178:	89 81       	ldd	r24, Y+1	; 0x01
    117a:	82 30       	cpi	r24, 0x02	; 2
    117c:	91 f1       	breq	.+100    	; 0x11e2 <__fixsfsi+0x8a>
    117e:	82 30       	cpi	r24, 0x02	; 2
    1180:	80 f1       	brcs	.+96     	; 0x11e2 <__fixsfsi+0x8a>
    1182:	84 30       	cpi	r24, 0x04	; 4
    1184:	41 f4       	brne	.+16     	; 0x1196 <__fixsfsi+0x3e>
    1186:	8a 81       	ldd	r24, Y+2	; 0x02
    1188:	88 23       	and	r24, r24
    118a:	31 f1       	breq	.+76     	; 0x11d8 <__fixsfsi+0x80>
    118c:	00 e0       	ldi	r16, 0x00	; 0
    118e:	10 e0       	ldi	r17, 0x00	; 0
    1190:	20 e0       	ldi	r18, 0x00	; 0
    1192:	30 e8       	ldi	r19, 0x80	; 128
    1194:	29 c0       	rjmp	.+82     	; 0x11e8 <__fixsfsi+0x90>
    1196:	2b 81       	ldd	r18, Y+3	; 0x03
    1198:	3c 81       	ldd	r19, Y+4	; 0x04
    119a:	37 fd       	sbrc	r19, 7
    119c:	22 c0       	rjmp	.+68     	; 0x11e2 <__fixsfsi+0x8a>
    119e:	2f 31       	cpi	r18, 0x1F	; 31
    11a0:	31 05       	cpc	r19, r1
    11a2:	8c f7       	brge	.-30     	; 0x1186 <__fixsfsi+0x2e>
    11a4:	8e e1       	ldi	r24, 0x1E	; 30
    11a6:	90 e0       	ldi	r25, 0x00	; 0
    11a8:	82 1b       	sub	r24, r18
    11aa:	93 0b       	sbc	r25, r19
    11ac:	0d 81       	ldd	r16, Y+5	; 0x05
    11ae:	1e 81       	ldd	r17, Y+6	; 0x06
    11b0:	2f 81       	ldd	r18, Y+7	; 0x07
    11b2:	38 85       	ldd	r19, Y+8	; 0x08
    11b4:	04 c0       	rjmp	.+8      	; 0x11be <__fixsfsi+0x66>
    11b6:	36 95       	lsr	r19
    11b8:	27 95       	ror	r18
    11ba:	17 95       	ror	r17
    11bc:	07 95       	ror	r16
    11be:	8a 95       	dec	r24
    11c0:	d2 f7       	brpl	.-12     	; 0x11b6 <__fixsfsi+0x5e>
    11c2:	8a 81       	ldd	r24, Y+2	; 0x02
    11c4:	88 23       	and	r24, r24
    11c6:	81 f0       	breq	.+32     	; 0x11e8 <__fixsfsi+0x90>
    11c8:	30 95       	com	r19
    11ca:	20 95       	com	r18
    11cc:	10 95       	com	r17
    11ce:	01 95       	neg	r16
    11d0:	1f 4f       	sbci	r17, 0xFF	; 255
    11d2:	2f 4f       	sbci	r18, 0xFF	; 255
    11d4:	3f 4f       	sbci	r19, 0xFF	; 255
    11d6:	08 c0       	rjmp	.+16     	; 0x11e8 <__fixsfsi+0x90>
    11d8:	0f ef       	ldi	r16, 0xFF	; 255
    11da:	1f ef       	ldi	r17, 0xFF	; 255
    11dc:	2f ef       	ldi	r18, 0xFF	; 255
    11de:	3f e7       	ldi	r19, 0x7F	; 127
    11e0:	03 c0       	rjmp	.+6      	; 0x11e8 <__fixsfsi+0x90>
    11e2:	00 e0       	ldi	r16, 0x00	; 0
    11e4:	10 e0       	ldi	r17, 0x00	; 0
    11e6:	98 01       	movw	r18, r16
    11e8:	b8 01       	movw	r22, r16
    11ea:	c9 01       	movw	r24, r18
    11ec:	2c 96       	adiw	r28, 0x0c	; 12
    11ee:	e4 e0       	ldi	r30, 0x04	; 4
    11f0:	0c 94 ea 39 	jmp	0x73d4	; 0x73d4 <__epilogue_restores__+0x1c>

000011f4 <cpu_irq_save>:
    11f4:	cf 93       	push	r28
	}

#ifdef CONFIG_RTC_SOURCE
	sysclk_rtcsrc_enable(CONFIG_RTC_SOURCE);
#endif
}
    11f6:	df 93       	push	r29
    11f8:	1f 92       	push	r1
    11fa:	cd b7       	in	r28, 0x3d	; 61
    11fc:	de b7       	in	r29, 0x3e	; 62
    11fe:	8f e3       	ldi	r24, 0x3F	; 63
    1200:	90 e0       	ldi	r25, 0x00	; 0
    1202:	fc 01       	movw	r30, r24
    1204:	80 81       	ld	r24, Z
    1206:	89 83       	std	Y+1, r24	; 0x01
    1208:	f8 94       	cli
    120a:	89 81       	ldd	r24, Y+1	; 0x01
    120c:	0f 90       	pop	r0
    120e:	df 91       	pop	r29
    1210:	cf 91       	pop	r28
    1212:	08 95       	ret

00001214 <cpu_irq_restore>:
    1214:	cf 93       	push	r28
    1216:	df 93       	push	r29
    1218:	1f 92       	push	r1
    121a:	cd b7       	in	r28, 0x3d	; 61
    121c:	de b7       	in	r29, 0x3e	; 62
    121e:	89 83       	std	Y+1, r24	; 0x01
    1220:	8f e3       	ldi	r24, 0x3F	; 63
    1222:	90 e0       	ldi	r25, 0x00	; 0
    1224:	29 81       	ldd	r18, Y+1	; 0x01
    1226:	fc 01       	movw	r30, r24
    1228:	20 83       	st	Z, r18
    122a:	0f 90       	pop	r0
    122c:	df 91       	pop	r29
    122e:	cf 91       	pop	r28
    1230:	08 95       	ret

00001232 <sysclk_enable_module>:

void sysclk_enable_module(enum sysclk_port_id port, uint8_t id)
{
    1232:	cf 93       	push	r28
    1234:	df 93       	push	r29
    1236:	00 d0       	rcall	.+0      	; 0x1238 <sysclk_enable_module+0x6>
    1238:	00 d0       	rcall	.+0      	; 0x123a <sysclk_enable_module+0x8>
    123a:	cd b7       	in	r28, 0x3d	; 61
    123c:	de b7       	in	r29, 0x3e	; 62
    123e:	8a 83       	std	Y+2, r24	; 0x02
    1240:	9b 83       	std	Y+3, r25	; 0x03
    1242:	6c 83       	std	Y+4, r22	; 0x04
	irqflags_t flags = cpu_irq_save();
    1244:	d7 df       	rcall	.-82     	; 0x11f4 <cpu_irq_save>
    1246:	89 83       	std	Y+1, r24	; 0x01

	*((uint8_t *)&PR.PRGEN + port) &= ~id;
    1248:	8a 81       	ldd	r24, Y+2	; 0x02
    124a:	9b 81       	ldd	r25, Y+3	; 0x03
    124c:	80 59       	subi	r24, 0x90	; 144
    124e:	9f 4f       	sbci	r25, 0xFF	; 255
    1250:	2a 81       	ldd	r18, Y+2	; 0x02
    1252:	3b 81       	ldd	r19, Y+3	; 0x03
    1254:	20 59       	subi	r18, 0x90	; 144
    1256:	3f 4f       	sbci	r19, 0xFF	; 255
    1258:	f9 01       	movw	r30, r18
    125a:	20 81       	ld	r18, Z
    125c:	32 2f       	mov	r19, r18
    125e:	2c 81       	ldd	r18, Y+4	; 0x04
    1260:	20 95       	com	r18
    1262:	23 23       	and	r18, r19
    1264:	fc 01       	movw	r30, r24
    1266:	20 83       	st	Z, r18

	cpu_irq_restore(flags);
    1268:	89 81       	ldd	r24, Y+1	; 0x01
    126a:	d4 df       	rcall	.-88     	; 0x1214 <cpu_irq_restore>
}
    126c:	24 96       	adiw	r28, 0x04	; 4
    126e:	cd bf       	out	0x3d, r28	; 61
    1270:	de bf       	out	0x3e, r29	; 62
    1272:	df 91       	pop	r29
    1274:	cf 91       	pop	r28
    1276:	08 95       	ret

00001278 <ioport_configure_port_pin>:
#include "ioport_compat.h"

#if defined(IOPORT_XMEGA_COMPAT)
void ioport_configure_port_pin(void *port, pin_mask_t pin_mask,
		port_pin_flags_t flags)
{
    1278:	cf 93       	push	r28
    127a:	df 93       	push	r29
    127c:	cd b7       	in	r28, 0x3d	; 61
    127e:	de b7       	in	r29, 0x3e	; 62
    1280:	26 97       	sbiw	r28, 0x06	; 6
    1282:	cd bf       	out	0x3d, r28	; 61
    1284:	de bf       	out	0x3e, r29	; 62
    1286:	8a 83       	std	Y+2, r24	; 0x02
    1288:	9b 83       	std	Y+3, r25	; 0x03
    128a:	6c 83       	std	Y+4, r22	; 0x04
    128c:	4d 83       	std	Y+5, r20	; 0x05
    128e:	5e 83       	std	Y+6, r21	; 0x06
	uint8_t pin;

	for (pin = 0; pin < 8; pin++) {
    1290:	19 82       	std	Y+1, r1	; 0x01
    1292:	21 c0       	rjmp	.+66     	; 0x12d6 <ioport_configure_port_pin+0x5e>
		if (pin_mask & (1 << pin)) {
    1294:	8c 81       	ldd	r24, Y+4	; 0x04
    1296:	88 2f       	mov	r24, r24
    1298:	90 e0       	ldi	r25, 0x00	; 0
    129a:	29 81       	ldd	r18, Y+1	; 0x01
    129c:	22 2f       	mov	r18, r18
    129e:	30 e0       	ldi	r19, 0x00	; 0
    12a0:	02 2e       	mov	r0, r18
    12a2:	02 c0       	rjmp	.+4      	; 0x12a8 <ioport_configure_port_pin+0x30>
    12a4:	95 95       	asr	r25
    12a6:	87 95       	ror	r24
    12a8:	0a 94       	dec	r0
    12aa:	e2 f7       	brpl	.-8      	; 0x12a4 <ioport_configure_port_pin+0x2c>
    12ac:	81 70       	andi	r24, 0x01	; 1
    12ae:	99 27       	eor	r25, r25
    12b0:	00 97       	sbiw	r24, 0x00	; 0
    12b2:	71 f0       	breq	.+28     	; 0x12d0 <ioport_configure_port_pin+0x58>
			*((uint8_t *)port + PORT_PIN0CTRL + pin) = flags >> 8;
    12b4:	89 81       	ldd	r24, Y+1	; 0x01
    12b6:	88 2f       	mov	r24, r24
    12b8:	90 e0       	ldi	r25, 0x00	; 0
    12ba:	40 96       	adiw	r24, 0x10	; 16
    12bc:	2a 81       	ldd	r18, Y+2	; 0x02
    12be:	3b 81       	ldd	r19, Y+3	; 0x03
    12c0:	82 0f       	add	r24, r18
    12c2:	93 1f       	adc	r25, r19
    12c4:	2d 81       	ldd	r18, Y+5	; 0x05
    12c6:	3e 81       	ldd	r19, Y+6	; 0x06
    12c8:	23 2f       	mov	r18, r19
    12ca:	33 27       	eor	r19, r19
    12cc:	fc 01       	movw	r30, r24
    12ce:	20 83       	st	Z, r18
void ioport_configure_port_pin(void *port, pin_mask_t pin_mask,
		port_pin_flags_t flags)
{
	uint8_t pin;

	for (pin = 0; pin < 8; pin++) {
    12d0:	89 81       	ldd	r24, Y+1	; 0x01
    12d2:	8f 5f       	subi	r24, 0xFF	; 255
    12d4:	89 83       	std	Y+1, r24	; 0x01
    12d6:	89 81       	ldd	r24, Y+1	; 0x01
    12d8:	88 30       	cpi	r24, 0x08	; 8
    12da:	e0 f2       	brcs	.-72     	; 0x1294 <ioport_configure_port_pin+0x1c>
		if (pin_mask & (1 << pin)) {
			*((uint8_t *)port + PORT_PIN0CTRL + pin) = flags >> 8;
		}
	}
	/* Select direction and initial pin state */
	if (flags & IOPORT_DIR_OUTPUT) {
    12dc:	8d 81       	ldd	r24, Y+5	; 0x05
    12de:	9e 81       	ldd	r25, Y+6	; 0x06
    12e0:	81 70       	andi	r24, 0x01	; 1
    12e2:	99 27       	eor	r25, r25
    12e4:	00 97       	sbiw	r24, 0x00	; 0
    12e6:	d1 f0       	breq	.+52     	; 0x131c <ioport_configure_port_pin+0xa4>
		if (flags & IOPORT_INIT_HIGH) {
    12e8:	8d 81       	ldd	r24, Y+5	; 0x05
    12ea:	9e 81       	ldd	r25, Y+6	; 0x06
    12ec:	82 70       	andi	r24, 0x02	; 2
    12ee:	99 27       	eor	r25, r25
    12f0:	00 97       	sbiw	r24, 0x00	; 0
    12f2:	39 f0       	breq	.+14     	; 0x1302 <ioport_configure_port_pin+0x8a>
			*((uint8_t *)port + PORT_OUTSET) = pin_mask;
    12f4:	8a 81       	ldd	r24, Y+2	; 0x02
    12f6:	9b 81       	ldd	r25, Y+3	; 0x03
    12f8:	05 96       	adiw	r24, 0x05	; 5
    12fa:	2c 81       	ldd	r18, Y+4	; 0x04
    12fc:	fc 01       	movw	r30, r24
    12fe:	20 83       	st	Z, r18
    1300:	06 c0       	rjmp	.+12     	; 0x130e <ioport_configure_port_pin+0x96>
		} else {
			*((uint8_t *)port + PORT_OUTCLR) = pin_mask;
    1302:	8a 81       	ldd	r24, Y+2	; 0x02
    1304:	9b 81       	ldd	r25, Y+3	; 0x03
    1306:	06 96       	adiw	r24, 0x06	; 6
    1308:	2c 81       	ldd	r18, Y+4	; 0x04
    130a:	fc 01       	movw	r30, r24
    130c:	20 83       	st	Z, r18
		}

		*((uint8_t *)port + PORT_DIRSET) = pin_mask;
    130e:	8a 81       	ldd	r24, Y+2	; 0x02
    1310:	9b 81       	ldd	r25, Y+3	; 0x03
    1312:	01 96       	adiw	r24, 0x01	; 1
    1314:	2c 81       	ldd	r18, Y+4	; 0x04
    1316:	fc 01       	movw	r30, r24
    1318:	20 83       	st	Z, r18
    131a:	06 c0       	rjmp	.+12     	; 0x1328 <ioport_configure_port_pin+0xb0>
	} else {
		*((uint8_t *)port + PORT_DIRCLR) = pin_mask;
    131c:	8a 81       	ldd	r24, Y+2	; 0x02
    131e:	9b 81       	ldd	r25, Y+3	; 0x03
    1320:	02 96       	adiw	r24, 0x02	; 2
    1322:	2c 81       	ldd	r18, Y+4	; 0x04
    1324:	fc 01       	movw	r30, r24
    1326:	20 83       	st	Z, r18
	}
}
    1328:	26 96       	adiw	r28, 0x06	; 6
    132a:	cd bf       	out	0x3d, r28	; 61
    132c:	de bf       	out	0x3e, r29	; 62
    132e:	df 91       	pop	r29
    1330:	cf 91       	pop	r28
    1332:	08 95       	ret

00001334 <ioport_set_pin_low>:
		spi_read_single(spi, data);
		data++;
	}
	
	return STATUS_OK;
}
    1334:	cf 93       	push	r28
    1336:	df 93       	push	r29
    1338:	cd b7       	in	r28, 0x3d	; 61
    133a:	de b7       	in	r29, 0x3e	; 62
    133c:	2a 97       	sbiw	r28, 0x0a	; 10
    133e:	cd bf       	out	0x3d, r28	; 61
    1340:	de bf       	out	0x3e, r29	; 62
    1342:	8a 87       	std	Y+10, r24	; 0x0a
    1344:	8a 85       	ldd	r24, Y+10	; 0x0a
    1346:	89 83       	std	Y+1, r24	; 0x01
    1348:	1a 82       	std	Y+2, r1	; 0x02
    134a:	89 81       	ldd	r24, Y+1	; 0x01
    134c:	8b 83       	std	Y+3, r24	; 0x03
    134e:	8b 81       	ldd	r24, Y+3	; 0x03
    1350:	8c 83       	std	Y+4, r24	; 0x04
    1352:	8c 81       	ldd	r24, Y+4	; 0x04
    1354:	86 95       	lsr	r24
    1356:	86 95       	lsr	r24
    1358:	86 95       	lsr	r24
    135a:	8d 83       	std	Y+5, r24	; 0x05
    135c:	8d 81       	ldd	r24, Y+5	; 0x05
    135e:	88 2f       	mov	r24, r24
    1360:	90 e0       	ldi	r25, 0x00	; 0
    1362:	88 0f       	add	r24, r24
    1364:	99 1f       	adc	r25, r25
    1366:	82 95       	swap	r24
    1368:	92 95       	swap	r25
    136a:	90 7f       	andi	r25, 0xF0	; 240
    136c:	98 27       	eor	r25, r24
    136e:	80 7f       	andi	r24, 0xF0	; 240
    1370:	98 27       	eor	r25, r24
    1372:	9a 5f       	subi	r25, 0xFA	; 250
    1374:	8e 83       	std	Y+6, r24	; 0x06
    1376:	9f 83       	std	Y+7, r25	; 0x07
    1378:	8a 81       	ldd	r24, Y+2	; 0x02
    137a:	88 23       	and	r24, r24
    137c:	a9 f0       	breq	.+42     	; 0x13a8 <ioport_set_pin_low+0x74>
    137e:	89 81       	ldd	r24, Y+1	; 0x01
    1380:	88 87       	std	Y+8, r24	; 0x08
    1382:	88 85       	ldd	r24, Y+8	; 0x08
    1384:	88 2f       	mov	r24, r24
    1386:	90 e0       	ldi	r25, 0x00	; 0
    1388:	9c 01       	movw	r18, r24
    138a:	27 70       	andi	r18, 0x07	; 7
    138c:	33 27       	eor	r19, r19
    138e:	81 e0       	ldi	r24, 0x01	; 1
    1390:	90 e0       	ldi	r25, 0x00	; 0
    1392:	02 c0       	rjmp	.+4      	; 0x1398 <ioport_set_pin_low+0x64>
    1394:	88 0f       	add	r24, r24
    1396:	99 1f       	adc	r25, r25
    1398:	2a 95       	dec	r18
    139a:	e2 f7       	brpl	.-8      	; 0x1394 <ioport_set_pin_low+0x60>
    139c:	28 2f       	mov	r18, r24
    139e:	8e 81       	ldd	r24, Y+6	; 0x06
    13a0:	9f 81       	ldd	r25, Y+7	; 0x07
    13a2:	fc 01       	movw	r30, r24
    13a4:	25 83       	std	Z+5, r18	; 0x05
    13a6:	14 c0       	rjmp	.+40     	; 0x13d0 <ioport_set_pin_low+0x9c>
    13a8:	89 81       	ldd	r24, Y+1	; 0x01
    13aa:	89 87       	std	Y+9, r24	; 0x09
    13ac:	89 85       	ldd	r24, Y+9	; 0x09
    13ae:	88 2f       	mov	r24, r24
    13b0:	90 e0       	ldi	r25, 0x00	; 0
    13b2:	9c 01       	movw	r18, r24
    13b4:	27 70       	andi	r18, 0x07	; 7
    13b6:	33 27       	eor	r19, r19
    13b8:	81 e0       	ldi	r24, 0x01	; 1
    13ba:	90 e0       	ldi	r25, 0x00	; 0
    13bc:	02 c0       	rjmp	.+4      	; 0x13c2 <ioport_set_pin_low+0x8e>
    13be:	88 0f       	add	r24, r24
    13c0:	99 1f       	adc	r25, r25
    13c2:	2a 95       	dec	r18
    13c4:	e2 f7       	brpl	.-8      	; 0x13be <ioport_set_pin_low+0x8a>
    13c6:	28 2f       	mov	r18, r24
    13c8:	8e 81       	ldd	r24, Y+6	; 0x06
    13ca:	9f 81       	ldd	r25, Y+7	; 0x07
    13cc:	fc 01       	movw	r30, r24
    13ce:	26 83       	std	Z+6, r18	; 0x06
    13d0:	2a 96       	adiw	r28, 0x0a	; 10
    13d2:	cd bf       	out	0x3d, r28	; 61
    13d4:	de bf       	out	0x3e, r29	; 62
    13d6:	df 91       	pop	r29
    13d8:	cf 91       	pop	r28
    13da:	08 95       	ret

000013dc <ioport_set_pin_high>:
    13dc:	cf 93       	push	r28
    13de:	df 93       	push	r29
    13e0:	cd b7       	in	r28, 0x3d	; 61
    13e2:	de b7       	in	r29, 0x3e	; 62
    13e4:	2a 97       	sbiw	r28, 0x0a	; 10
    13e6:	cd bf       	out	0x3d, r28	; 61
    13e8:	de bf       	out	0x3e, r29	; 62
    13ea:	8a 87       	std	Y+10, r24	; 0x0a
    13ec:	8a 85       	ldd	r24, Y+10	; 0x0a
    13ee:	89 83       	std	Y+1, r24	; 0x01
    13f0:	81 e0       	ldi	r24, 0x01	; 1
    13f2:	8a 83       	std	Y+2, r24	; 0x02
    13f4:	89 81       	ldd	r24, Y+1	; 0x01
    13f6:	8b 83       	std	Y+3, r24	; 0x03
    13f8:	8b 81       	ldd	r24, Y+3	; 0x03
    13fa:	8c 83       	std	Y+4, r24	; 0x04
    13fc:	8c 81       	ldd	r24, Y+4	; 0x04
    13fe:	86 95       	lsr	r24
    1400:	86 95       	lsr	r24
    1402:	86 95       	lsr	r24
    1404:	8d 83       	std	Y+5, r24	; 0x05
    1406:	8d 81       	ldd	r24, Y+5	; 0x05
    1408:	88 2f       	mov	r24, r24
    140a:	90 e0       	ldi	r25, 0x00	; 0
    140c:	88 0f       	add	r24, r24
    140e:	99 1f       	adc	r25, r25
    1410:	82 95       	swap	r24
    1412:	92 95       	swap	r25
    1414:	90 7f       	andi	r25, 0xF0	; 240
    1416:	98 27       	eor	r25, r24
    1418:	80 7f       	andi	r24, 0xF0	; 240
    141a:	98 27       	eor	r25, r24
    141c:	9a 5f       	subi	r25, 0xFA	; 250
    141e:	8e 83       	std	Y+6, r24	; 0x06
    1420:	9f 83       	std	Y+7, r25	; 0x07
    1422:	8a 81       	ldd	r24, Y+2	; 0x02
    1424:	88 23       	and	r24, r24
    1426:	a9 f0       	breq	.+42     	; 0x1452 <ioport_set_pin_high+0x76>
    1428:	89 81       	ldd	r24, Y+1	; 0x01
    142a:	88 87       	std	Y+8, r24	; 0x08
    142c:	88 85       	ldd	r24, Y+8	; 0x08
    142e:	88 2f       	mov	r24, r24
    1430:	90 e0       	ldi	r25, 0x00	; 0
    1432:	9c 01       	movw	r18, r24
    1434:	27 70       	andi	r18, 0x07	; 7
    1436:	33 27       	eor	r19, r19
    1438:	81 e0       	ldi	r24, 0x01	; 1
    143a:	90 e0       	ldi	r25, 0x00	; 0
    143c:	02 c0       	rjmp	.+4      	; 0x1442 <ioport_set_pin_high+0x66>
    143e:	88 0f       	add	r24, r24
    1440:	99 1f       	adc	r25, r25
    1442:	2a 95       	dec	r18
    1444:	e2 f7       	brpl	.-8      	; 0x143e <ioport_set_pin_high+0x62>
    1446:	28 2f       	mov	r18, r24
    1448:	8e 81       	ldd	r24, Y+6	; 0x06
    144a:	9f 81       	ldd	r25, Y+7	; 0x07
    144c:	fc 01       	movw	r30, r24
    144e:	25 83       	std	Z+5, r18	; 0x05
    1450:	14 c0       	rjmp	.+40     	; 0x147a <ioport_set_pin_high+0x9e>
    1452:	89 81       	ldd	r24, Y+1	; 0x01
    1454:	89 87       	std	Y+9, r24	; 0x09
    1456:	89 85       	ldd	r24, Y+9	; 0x09
    1458:	88 2f       	mov	r24, r24
    145a:	90 e0       	ldi	r25, 0x00	; 0
    145c:	9c 01       	movw	r18, r24
    145e:	27 70       	andi	r18, 0x07	; 7
    1460:	33 27       	eor	r19, r19
    1462:	81 e0       	ldi	r24, 0x01	; 1
    1464:	90 e0       	ldi	r25, 0x00	; 0
    1466:	02 c0       	rjmp	.+4      	; 0x146c <ioport_set_pin_high+0x90>
    1468:	88 0f       	add	r24, r24
    146a:	99 1f       	adc	r25, r25
    146c:	2a 95       	dec	r18
    146e:	e2 f7       	brpl	.-8      	; 0x1468 <ioport_set_pin_high+0x8c>
    1470:	28 2f       	mov	r18, r24
    1472:	8e 81       	ldd	r24, Y+6	; 0x06
    1474:	9f 81       	ldd	r25, Y+7	; 0x07
    1476:	fc 01       	movw	r30, r24
    1478:	26 83       	std	Z+6, r18	; 0x06
    147a:	2a 96       	adiw	r28, 0x0a	; 10
    147c:	cd bf       	out	0x3d, r28	; 61
    147e:	de bf       	out	0x3e, r29	; 62
    1480:	df 91       	pop	r29
    1482:	cf 91       	pop	r28
    1484:	08 95       	ret

00001486 <spi_put>:
    1486:	cf 93       	push	r28
    1488:	df 93       	push	r29
    148a:	00 d0       	rcall	.+0      	; 0x148c <spi_put+0x6>
    148c:	1f 92       	push	r1
    148e:	cd b7       	in	r28, 0x3d	; 61
    1490:	de b7       	in	r29, 0x3e	; 62
    1492:	89 83       	std	Y+1, r24	; 0x01
    1494:	9a 83       	std	Y+2, r25	; 0x02
    1496:	6b 83       	std	Y+3, r22	; 0x03
    1498:	89 81       	ldd	r24, Y+1	; 0x01
    149a:	9a 81       	ldd	r25, Y+2	; 0x02
    149c:	2b 81       	ldd	r18, Y+3	; 0x03
    149e:	fc 01       	movw	r30, r24
    14a0:	23 83       	std	Z+3, r18	; 0x03
    14a2:	23 96       	adiw	r28, 0x03	; 3
    14a4:	cd bf       	out	0x3d, r28	; 61
    14a6:	de bf       	out	0x3e, r29	; 62
    14a8:	df 91       	pop	r29
    14aa:	cf 91       	pop	r28
    14ac:	08 95       	ret

000014ae <spi_is_tx_ok>:
    14ae:	cf 93       	push	r28
    14b0:	df 93       	push	r29
    14b2:	00 d0       	rcall	.+0      	; 0x14b4 <spi_is_tx_ok+0x6>
    14b4:	cd b7       	in	r28, 0x3d	; 61
    14b6:	de b7       	in	r29, 0x3e	; 62
    14b8:	89 83       	std	Y+1, r24	; 0x01
    14ba:	9a 83       	std	Y+2, r25	; 0x02
    14bc:	89 81       	ldd	r24, Y+1	; 0x01
    14be:	9a 81       	ldd	r25, Y+2	; 0x02
    14c0:	fc 01       	movw	r30, r24
    14c2:	82 81       	ldd	r24, Z+2	; 0x02
    14c4:	88 1f       	adc	r24, r24
    14c6:	88 27       	eor	r24, r24
    14c8:	88 1f       	adc	r24, r24
    14ca:	0f 90       	pop	r0
    14cc:	0f 90       	pop	r0
    14ce:	df 91       	pop	r29
    14d0:	cf 91       	pop	r28
    14d2:	08 95       	ret

000014d4 <spi_enable_master_mode>:
    14d4:	cf 93       	push	r28
    14d6:	df 93       	push	r29
    14d8:	00 d0       	rcall	.+0      	; 0x14da <spi_enable_master_mode+0x6>
    14da:	cd b7       	in	r28, 0x3d	; 61
    14dc:	de b7       	in	r29, 0x3e	; 62
    14de:	89 83       	std	Y+1, r24	; 0x01
    14e0:	9a 83       	std	Y+2, r25	; 0x02
    14e2:	89 81       	ldd	r24, Y+1	; 0x01
    14e4:	9a 81       	ldd	r25, Y+2	; 0x02
    14e6:	fc 01       	movw	r30, r24
    14e8:	80 81       	ld	r24, Z
    14ea:	28 2f       	mov	r18, r24
    14ec:	20 61       	ori	r18, 0x10	; 16
    14ee:	89 81       	ldd	r24, Y+1	; 0x01
    14f0:	9a 81       	ldd	r25, Y+2	; 0x02
    14f2:	fc 01       	movw	r30, r24
    14f4:	20 83       	st	Z, r18
    14f6:	0f 90       	pop	r0
    14f8:	0f 90       	pop	r0
    14fa:	df 91       	pop	r29
    14fc:	cf 91       	pop	r28
    14fe:	08 95       	ret

00001500 <spi_is_rx_full>:
    1500:	cf 93       	push	r28
    1502:	df 93       	push	r29
    1504:	00 d0       	rcall	.+0      	; 0x1506 <spi_is_rx_full+0x6>
    1506:	cd b7       	in	r28, 0x3d	; 61
    1508:	de b7       	in	r29, 0x3e	; 62
    150a:	89 83       	std	Y+1, r24	; 0x01
    150c:	9a 83       	std	Y+2, r25	; 0x02
    150e:	89 81       	ldd	r24, Y+1	; 0x01
    1510:	9a 81       	ldd	r25, Y+2	; 0x02
    1512:	cd df       	rcall	.-102    	; 0x14ae <spi_is_tx_ok>
    1514:	0f 90       	pop	r0
    1516:	0f 90       	pop	r0
    1518:	df 91       	pop	r29
    151a:	cf 91       	pop	r28
    151c:	08 95       	ret

0000151e <spi_master_init>:
    151e:	cf 93       	push	r28
    1520:	df 93       	push	r29
    1522:	00 d0       	rcall	.+0      	; 0x1524 <spi_master_init+0x6>
    1524:	cd b7       	in	r28, 0x3d	; 61
    1526:	de b7       	in	r29, 0x3e	; 62
    1528:	89 83       	std	Y+1, r24	; 0x01
    152a:	9a 83       	std	Y+2, r25	; 0x02
    152c:	89 81       	ldd	r24, Y+1	; 0x01
    152e:	9a 81       	ldd	r25, Y+2	; 0x02
    1530:	80 3c       	cpi	r24, 0xC0	; 192
    1532:	28 e0       	ldi	r18, 0x08	; 8
    1534:	92 07       	cpc	r25, r18
    1536:	21 f4       	brne	.+8      	; 0x1540 <spi_master_init+0x22>
    1538:	68 e0       	ldi	r22, 0x08	; 8
    153a:	83 e0       	ldi	r24, 0x03	; 3
    153c:	90 e0       	ldi	r25, 0x00	; 0
    153e:	79 de       	rcall	.-782    	; 0x1232 <sysclk_enable_module>
    1540:	89 81       	ldd	r24, Y+1	; 0x01
    1542:	9a 81       	ldd	r25, Y+2	; 0x02
    1544:	80 3c       	cpi	r24, 0xC0	; 192
    1546:	29 e0       	ldi	r18, 0x09	; 9
    1548:	92 07       	cpc	r25, r18
    154a:	21 f4       	brne	.+8      	; 0x1554 <spi_master_init+0x36>
    154c:	68 e0       	ldi	r22, 0x08	; 8
    154e:	84 e0       	ldi	r24, 0x04	; 4
    1550:	90 e0       	ldi	r25, 0x00	; 0
    1552:	6f de       	rcall	.-802    	; 0x1232 <sysclk_enable_module>
    1554:	89 81       	ldd	r24, Y+1	; 0x01
    1556:	9a 81       	ldd	r25, Y+2	; 0x02
    1558:	bd df       	rcall	.-134    	; 0x14d4 <spi_enable_master_mode>
    155a:	0f 90       	pop	r0
    155c:	0f 90       	pop	r0
    155e:	df 91       	pop	r29
    1560:	cf 91       	pop	r28
    1562:	08 95       	ret

00001564 <spi_write_packet>:
    1564:	cf 93       	push	r28
    1566:	df 93       	push	r29
    1568:	cd b7       	in	r28, 0x3d	; 61
    156a:	de b7       	in	r29, 0x3e	; 62
    156c:	29 97       	sbiw	r28, 0x09	; 9
    156e:	cd bf       	out	0x3d, r28	; 61
    1570:	de bf       	out	0x3e, r29	; 62
    1572:	8c 83       	std	Y+4, r24	; 0x04
    1574:	9d 83       	std	Y+5, r25	; 0x05
    1576:	6e 83       	std	Y+6, r22	; 0x06
    1578:	7f 83       	std	Y+7, r23	; 0x07
    157a:	48 87       	std	Y+8, r20	; 0x08
    157c:	59 87       	std	Y+9, r21	; 0x09
    157e:	1b c0       	rjmp	.+54     	; 0x15b6 <spi_write_packet+0x52>
    1580:	8e 81       	ldd	r24, Y+6	; 0x06
    1582:	9f 81       	ldd	r25, Y+7	; 0x07
    1584:	fc 01       	movw	r30, r24
    1586:	20 81       	ld	r18, Z
    1588:	8e 81       	ldd	r24, Y+6	; 0x06
    158a:	9f 81       	ldd	r25, Y+7	; 0x07
    158c:	01 96       	adiw	r24, 0x01	; 1
    158e:	8e 83       	std	Y+6, r24	; 0x06
    1590:	9f 83       	std	Y+7, r25	; 0x07
    1592:	8c 81       	ldd	r24, Y+4	; 0x04
    1594:	9d 81       	ldd	r25, Y+5	; 0x05
    1596:	89 83       	std	Y+1, r24	; 0x01
    1598:	9a 83       	std	Y+2, r25	; 0x02
    159a:	2b 83       	std	Y+3, r18	; 0x03
    159c:	89 81       	ldd	r24, Y+1	; 0x01
    159e:	9a 81       	ldd	r25, Y+2	; 0x02
    15a0:	6b 81       	ldd	r22, Y+3	; 0x03
    15a2:	71 df       	rcall	.-286    	; 0x1486 <spi_put>
    15a4:	00 00       	nop
    15a6:	8c 81       	ldd	r24, Y+4	; 0x04
    15a8:	9d 81       	ldd	r25, Y+5	; 0x05
    15aa:	aa df       	rcall	.-172    	; 0x1500 <spi_is_rx_full>
    15ac:	98 2f       	mov	r25, r24
    15ae:	81 e0       	ldi	r24, 0x01	; 1
    15b0:	89 27       	eor	r24, r25
    15b2:	88 23       	and	r24, r24
    15b4:	c1 f7       	brne	.-16     	; 0x15a6 <spi_write_packet+0x42>
    15b6:	21 e0       	ldi	r18, 0x01	; 1
    15b8:	88 85       	ldd	r24, Y+8	; 0x08
    15ba:	99 85       	ldd	r25, Y+9	; 0x09
    15bc:	00 97       	sbiw	r24, 0x00	; 0
    15be:	09 f4       	brne	.+2      	; 0x15c2 <spi_write_packet+0x5e>
    15c0:	20 e0       	ldi	r18, 0x00	; 0
    15c2:	88 85       	ldd	r24, Y+8	; 0x08
    15c4:	99 85       	ldd	r25, Y+9	; 0x09
    15c6:	01 97       	sbiw	r24, 0x01	; 1
    15c8:	88 87       	std	Y+8, r24	; 0x08
    15ca:	99 87       	std	Y+9, r25	; 0x09
    15cc:	22 23       	and	r18, r18
    15ce:	c1 f6       	brne	.-80     	; 0x1580 <spi_write_packet+0x1c>
    15d0:	80 e0       	ldi	r24, 0x00	; 0
    15d2:	90 e0       	ldi	r25, 0x00	; 0
    15d4:	29 96       	adiw	r28, 0x09	; 9
    15d6:	cd bf       	out	0x3d, r28	; 61
    15d8:	de bf       	out	0x3e, r29	; 62
    15da:	df 91       	pop	r29
    15dc:	cf 91       	pop	r28
    15de:	08 95       	ret

000015e0 <spi_select_device>:
 * \param spi Base address of the SPI instance.
 * \param device SPI device
 *
 */
void spi_select_device(SPI_t *spi, struct spi_device *device)
{
    15e0:	cf 93       	push	r28
    15e2:	df 93       	push	r29
    15e4:	00 d0       	rcall	.+0      	; 0x15e6 <spi_select_device+0x6>
    15e6:	00 d0       	rcall	.+0      	; 0x15e8 <spi_select_device+0x8>
    15e8:	cd b7       	in	r28, 0x3d	; 61
    15ea:	de b7       	in	r29, 0x3e	; 62
    15ec:	89 83       	std	Y+1, r24	; 0x01
    15ee:	9a 83       	std	Y+2, r25	; 0x02
    15f0:	6b 83       	std	Y+3, r22	; 0x03
    15f2:	7c 83       	std	Y+4, r23	; 0x04
	ioport_set_pin_low(device->id);
    15f4:	8b 81       	ldd	r24, Y+3	; 0x03
    15f6:	9c 81       	ldd	r25, Y+4	; 0x04
    15f8:	fc 01       	movw	r30, r24
    15fa:	80 81       	ld	r24, Z
    15fc:	9b de       	rcall	.-714    	; 0x1334 <ioport_set_pin_low>
}
    15fe:	24 96       	adiw	r28, 0x04	; 4
    1600:	cd bf       	out	0x3d, r28	; 61
    1602:	de bf       	out	0x3e, r29	; 62
    1604:	df 91       	pop	r29
    1606:	cf 91       	pop	r28
    1608:	08 95       	ret

0000160a <spi_deselect_device>:
 * \param device SPI device
 *
 * \pre SPI device must be selected with spi_select_device() first
 */
void spi_deselect_device(SPI_t *spi, struct spi_device *device)
{
    160a:	cf 93       	push	r28
    160c:	df 93       	push	r29
    160e:	00 d0       	rcall	.+0      	; 0x1610 <spi_deselect_device+0x6>
    1610:	00 d0       	rcall	.+0      	; 0x1612 <spi_deselect_device+0x8>
    1612:	cd b7       	in	r28, 0x3d	; 61
    1614:	de b7       	in	r29, 0x3e	; 62
    1616:	89 83       	std	Y+1, r24	; 0x01
    1618:	9a 83       	std	Y+2, r25	; 0x02
    161a:	6b 83       	std	Y+3, r22	; 0x03
    161c:	7c 83       	std	Y+4, r23	; 0x04
	ioport_set_pin_high(device->id);
    161e:	8b 81       	ldd	r24, Y+3	; 0x03
    1620:	9c 81       	ldd	r25, Y+4	; 0x04
    1622:	fc 01       	movw	r30, r24
    1624:	80 81       	ld	r24, Z
    1626:	da de       	rcall	.-588    	; 0x13dc <ioport_set_pin_high>
}
    1628:	24 96       	adiw	r28, 0x04	; 4
    162a:	cd bf       	out	0x3d, r28	; 61
    162c:	de bf       	out	0x3e, r29	; 62
    162e:	df 91       	pop	r29
    1630:	cf 91       	pop	r28
    1632:	08 95       	ret

00001634 <ccp_write_io>:

	PUBLIC_FUNCTION(ccp_write_io)

#if defined(__GNUC__)

	out     RAMPZ, r1               // Reset bits 23:16 of Z
    1634:	1b be       	out	0x3b, r1	; 59
	movw    r30, r24                // Load addr into Z
    1636:	fc 01       	movw	r30, r24
	ldi     r18, CCP_IOREG          // Load magic CCP value
    1638:	28 ed       	ldi	r18, 0xD8	; 216
	out     CCP, r18                // Start CCP handshake
    163a:	24 bf       	out	0x34, r18	; 52
	st      Z, r22                  // Write value to I/O register
    163c:	60 83       	st	Z, r22
	ret                             // Return to caller
    163e:	08 95       	ret

00001640 <cpu_irq_save>:
 * \param callback Callback function pointer
 */
void rtc_set_callback(rtc_callback_t callback)
{
	rtc_data.callback = callback;
}
    1640:	cf 93       	push	r28
    1642:	df 93       	push	r29
    1644:	1f 92       	push	r1
    1646:	cd b7       	in	r28, 0x3d	; 61
    1648:	de b7       	in	r29, 0x3e	; 62
    164a:	8f e3       	ldi	r24, 0x3F	; 63
    164c:	90 e0       	ldi	r25, 0x00	; 0
    164e:	fc 01       	movw	r30, r24
    1650:	80 81       	ld	r24, Z
    1652:	89 83       	std	Y+1, r24	; 0x01
    1654:	f8 94       	cli
    1656:	89 81       	ldd	r24, Y+1	; 0x01
    1658:	0f 90       	pop	r0
    165a:	df 91       	pop	r29
    165c:	cf 91       	pop	r28
    165e:	08 95       	ret

00001660 <cpu_irq_restore>:
    1660:	cf 93       	push	r28
    1662:	df 93       	push	r29
    1664:	1f 92       	push	r1
    1666:	cd b7       	in	r28, 0x3d	; 61
    1668:	de b7       	in	r29, 0x3e	; 62
    166a:	89 83       	std	Y+1, r24	; 0x01
    166c:	8f e3       	ldi	r24, 0x3F	; 63
    166e:	90 e0       	ldi	r25, 0x00	; 0
    1670:	29 81       	ldd	r18, Y+1	; 0x01
    1672:	fc 01       	movw	r30, r24
    1674:	20 83       	st	Z, r18
    1676:	0f 90       	pop	r0
    1678:	df 91       	pop	r29
    167a:	cf 91       	pop	r28
    167c:	08 95       	ret

0000167e <sleepmgr_lock_mode>:
    167e:	cf 93       	push	r28
    1680:	df 93       	push	r29
    1682:	00 d0       	rcall	.+0      	; 0x1684 <sleepmgr_lock_mode+0x6>
    1684:	1f 92       	push	r1
    1686:	cd b7       	in	r28, 0x3d	; 61
    1688:	de b7       	in	r29, 0x3e	; 62
    168a:	8a 83       	std	Y+2, r24	; 0x02
    168c:	9b 83       	std	Y+3, r25	; 0x03
    168e:	d8 df       	rcall	.-80     	; 0x1640 <cpu_irq_save>
    1690:	89 83       	std	Y+1, r24	; 0x01
    1692:	8a 81       	ldd	r24, Y+2	; 0x02
    1694:	9b 81       	ldd	r25, Y+3	; 0x03
    1696:	82 59       	subi	r24, 0x92	; 146
    1698:	9f 4d       	sbci	r25, 0xDF	; 223
    169a:	fc 01       	movw	r30, r24
    169c:	80 81       	ld	r24, Z
    169e:	28 2f       	mov	r18, r24
    16a0:	2f 5f       	subi	r18, 0xFF	; 255
    16a2:	8a 81       	ldd	r24, Y+2	; 0x02
    16a4:	9b 81       	ldd	r25, Y+3	; 0x03
    16a6:	82 59       	subi	r24, 0x92	; 146
    16a8:	9f 4d       	sbci	r25, 0xDF	; 223
    16aa:	fc 01       	movw	r30, r24
    16ac:	20 83       	st	Z, r18
    16ae:	89 81       	ldd	r24, Y+1	; 0x01
    16b0:	d7 df       	rcall	.-82     	; 0x1660 <cpu_irq_restore>
    16b2:	23 96       	adiw	r28, 0x03	; 3
    16b4:	cd bf       	out	0x3d, r28	; 61
    16b6:	de bf       	out	0x3e, r29	; 62
    16b8:	df 91       	pop	r29
    16ba:	cf 91       	pop	r28
    16bc:	08 95       	ret

000016be <rtc_init>:
 *
 * \note The RTC clock source used by the RTC module should be set up before
 *       calling this function. 
 */
void rtc_init(void)
{
    16be:	cf 93       	push	r28
    16c0:	df 93       	push	r29
    16c2:	cd b7       	in	r28, 0x3d	; 61
    16c4:	de b7       	in	r29, 0x3e	; 62
	sysclk_enable_module(SYSCLK_PORT_GEN, SYSCLK_RTC);
    16c6:	64 e0       	ldi	r22, 0x04	; 4
    16c8:	80 e0       	ldi	r24, 0x00	; 0
    16ca:	90 e0       	ldi	r25, 0x00	; 0
    16cc:	b2 dd       	rcall	.-1180   	; 0x1232 <sysclk_enable_module>
	RTC.PER = 0xFFFF;
    16ce:	80 e0       	ldi	r24, 0x00	; 0
    16d0:	94 e0       	ldi	r25, 0x04	; 4
    16d2:	2f ef       	ldi	r18, 0xFF	; 255
    16d4:	3f ef       	ldi	r19, 0xFF	; 255
    16d6:	fc 01       	movw	r30, r24
    16d8:	22 87       	std	Z+10, r18	; 0x0a
    16da:	33 87       	std	Z+11, r19	; 0x0b
	RTC.CNT = 0;
    16dc:	80 e0       	ldi	r24, 0x00	; 0
    16de:	94 e0       	ldi	r25, 0x04	; 4
    16e0:	fc 01       	movw	r30, r24
    16e2:	10 86       	std	Z+8, r1	; 0x08
    16e4:	11 86       	std	Z+9, r1	; 0x09
	/* Since overflow interrupt is needed all the time we limit sleep to
	 * power-save.
	 */
	sleepmgr_lock_mode(SLEEPMGR_PSAVE);
    16e6:	83 e0       	ldi	r24, 0x03	; 3
    16e8:	90 e0       	ldi	r25, 0x00	; 0
    16ea:	c9 df       	rcall	.-110    	; 0x167e <sleepmgr_lock_mode>
	RTC.INTCTRL = RTC_OVERFLOW_INT_LEVEL;
    16ec:	80 e0       	ldi	r24, 0x00	; 0
    16ee:	94 e0       	ldi	r25, 0x04	; 4
    16f0:	23 e0       	ldi	r18, 0x03	; 3
    16f2:	fc 01       	movw	r30, r24
    16f4:	22 83       	std	Z+2, r18	; 0x02
	RTC.CTRL = CONFIG_RTC_PRESCALER;
    16f6:	80 e0       	ldi	r24, 0x00	; 0
    16f8:	94 e0       	ldi	r25, 0x04	; 4
    16fa:	fc 01       	movw	r30, r24
    16fc:	10 82       	st	Z, r1
}
    16fe:	df 91       	pop	r29
    1700:	cf 91       	pop	r28
    1702:	08 95       	ret

00001704 <__vector_11>:
/**
 * \internal
 * \brief Compare interrupt used for alarm
 */
ISR(RTC_COMP_vect)
{
    1704:	1f 92       	push	r1
    1706:	0f 92       	push	r0
    1708:	00 90 3f 00 	lds	r0, 0x003F
    170c:	0f 92       	push	r0
    170e:	11 24       	eor	r1, r1
    1710:	2f 93       	push	r18
    1712:	3f 93       	push	r19
    1714:	4f 93       	push	r20
    1716:	5f 93       	push	r21
    1718:	6f 93       	push	r22
    171a:	7f 93       	push	r23
    171c:	8f 93       	push	r24
    171e:	9f 93       	push	r25
    1720:	af 93       	push	r26
    1722:	bf 93       	push	r27
    1724:	ef 93       	push	r30
    1726:	ff 93       	push	r31
    1728:	cf 93       	push	r28
    172a:	df 93       	push	r29
    172c:	cd b7       	in	r28, 0x3d	; 61
    172e:	de b7       	in	r29, 0x3e	; 62
    1730:	28 97       	sbiw	r28, 0x08	; 8
    1732:	cd bf       	out	0x3d, r28	; 61
    1734:	de bf       	out	0x3e, r29	; 62
	if (rtc_data.counter_high >= rtc_data.alarm_high) {
    1736:	20 91 74 20 	lds	r18, 0x2074
    173a:	30 91 75 20 	lds	r19, 0x2075
    173e:	80 91 76 20 	lds	r24, 0x2076
    1742:	90 91 77 20 	lds	r25, 0x2077
    1746:	28 17       	cp	r18, r24
    1748:	39 07       	cpc	r19, r25
    174a:	08 f4       	brcc	.+2      	; 0x174e <__vector_11+0x4a>
    174c:	63 c0       	rjmp	.+198    	; 0x1814 <__vector_11+0x110>
		RTC.INTCTRL = RTC_OVERFLOW_INT_LEVEL;
    174e:	80 e0       	ldi	r24, 0x00	; 0
    1750:	94 e0       	ldi	r25, 0x04	; 4
    1752:	23 e0       	ldi	r18, 0x03	; 3
    1754:	fc 01       	movw	r30, r24
    1756:	22 83       	std	Z+2, r18	; 0x02
		if (rtc_data.callback) {
    1758:	80 91 7a 20 	lds	r24, 0x207A
    175c:	90 91 7b 20 	lds	r25, 0x207B
    1760:	00 97       	sbiw	r24, 0x00	; 0
    1762:	09 f4       	brne	.+2      	; 0x1766 <__vector_11+0x62>
    1764:	57 c0       	rjmp	.+174    	; 0x1814 <__vector_11+0x110>
			uint32_t count = ((uint32_t)rtc_data.counter_high << 16)
    1766:	80 91 74 20 	lds	r24, 0x2074
    176a:	90 91 75 20 	lds	r25, 0x2075
    176e:	cc 01       	movw	r24, r24
    1770:	a0 e0       	ldi	r26, 0x00	; 0
    1772:	b0 e0       	ldi	r27, 0x00	; 0
    1774:	ac 01       	movw	r20, r24
    1776:	33 27       	eor	r19, r19
    1778:	22 27       	eor	r18, r18
					| RTC.CNT;
    177a:	80 e0       	ldi	r24, 0x00	; 0
    177c:	94 e0       	ldi	r25, 0x04	; 4
    177e:	fc 01       	movw	r30, r24
    1780:	80 85       	ldd	r24, Z+8	; 0x08
    1782:	91 85       	ldd	r25, Z+9	; 0x09
    1784:	cc 01       	movw	r24, r24
    1786:	a0 e0       	ldi	r26, 0x00	; 0
    1788:	b0 e0       	ldi	r27, 0x00	; 0
ISR(RTC_COMP_vect)
{
	if (rtc_data.counter_high >= rtc_data.alarm_high) {
		RTC.INTCTRL = RTC_OVERFLOW_INT_LEVEL;
		if (rtc_data.callback) {
			uint32_t count = ((uint32_t)rtc_data.counter_high << 16)
    178a:	82 2b       	or	r24, r18
    178c:	93 2b       	or	r25, r19
    178e:	a4 2b       	or	r26, r20
    1790:	b5 2b       	or	r27, r21
    1792:	89 83       	std	Y+1, r24	; 0x01
    1794:	9a 83       	std	Y+2, r25	; 0x02
    1796:	ab 83       	std	Y+3, r26	; 0x03
    1798:	bc 83       	std	Y+4, r27	; 0x04
					| RTC.CNT;
			uint32_t alarm = ((uint32_t)rtc_data.alarm_high << 16)
    179a:	80 91 76 20 	lds	r24, 0x2076
    179e:	90 91 77 20 	lds	r25, 0x2077
    17a2:	cc 01       	movw	r24, r24
    17a4:	a0 e0       	ldi	r26, 0x00	; 0
    17a6:	b0 e0       	ldi	r27, 0x00	; 0
    17a8:	ac 01       	movw	r20, r24
    17aa:	33 27       	eor	r19, r19
    17ac:	22 27       	eor	r18, r18
					| rtc_data.alarm_low;
    17ae:	80 91 78 20 	lds	r24, 0x2078
    17b2:	90 91 79 20 	lds	r25, 0x2079
    17b6:	cc 01       	movw	r24, r24
    17b8:	a0 e0       	ldi	r26, 0x00	; 0
    17ba:	b0 e0       	ldi	r27, 0x00	; 0
	if (rtc_data.counter_high >= rtc_data.alarm_high) {
		RTC.INTCTRL = RTC_OVERFLOW_INT_LEVEL;
		if (rtc_data.callback) {
			uint32_t count = ((uint32_t)rtc_data.counter_high << 16)
					| RTC.CNT;
			uint32_t alarm = ((uint32_t)rtc_data.alarm_high << 16)
    17bc:	82 2b       	or	r24, r18
    17be:	93 2b       	or	r25, r19
    17c0:	a4 2b       	or	r26, r20
    17c2:	b5 2b       	or	r27, r21
    17c4:	8d 83       	std	Y+5, r24	; 0x05
    17c6:	9e 83       	std	Y+6, r25	; 0x06
    17c8:	af 83       	std	Y+7, r26	; 0x07
    17ca:	b8 87       	std	Y+8, r27	; 0x08
					| rtc_data.alarm_low;
			/* Workaround for errata. Count might not be updated
			 * when waking up from sleep, so in this case use alarm
			 * time plus one.
			 */
			if (alarm >= count)
    17cc:	2d 81       	ldd	r18, Y+5	; 0x05
    17ce:	3e 81       	ldd	r19, Y+6	; 0x06
    17d0:	4f 81       	ldd	r20, Y+7	; 0x07
    17d2:	58 85       	ldd	r21, Y+8	; 0x08
    17d4:	89 81       	ldd	r24, Y+1	; 0x01
    17d6:	9a 81       	ldd	r25, Y+2	; 0x02
    17d8:	ab 81       	ldd	r26, Y+3	; 0x03
    17da:	bc 81       	ldd	r27, Y+4	; 0x04
    17dc:	28 17       	cp	r18, r24
    17de:	39 07       	cpc	r19, r25
    17e0:	4a 07       	cpc	r20, r26
    17e2:	5b 07       	cpc	r21, r27
    17e4:	58 f0       	brcs	.+22     	; 0x17fc <__vector_11+0xf8>
				count = alarm + 1;
    17e6:	8d 81       	ldd	r24, Y+5	; 0x05
    17e8:	9e 81       	ldd	r25, Y+6	; 0x06
    17ea:	af 81       	ldd	r26, Y+7	; 0x07
    17ec:	b8 85       	ldd	r27, Y+8	; 0x08
    17ee:	01 96       	adiw	r24, 0x01	; 1
    17f0:	a1 1d       	adc	r26, r1
    17f2:	b1 1d       	adc	r27, r1
    17f4:	89 83       	std	Y+1, r24	; 0x01
    17f6:	9a 83       	std	Y+2, r25	; 0x02
    17f8:	ab 83       	std	Y+3, r26	; 0x03
    17fa:	bc 83       	std	Y+4, r27	; 0x04
			rtc_data.callback(count);
    17fc:	20 91 7a 20 	lds	r18, 0x207A
    1800:	30 91 7b 20 	lds	r19, 0x207B
    1804:	89 81       	ldd	r24, Y+1	; 0x01
    1806:	9a 81       	ldd	r25, Y+2	; 0x02
    1808:	ab 81       	ldd	r26, Y+3	; 0x03
    180a:	bc 81       	ldd	r27, Y+4	; 0x04
    180c:	bc 01       	movw	r22, r24
    180e:	cd 01       	movw	r24, r26
    1810:	f9 01       	movw	r30, r18
    1812:	09 95       	icall
		}
	}
}
    1814:	28 96       	adiw	r28, 0x08	; 8
    1816:	cd bf       	out	0x3d, r28	; 61
    1818:	de bf       	out	0x3e, r29	; 62
    181a:	df 91       	pop	r29
    181c:	cf 91       	pop	r28
    181e:	ff 91       	pop	r31
    1820:	ef 91       	pop	r30
    1822:	bf 91       	pop	r27
    1824:	af 91       	pop	r26
    1826:	9f 91       	pop	r25
    1828:	8f 91       	pop	r24
    182a:	7f 91       	pop	r23
    182c:	6f 91       	pop	r22
    182e:	5f 91       	pop	r21
    1830:	4f 91       	pop	r20
    1832:	3f 91       	pop	r19
    1834:	2f 91       	pop	r18
    1836:	0f 90       	pop	r0
    1838:	00 92 3f 00 	sts	0x003F, r0
    183c:	0f 90       	pop	r0
    183e:	1f 90       	pop	r1
    1840:	18 95       	reti

00001842 <cpu_irq_save>:
	{
		cpu_irq_restore(iflags);
		return;
	}
	cpu_irq_restore(iflags);
}
    1842:	cf 93       	push	r28
    1844:	df 93       	push	r29
    1846:	1f 92       	push	r1
    1848:	cd b7       	in	r28, 0x3d	; 61
    184a:	de b7       	in	r29, 0x3e	; 62
    184c:	8f e3       	ldi	r24, 0x3F	; 63
    184e:	90 e0       	ldi	r25, 0x00	; 0
    1850:	fc 01       	movw	r30, r24
    1852:	80 81       	ld	r24, Z
    1854:	89 83       	std	Y+1, r24	; 0x01
    1856:	f8 94       	cli
    1858:	89 81       	ldd	r24, Y+1	; 0x01
    185a:	0f 90       	pop	r0
    185c:	df 91       	pop	r29
    185e:	cf 91       	pop	r28
    1860:	08 95       	ret

00001862 <cpu_irq_restore>:
    1862:	cf 93       	push	r28
    1864:	df 93       	push	r29
    1866:	1f 92       	push	r1
    1868:	cd b7       	in	r28, 0x3d	; 61
    186a:	de b7       	in	r29, 0x3e	; 62
    186c:	89 83       	std	Y+1, r24	; 0x01
    186e:	8f e3       	ldi	r24, 0x3F	; 63
    1870:	90 e0       	ldi	r25, 0x00	; 0
    1872:	29 81       	ldd	r18, Y+1	; 0x01
    1874:	fc 01       	movw	r30, r24
    1876:	20 83       	st	Z, r18
    1878:	0f 90       	pop	r0
    187a:	df 91       	pop	r29
    187c:	cf 91       	pop	r28
    187e:	08 95       	ret

00001880 <sleepmgr_lock_mode>:
    1880:	cf 93       	push	r28
    1882:	df 93       	push	r29
    1884:	00 d0       	rcall	.+0      	; 0x1886 <sleepmgr_lock_mode+0x6>
    1886:	1f 92       	push	r1
    1888:	cd b7       	in	r28, 0x3d	; 61
    188a:	de b7       	in	r29, 0x3e	; 62
    188c:	8a 83       	std	Y+2, r24	; 0x02
    188e:	9b 83       	std	Y+3, r25	; 0x03
    1890:	d8 df       	rcall	.-80     	; 0x1842 <cpu_irq_save>
    1892:	89 83       	std	Y+1, r24	; 0x01
    1894:	8a 81       	ldd	r24, Y+2	; 0x02
    1896:	9b 81       	ldd	r25, Y+3	; 0x03
    1898:	82 59       	subi	r24, 0x92	; 146
    189a:	9f 4d       	sbci	r25, 0xDF	; 223
    189c:	fc 01       	movw	r30, r24
    189e:	80 81       	ld	r24, Z
    18a0:	28 2f       	mov	r18, r24
    18a2:	2f 5f       	subi	r18, 0xFF	; 255
    18a4:	8a 81       	ldd	r24, Y+2	; 0x02
    18a6:	9b 81       	ldd	r25, Y+3	; 0x03
    18a8:	82 59       	subi	r24, 0x92	; 146
    18aa:	9f 4d       	sbci	r25, 0xDF	; 223
    18ac:	fc 01       	movw	r30, r24
    18ae:	20 83       	st	Z, r18
    18b0:	89 81       	ldd	r24, Y+1	; 0x01
    18b2:	d7 df       	rcall	.-82     	; 0x1862 <cpu_irq_restore>
    18b4:	23 96       	adiw	r28, 0x03	; 3
    18b6:	cd bf       	out	0x3d, r28	; 61
    18b8:	de bf       	out	0x3e, r29	; 62
    18ba:	df 91       	pop	r29
    18bc:	cf 91       	pop	r28
    18be:	08 95       	ret

000018c0 <__vector_14>:
    18c0:	1f 92       	push	r1
    18c2:	0f 92       	push	r0
    18c4:	00 90 3f 00 	lds	r0, 0x003F
    18c8:	0f 92       	push	r0
    18ca:	11 24       	eor	r1, r1
    18cc:	2f 93       	push	r18
    18ce:	3f 93       	push	r19
    18d0:	4f 93       	push	r20
    18d2:	5f 93       	push	r21
    18d4:	6f 93       	push	r22
    18d6:	7f 93       	push	r23
    18d8:	8f 93       	push	r24
    18da:	9f 93       	push	r25
    18dc:	af 93       	push	r26
    18de:	bf 93       	push	r27
    18e0:	ef 93       	push	r30
    18e2:	ff 93       	push	r31
    18e4:	cf 93       	push	r28
    18e6:	df 93       	push	r29
    18e8:	cd b7       	in	r28, 0x3d	; 61
    18ea:	de b7       	in	r29, 0x3e	; 62
    18ec:	80 91 1e 20 	lds	r24, 0x201E
    18f0:	90 91 1f 20 	lds	r25, 0x201F
    18f4:	00 97       	sbiw	r24, 0x00	; 0
    18f6:	31 f0       	breq	.+12     	; 0x1904 <__vector_14+0x44>
    18f8:	80 91 1e 20 	lds	r24, 0x201E
    18fc:	90 91 1f 20 	lds	r25, 0x201F
    1900:	fc 01       	movw	r30, r24
    1902:	09 95       	icall
    1904:	df 91       	pop	r29
    1906:	cf 91       	pop	r28
    1908:	ff 91       	pop	r31
    190a:	ef 91       	pop	r30
    190c:	bf 91       	pop	r27
    190e:	af 91       	pop	r26
    1910:	9f 91       	pop	r25
    1912:	8f 91       	pop	r24
    1914:	7f 91       	pop	r23
    1916:	6f 91       	pop	r22
    1918:	5f 91       	pop	r21
    191a:	4f 91       	pop	r20
    191c:	3f 91       	pop	r19
    191e:	2f 91       	pop	r18
    1920:	0f 90       	pop	r0
    1922:	00 92 3f 00 	sts	0x003F, r0
    1926:	0f 90       	pop	r0
    1928:	1f 90       	pop	r1
    192a:	18 95       	reti

0000192c <__vector_15>:
    192c:	1f 92       	push	r1
    192e:	0f 92       	push	r0
    1930:	00 90 3f 00 	lds	r0, 0x003F
    1934:	0f 92       	push	r0
    1936:	11 24       	eor	r1, r1
    1938:	2f 93       	push	r18
    193a:	3f 93       	push	r19
    193c:	4f 93       	push	r20
    193e:	5f 93       	push	r21
    1940:	6f 93       	push	r22
    1942:	7f 93       	push	r23
    1944:	8f 93       	push	r24
    1946:	9f 93       	push	r25
    1948:	af 93       	push	r26
    194a:	bf 93       	push	r27
    194c:	ef 93       	push	r30
    194e:	ff 93       	push	r31
    1950:	cf 93       	push	r28
    1952:	df 93       	push	r29
    1954:	cd b7       	in	r28, 0x3d	; 61
    1956:	de b7       	in	r29, 0x3e	; 62
    1958:	80 91 20 20 	lds	r24, 0x2020
    195c:	90 91 21 20 	lds	r25, 0x2021
    1960:	00 97       	sbiw	r24, 0x00	; 0
    1962:	31 f0       	breq	.+12     	; 0x1970 <__vector_15+0x44>
    1964:	80 91 20 20 	lds	r24, 0x2020
    1968:	90 91 21 20 	lds	r25, 0x2021
    196c:	fc 01       	movw	r30, r24
    196e:	09 95       	icall
    1970:	df 91       	pop	r29
    1972:	cf 91       	pop	r28
    1974:	ff 91       	pop	r31
    1976:	ef 91       	pop	r30
    1978:	bf 91       	pop	r27
    197a:	af 91       	pop	r26
    197c:	9f 91       	pop	r25
    197e:	8f 91       	pop	r24
    1980:	7f 91       	pop	r23
    1982:	6f 91       	pop	r22
    1984:	5f 91       	pop	r21
    1986:	4f 91       	pop	r20
    1988:	3f 91       	pop	r19
    198a:	2f 91       	pop	r18
    198c:	0f 90       	pop	r0
    198e:	00 92 3f 00 	sts	0x003F, r0
    1992:	0f 90       	pop	r0
    1994:	1f 90       	pop	r1
    1996:	18 95       	reti

00001998 <__vector_16>:
    1998:	1f 92       	push	r1
    199a:	0f 92       	push	r0
    199c:	00 90 3f 00 	lds	r0, 0x003F
    19a0:	0f 92       	push	r0
    19a2:	11 24       	eor	r1, r1
    19a4:	2f 93       	push	r18
    19a6:	3f 93       	push	r19
    19a8:	4f 93       	push	r20
    19aa:	5f 93       	push	r21
    19ac:	6f 93       	push	r22
    19ae:	7f 93       	push	r23
    19b0:	8f 93       	push	r24
    19b2:	9f 93       	push	r25
    19b4:	af 93       	push	r26
    19b6:	bf 93       	push	r27
    19b8:	ef 93       	push	r30
    19ba:	ff 93       	push	r31
    19bc:	cf 93       	push	r28
    19be:	df 93       	push	r29
    19c0:	cd b7       	in	r28, 0x3d	; 61
    19c2:	de b7       	in	r29, 0x3e	; 62
    19c4:	80 91 22 20 	lds	r24, 0x2022
    19c8:	90 91 23 20 	lds	r25, 0x2023
    19cc:	00 97       	sbiw	r24, 0x00	; 0
    19ce:	31 f0       	breq	.+12     	; 0x19dc <__vector_16+0x44>
    19d0:	80 91 22 20 	lds	r24, 0x2022
    19d4:	90 91 23 20 	lds	r25, 0x2023
    19d8:	fc 01       	movw	r30, r24
    19da:	09 95       	icall
    19dc:	df 91       	pop	r29
    19de:	cf 91       	pop	r28
    19e0:	ff 91       	pop	r31
    19e2:	ef 91       	pop	r30
    19e4:	bf 91       	pop	r27
    19e6:	af 91       	pop	r26
    19e8:	9f 91       	pop	r25
    19ea:	8f 91       	pop	r24
    19ec:	7f 91       	pop	r23
    19ee:	6f 91       	pop	r22
    19f0:	5f 91       	pop	r21
    19f2:	4f 91       	pop	r20
    19f4:	3f 91       	pop	r19
    19f6:	2f 91       	pop	r18
    19f8:	0f 90       	pop	r0
    19fa:	00 92 3f 00 	sts	0x003F, r0
    19fe:	0f 90       	pop	r0
    1a00:	1f 90       	pop	r1
    1a02:	18 95       	reti

00001a04 <__vector_17>:
    1a04:	1f 92       	push	r1
    1a06:	0f 92       	push	r0
    1a08:	00 90 3f 00 	lds	r0, 0x003F
    1a0c:	0f 92       	push	r0
    1a0e:	11 24       	eor	r1, r1
    1a10:	2f 93       	push	r18
    1a12:	3f 93       	push	r19
    1a14:	4f 93       	push	r20
    1a16:	5f 93       	push	r21
    1a18:	6f 93       	push	r22
    1a1a:	7f 93       	push	r23
    1a1c:	8f 93       	push	r24
    1a1e:	9f 93       	push	r25
    1a20:	af 93       	push	r26
    1a22:	bf 93       	push	r27
    1a24:	ef 93       	push	r30
    1a26:	ff 93       	push	r31
    1a28:	cf 93       	push	r28
    1a2a:	df 93       	push	r29
    1a2c:	cd b7       	in	r28, 0x3d	; 61
    1a2e:	de b7       	in	r29, 0x3e	; 62
    1a30:	80 91 24 20 	lds	r24, 0x2024
    1a34:	90 91 25 20 	lds	r25, 0x2025
    1a38:	00 97       	sbiw	r24, 0x00	; 0
    1a3a:	31 f0       	breq	.+12     	; 0x1a48 <__vector_17+0x44>
    1a3c:	80 91 24 20 	lds	r24, 0x2024
    1a40:	90 91 25 20 	lds	r25, 0x2025
    1a44:	fc 01       	movw	r30, r24
    1a46:	09 95       	icall
    1a48:	df 91       	pop	r29
    1a4a:	cf 91       	pop	r28
    1a4c:	ff 91       	pop	r31
    1a4e:	ef 91       	pop	r30
    1a50:	bf 91       	pop	r27
    1a52:	af 91       	pop	r26
    1a54:	9f 91       	pop	r25
    1a56:	8f 91       	pop	r24
    1a58:	7f 91       	pop	r23
    1a5a:	6f 91       	pop	r22
    1a5c:	5f 91       	pop	r21
    1a5e:	4f 91       	pop	r20
    1a60:	3f 91       	pop	r19
    1a62:	2f 91       	pop	r18
    1a64:	0f 90       	pop	r0
    1a66:	00 92 3f 00 	sts	0x003F, r0
    1a6a:	0f 90       	pop	r0
    1a6c:	1f 90       	pop	r1
    1a6e:	18 95       	reti

00001a70 <__vector_18>:
    1a70:	1f 92       	push	r1
    1a72:	0f 92       	push	r0
    1a74:	00 90 3f 00 	lds	r0, 0x003F
    1a78:	0f 92       	push	r0
    1a7a:	11 24       	eor	r1, r1
    1a7c:	2f 93       	push	r18
    1a7e:	3f 93       	push	r19
    1a80:	4f 93       	push	r20
    1a82:	5f 93       	push	r21
    1a84:	6f 93       	push	r22
    1a86:	7f 93       	push	r23
    1a88:	8f 93       	push	r24
    1a8a:	9f 93       	push	r25
    1a8c:	af 93       	push	r26
    1a8e:	bf 93       	push	r27
    1a90:	ef 93       	push	r30
    1a92:	ff 93       	push	r31
    1a94:	cf 93       	push	r28
    1a96:	df 93       	push	r29
    1a98:	cd b7       	in	r28, 0x3d	; 61
    1a9a:	de b7       	in	r29, 0x3e	; 62
    1a9c:	80 91 26 20 	lds	r24, 0x2026
    1aa0:	90 91 27 20 	lds	r25, 0x2027
    1aa4:	00 97       	sbiw	r24, 0x00	; 0
    1aa6:	31 f0       	breq	.+12     	; 0x1ab4 <__vector_18+0x44>
    1aa8:	80 91 26 20 	lds	r24, 0x2026
    1aac:	90 91 27 20 	lds	r25, 0x2027
    1ab0:	fc 01       	movw	r30, r24
    1ab2:	09 95       	icall
    1ab4:	df 91       	pop	r29
    1ab6:	cf 91       	pop	r28
    1ab8:	ff 91       	pop	r31
    1aba:	ef 91       	pop	r30
    1abc:	bf 91       	pop	r27
    1abe:	af 91       	pop	r26
    1ac0:	9f 91       	pop	r25
    1ac2:	8f 91       	pop	r24
    1ac4:	7f 91       	pop	r23
    1ac6:	6f 91       	pop	r22
    1ac8:	5f 91       	pop	r21
    1aca:	4f 91       	pop	r20
    1acc:	3f 91       	pop	r19
    1ace:	2f 91       	pop	r18
    1ad0:	0f 90       	pop	r0
    1ad2:	00 92 3f 00 	sts	0x003F, r0
    1ad6:	0f 90       	pop	r0
    1ad8:	1f 90       	pop	r1
    1ada:	18 95       	reti

00001adc <__vector_19>:
    1adc:	1f 92       	push	r1
    1ade:	0f 92       	push	r0
    1ae0:	00 90 3f 00 	lds	r0, 0x003F
    1ae4:	0f 92       	push	r0
    1ae6:	11 24       	eor	r1, r1
    1ae8:	2f 93       	push	r18
    1aea:	3f 93       	push	r19
    1aec:	4f 93       	push	r20
    1aee:	5f 93       	push	r21
    1af0:	6f 93       	push	r22
    1af2:	7f 93       	push	r23
    1af4:	8f 93       	push	r24
    1af6:	9f 93       	push	r25
    1af8:	af 93       	push	r26
    1afa:	bf 93       	push	r27
    1afc:	ef 93       	push	r30
    1afe:	ff 93       	push	r31
    1b00:	cf 93       	push	r28
    1b02:	df 93       	push	r29
    1b04:	cd b7       	in	r28, 0x3d	; 61
    1b06:	de b7       	in	r29, 0x3e	; 62
    1b08:	80 91 28 20 	lds	r24, 0x2028
    1b0c:	90 91 29 20 	lds	r25, 0x2029
    1b10:	00 97       	sbiw	r24, 0x00	; 0
    1b12:	31 f0       	breq	.+12     	; 0x1b20 <__vector_19+0x44>
    1b14:	80 91 28 20 	lds	r24, 0x2028
    1b18:	90 91 29 20 	lds	r25, 0x2029
    1b1c:	fc 01       	movw	r30, r24
    1b1e:	09 95       	icall
    1b20:	df 91       	pop	r29
    1b22:	cf 91       	pop	r28
    1b24:	ff 91       	pop	r31
    1b26:	ef 91       	pop	r30
    1b28:	bf 91       	pop	r27
    1b2a:	af 91       	pop	r26
    1b2c:	9f 91       	pop	r25
    1b2e:	8f 91       	pop	r24
    1b30:	7f 91       	pop	r23
    1b32:	6f 91       	pop	r22
    1b34:	5f 91       	pop	r21
    1b36:	4f 91       	pop	r20
    1b38:	3f 91       	pop	r19
    1b3a:	2f 91       	pop	r18
    1b3c:	0f 90       	pop	r0
    1b3e:	00 92 3f 00 	sts	0x003F, r0
    1b42:	0f 90       	pop	r0
    1b44:	1f 90       	pop	r1
    1b46:	18 95       	reti

00001b48 <__vector_20>:
    1b48:	1f 92       	push	r1
    1b4a:	0f 92       	push	r0
    1b4c:	00 90 3f 00 	lds	r0, 0x003F
    1b50:	0f 92       	push	r0
    1b52:	11 24       	eor	r1, r1
    1b54:	2f 93       	push	r18
    1b56:	3f 93       	push	r19
    1b58:	4f 93       	push	r20
    1b5a:	5f 93       	push	r21
    1b5c:	6f 93       	push	r22
    1b5e:	7f 93       	push	r23
    1b60:	8f 93       	push	r24
    1b62:	9f 93       	push	r25
    1b64:	af 93       	push	r26
    1b66:	bf 93       	push	r27
    1b68:	ef 93       	push	r30
    1b6a:	ff 93       	push	r31
    1b6c:	cf 93       	push	r28
    1b6e:	df 93       	push	r29
    1b70:	cd b7       	in	r28, 0x3d	; 61
    1b72:	de b7       	in	r29, 0x3e	; 62
    1b74:	80 91 2a 20 	lds	r24, 0x202A
    1b78:	90 91 2b 20 	lds	r25, 0x202B
    1b7c:	00 97       	sbiw	r24, 0x00	; 0
    1b7e:	31 f0       	breq	.+12     	; 0x1b8c <__vector_20+0x44>
    1b80:	80 91 2a 20 	lds	r24, 0x202A
    1b84:	90 91 2b 20 	lds	r25, 0x202B
    1b88:	fc 01       	movw	r30, r24
    1b8a:	09 95       	icall
    1b8c:	df 91       	pop	r29
    1b8e:	cf 91       	pop	r28
    1b90:	ff 91       	pop	r31
    1b92:	ef 91       	pop	r30
    1b94:	bf 91       	pop	r27
    1b96:	af 91       	pop	r26
    1b98:	9f 91       	pop	r25
    1b9a:	8f 91       	pop	r24
    1b9c:	7f 91       	pop	r23
    1b9e:	6f 91       	pop	r22
    1ba0:	5f 91       	pop	r21
    1ba2:	4f 91       	pop	r20
    1ba4:	3f 91       	pop	r19
    1ba6:	2f 91       	pop	r18
    1ba8:	0f 90       	pop	r0
    1baa:	00 92 3f 00 	sts	0x003F, r0
    1bae:	0f 90       	pop	r0
    1bb0:	1f 90       	pop	r1
    1bb2:	18 95       	reti

00001bb4 <__vector_21>:
    1bb4:	1f 92       	push	r1
    1bb6:	0f 92       	push	r0
    1bb8:	00 90 3f 00 	lds	r0, 0x003F
    1bbc:	0f 92       	push	r0
    1bbe:	11 24       	eor	r1, r1
    1bc0:	2f 93       	push	r18
    1bc2:	3f 93       	push	r19
    1bc4:	4f 93       	push	r20
    1bc6:	5f 93       	push	r21
    1bc8:	6f 93       	push	r22
    1bca:	7f 93       	push	r23
    1bcc:	8f 93       	push	r24
    1bce:	9f 93       	push	r25
    1bd0:	af 93       	push	r26
    1bd2:	bf 93       	push	r27
    1bd4:	ef 93       	push	r30
    1bd6:	ff 93       	push	r31
    1bd8:	cf 93       	push	r28
    1bda:	df 93       	push	r29
    1bdc:	cd b7       	in	r28, 0x3d	; 61
    1bde:	de b7       	in	r29, 0x3e	; 62
    1be0:	80 91 2c 20 	lds	r24, 0x202C
    1be4:	90 91 2d 20 	lds	r25, 0x202D
    1be8:	00 97       	sbiw	r24, 0x00	; 0
    1bea:	31 f0       	breq	.+12     	; 0x1bf8 <__vector_21+0x44>
    1bec:	80 91 2c 20 	lds	r24, 0x202C
    1bf0:	90 91 2d 20 	lds	r25, 0x202D
    1bf4:	fc 01       	movw	r30, r24
    1bf6:	09 95       	icall
    1bf8:	df 91       	pop	r29
    1bfa:	cf 91       	pop	r28
    1bfc:	ff 91       	pop	r31
    1bfe:	ef 91       	pop	r30
    1c00:	bf 91       	pop	r27
    1c02:	af 91       	pop	r26
    1c04:	9f 91       	pop	r25
    1c06:	8f 91       	pop	r24
    1c08:	7f 91       	pop	r23
    1c0a:	6f 91       	pop	r22
    1c0c:	5f 91       	pop	r21
    1c0e:	4f 91       	pop	r20
    1c10:	3f 91       	pop	r19
    1c12:	2f 91       	pop	r18
    1c14:	0f 90       	pop	r0
    1c16:	00 92 3f 00 	sts	0x003F, r0
    1c1a:	0f 90       	pop	r0
    1c1c:	1f 90       	pop	r1
    1c1e:	18 95       	reti

00001c20 <__vector_22>:
    1c20:	1f 92       	push	r1
    1c22:	0f 92       	push	r0
    1c24:	00 90 3f 00 	lds	r0, 0x003F
    1c28:	0f 92       	push	r0
    1c2a:	11 24       	eor	r1, r1
    1c2c:	2f 93       	push	r18
    1c2e:	3f 93       	push	r19
    1c30:	4f 93       	push	r20
    1c32:	5f 93       	push	r21
    1c34:	6f 93       	push	r22
    1c36:	7f 93       	push	r23
    1c38:	8f 93       	push	r24
    1c3a:	9f 93       	push	r25
    1c3c:	af 93       	push	r26
    1c3e:	bf 93       	push	r27
    1c40:	ef 93       	push	r30
    1c42:	ff 93       	push	r31
    1c44:	cf 93       	push	r28
    1c46:	df 93       	push	r29
    1c48:	cd b7       	in	r28, 0x3d	; 61
    1c4a:	de b7       	in	r29, 0x3e	; 62
    1c4c:	80 91 2e 20 	lds	r24, 0x202E
    1c50:	90 91 2f 20 	lds	r25, 0x202F
    1c54:	00 97       	sbiw	r24, 0x00	; 0
    1c56:	31 f0       	breq	.+12     	; 0x1c64 <__vector_22+0x44>
    1c58:	80 91 2e 20 	lds	r24, 0x202E
    1c5c:	90 91 2f 20 	lds	r25, 0x202F
    1c60:	fc 01       	movw	r30, r24
    1c62:	09 95       	icall
    1c64:	df 91       	pop	r29
    1c66:	cf 91       	pop	r28
    1c68:	ff 91       	pop	r31
    1c6a:	ef 91       	pop	r30
    1c6c:	bf 91       	pop	r27
    1c6e:	af 91       	pop	r26
    1c70:	9f 91       	pop	r25
    1c72:	8f 91       	pop	r24
    1c74:	7f 91       	pop	r23
    1c76:	6f 91       	pop	r22
    1c78:	5f 91       	pop	r21
    1c7a:	4f 91       	pop	r20
    1c7c:	3f 91       	pop	r19
    1c7e:	2f 91       	pop	r18
    1c80:	0f 90       	pop	r0
    1c82:	00 92 3f 00 	sts	0x003F, r0
    1c86:	0f 90       	pop	r0
    1c88:	1f 90       	pop	r1
    1c8a:	18 95       	reti

00001c8c <__vector_23>:
    1c8c:	1f 92       	push	r1
    1c8e:	0f 92       	push	r0
    1c90:	00 90 3f 00 	lds	r0, 0x003F
    1c94:	0f 92       	push	r0
    1c96:	11 24       	eor	r1, r1
    1c98:	2f 93       	push	r18
    1c9a:	3f 93       	push	r19
    1c9c:	4f 93       	push	r20
    1c9e:	5f 93       	push	r21
    1ca0:	6f 93       	push	r22
    1ca2:	7f 93       	push	r23
    1ca4:	8f 93       	push	r24
    1ca6:	9f 93       	push	r25
    1ca8:	af 93       	push	r26
    1caa:	bf 93       	push	r27
    1cac:	ef 93       	push	r30
    1cae:	ff 93       	push	r31
    1cb0:	cf 93       	push	r28
    1cb2:	df 93       	push	r29
    1cb4:	cd b7       	in	r28, 0x3d	; 61
    1cb6:	de b7       	in	r29, 0x3e	; 62
    1cb8:	80 91 30 20 	lds	r24, 0x2030
    1cbc:	90 91 31 20 	lds	r25, 0x2031
    1cc0:	00 97       	sbiw	r24, 0x00	; 0
    1cc2:	31 f0       	breq	.+12     	; 0x1cd0 <__vector_23+0x44>
    1cc4:	80 91 30 20 	lds	r24, 0x2030
    1cc8:	90 91 31 20 	lds	r25, 0x2031
    1ccc:	fc 01       	movw	r30, r24
    1cce:	09 95       	icall
    1cd0:	df 91       	pop	r29
    1cd2:	cf 91       	pop	r28
    1cd4:	ff 91       	pop	r31
    1cd6:	ef 91       	pop	r30
    1cd8:	bf 91       	pop	r27
    1cda:	af 91       	pop	r26
    1cdc:	9f 91       	pop	r25
    1cde:	8f 91       	pop	r24
    1ce0:	7f 91       	pop	r23
    1ce2:	6f 91       	pop	r22
    1ce4:	5f 91       	pop	r21
    1ce6:	4f 91       	pop	r20
    1ce8:	3f 91       	pop	r19
    1cea:	2f 91       	pop	r18
    1cec:	0f 90       	pop	r0
    1cee:	00 92 3f 00 	sts	0x003F, r0
    1cf2:	0f 90       	pop	r0
    1cf4:	1f 90       	pop	r1
    1cf6:	18 95       	reti

00001cf8 <__vector_77>:
    1cf8:	1f 92       	push	r1
    1cfa:	0f 92       	push	r0
    1cfc:	00 90 3f 00 	lds	r0, 0x003F
    1d00:	0f 92       	push	r0
    1d02:	11 24       	eor	r1, r1
    1d04:	2f 93       	push	r18
    1d06:	3f 93       	push	r19
    1d08:	4f 93       	push	r20
    1d0a:	5f 93       	push	r21
    1d0c:	6f 93       	push	r22
    1d0e:	7f 93       	push	r23
    1d10:	8f 93       	push	r24
    1d12:	9f 93       	push	r25
    1d14:	af 93       	push	r26
    1d16:	bf 93       	push	r27
    1d18:	ef 93       	push	r30
    1d1a:	ff 93       	push	r31
    1d1c:	cf 93       	push	r28
    1d1e:	df 93       	push	r29
    1d20:	cd b7       	in	r28, 0x3d	; 61
    1d22:	de b7       	in	r29, 0x3e	; 62
    1d24:	80 91 32 20 	lds	r24, 0x2032
    1d28:	90 91 33 20 	lds	r25, 0x2033
    1d2c:	00 97       	sbiw	r24, 0x00	; 0
    1d2e:	31 f0       	breq	.+12     	; 0x1d3c <__vector_77+0x44>
    1d30:	80 91 32 20 	lds	r24, 0x2032
    1d34:	90 91 33 20 	lds	r25, 0x2033
    1d38:	fc 01       	movw	r30, r24
    1d3a:	09 95       	icall
    1d3c:	df 91       	pop	r29
    1d3e:	cf 91       	pop	r28
    1d40:	ff 91       	pop	r31
    1d42:	ef 91       	pop	r30
    1d44:	bf 91       	pop	r27
    1d46:	af 91       	pop	r26
    1d48:	9f 91       	pop	r25
    1d4a:	8f 91       	pop	r24
    1d4c:	7f 91       	pop	r23
    1d4e:	6f 91       	pop	r22
    1d50:	5f 91       	pop	r21
    1d52:	4f 91       	pop	r20
    1d54:	3f 91       	pop	r19
    1d56:	2f 91       	pop	r18
    1d58:	0f 90       	pop	r0
    1d5a:	00 92 3f 00 	sts	0x003F, r0
    1d5e:	0f 90       	pop	r0
    1d60:	1f 90       	pop	r1
    1d62:	18 95       	reti

00001d64 <__vector_78>:
    1d64:	1f 92       	push	r1
    1d66:	0f 92       	push	r0
    1d68:	00 90 3f 00 	lds	r0, 0x003F
    1d6c:	0f 92       	push	r0
    1d6e:	11 24       	eor	r1, r1
    1d70:	2f 93       	push	r18
    1d72:	3f 93       	push	r19
    1d74:	4f 93       	push	r20
    1d76:	5f 93       	push	r21
    1d78:	6f 93       	push	r22
    1d7a:	7f 93       	push	r23
    1d7c:	8f 93       	push	r24
    1d7e:	9f 93       	push	r25
    1d80:	af 93       	push	r26
    1d82:	bf 93       	push	r27
    1d84:	ef 93       	push	r30
    1d86:	ff 93       	push	r31
    1d88:	cf 93       	push	r28
    1d8a:	df 93       	push	r29
    1d8c:	cd b7       	in	r28, 0x3d	; 61
    1d8e:	de b7       	in	r29, 0x3e	; 62
    1d90:	80 91 34 20 	lds	r24, 0x2034
    1d94:	90 91 35 20 	lds	r25, 0x2035
    1d98:	00 97       	sbiw	r24, 0x00	; 0
    1d9a:	31 f0       	breq	.+12     	; 0x1da8 <__vector_78+0x44>
    1d9c:	80 91 34 20 	lds	r24, 0x2034
    1da0:	90 91 35 20 	lds	r25, 0x2035
    1da4:	fc 01       	movw	r30, r24
    1da6:	09 95       	icall
    1da8:	df 91       	pop	r29
    1daa:	cf 91       	pop	r28
    1dac:	ff 91       	pop	r31
    1dae:	ef 91       	pop	r30
    1db0:	bf 91       	pop	r27
    1db2:	af 91       	pop	r26
    1db4:	9f 91       	pop	r25
    1db6:	8f 91       	pop	r24
    1db8:	7f 91       	pop	r23
    1dba:	6f 91       	pop	r22
    1dbc:	5f 91       	pop	r21
    1dbe:	4f 91       	pop	r20
    1dc0:	3f 91       	pop	r19
    1dc2:	2f 91       	pop	r18
    1dc4:	0f 90       	pop	r0
    1dc6:	00 92 3f 00 	sts	0x003F, r0
    1dca:	0f 90       	pop	r0
    1dcc:	1f 90       	pop	r1
    1dce:	18 95       	reti

00001dd0 <__vector_79>:
    1dd0:	1f 92       	push	r1
    1dd2:	0f 92       	push	r0
    1dd4:	00 90 3f 00 	lds	r0, 0x003F
    1dd8:	0f 92       	push	r0
    1dda:	11 24       	eor	r1, r1
    1ddc:	2f 93       	push	r18
    1dde:	3f 93       	push	r19
    1de0:	4f 93       	push	r20
    1de2:	5f 93       	push	r21
    1de4:	6f 93       	push	r22
    1de6:	7f 93       	push	r23
    1de8:	8f 93       	push	r24
    1dea:	9f 93       	push	r25
    1dec:	af 93       	push	r26
    1dee:	bf 93       	push	r27
    1df0:	ef 93       	push	r30
    1df2:	ff 93       	push	r31
    1df4:	cf 93       	push	r28
    1df6:	df 93       	push	r29
    1df8:	cd b7       	in	r28, 0x3d	; 61
    1dfa:	de b7       	in	r29, 0x3e	; 62
    1dfc:	80 91 36 20 	lds	r24, 0x2036
    1e00:	90 91 37 20 	lds	r25, 0x2037
    1e04:	00 97       	sbiw	r24, 0x00	; 0
    1e06:	31 f0       	breq	.+12     	; 0x1e14 <__vector_79+0x44>
    1e08:	80 91 36 20 	lds	r24, 0x2036
    1e0c:	90 91 37 20 	lds	r25, 0x2037
    1e10:	fc 01       	movw	r30, r24
    1e12:	09 95       	icall
    1e14:	df 91       	pop	r29
    1e16:	cf 91       	pop	r28
    1e18:	ff 91       	pop	r31
    1e1a:	ef 91       	pop	r30
    1e1c:	bf 91       	pop	r27
    1e1e:	af 91       	pop	r26
    1e20:	9f 91       	pop	r25
    1e22:	8f 91       	pop	r24
    1e24:	7f 91       	pop	r23
    1e26:	6f 91       	pop	r22
    1e28:	5f 91       	pop	r21
    1e2a:	4f 91       	pop	r20
    1e2c:	3f 91       	pop	r19
    1e2e:	2f 91       	pop	r18
    1e30:	0f 90       	pop	r0
    1e32:	00 92 3f 00 	sts	0x003F, r0
    1e36:	0f 90       	pop	r0
    1e38:	1f 90       	pop	r1
    1e3a:	18 95       	reti

00001e3c <__vector_80>:
    1e3c:	1f 92       	push	r1
    1e3e:	0f 92       	push	r0
    1e40:	00 90 3f 00 	lds	r0, 0x003F
    1e44:	0f 92       	push	r0
    1e46:	11 24       	eor	r1, r1
    1e48:	2f 93       	push	r18
    1e4a:	3f 93       	push	r19
    1e4c:	4f 93       	push	r20
    1e4e:	5f 93       	push	r21
    1e50:	6f 93       	push	r22
    1e52:	7f 93       	push	r23
    1e54:	8f 93       	push	r24
    1e56:	9f 93       	push	r25
    1e58:	af 93       	push	r26
    1e5a:	bf 93       	push	r27
    1e5c:	ef 93       	push	r30
    1e5e:	ff 93       	push	r31
    1e60:	cf 93       	push	r28
    1e62:	df 93       	push	r29
    1e64:	cd b7       	in	r28, 0x3d	; 61
    1e66:	de b7       	in	r29, 0x3e	; 62
    1e68:	80 91 38 20 	lds	r24, 0x2038
    1e6c:	90 91 39 20 	lds	r25, 0x2039
    1e70:	00 97       	sbiw	r24, 0x00	; 0
    1e72:	31 f0       	breq	.+12     	; 0x1e80 <__vector_80+0x44>
    1e74:	80 91 38 20 	lds	r24, 0x2038
    1e78:	90 91 39 20 	lds	r25, 0x2039
    1e7c:	fc 01       	movw	r30, r24
    1e7e:	09 95       	icall
    1e80:	df 91       	pop	r29
    1e82:	cf 91       	pop	r28
    1e84:	ff 91       	pop	r31
    1e86:	ef 91       	pop	r30
    1e88:	bf 91       	pop	r27
    1e8a:	af 91       	pop	r26
    1e8c:	9f 91       	pop	r25
    1e8e:	8f 91       	pop	r24
    1e90:	7f 91       	pop	r23
    1e92:	6f 91       	pop	r22
    1e94:	5f 91       	pop	r21
    1e96:	4f 91       	pop	r20
    1e98:	3f 91       	pop	r19
    1e9a:	2f 91       	pop	r18
    1e9c:	0f 90       	pop	r0
    1e9e:	00 92 3f 00 	sts	0x003F, r0
    1ea2:	0f 90       	pop	r0
    1ea4:	1f 90       	pop	r1
    1ea6:	18 95       	reti

00001ea8 <__vector_81>:
    1ea8:	1f 92       	push	r1
    1eaa:	0f 92       	push	r0
    1eac:	00 90 3f 00 	lds	r0, 0x003F
    1eb0:	0f 92       	push	r0
    1eb2:	11 24       	eor	r1, r1
    1eb4:	2f 93       	push	r18
    1eb6:	3f 93       	push	r19
    1eb8:	4f 93       	push	r20
    1eba:	5f 93       	push	r21
    1ebc:	6f 93       	push	r22
    1ebe:	7f 93       	push	r23
    1ec0:	8f 93       	push	r24
    1ec2:	9f 93       	push	r25
    1ec4:	af 93       	push	r26
    1ec6:	bf 93       	push	r27
    1ec8:	ef 93       	push	r30
    1eca:	ff 93       	push	r31
    1ecc:	cf 93       	push	r28
    1ece:	df 93       	push	r29
    1ed0:	cd b7       	in	r28, 0x3d	; 61
    1ed2:	de b7       	in	r29, 0x3e	; 62
    1ed4:	80 91 3a 20 	lds	r24, 0x203A
    1ed8:	90 91 3b 20 	lds	r25, 0x203B
    1edc:	00 97       	sbiw	r24, 0x00	; 0
    1ede:	31 f0       	breq	.+12     	; 0x1eec <__vector_81+0x44>
    1ee0:	80 91 3a 20 	lds	r24, 0x203A
    1ee4:	90 91 3b 20 	lds	r25, 0x203B
    1ee8:	fc 01       	movw	r30, r24
    1eea:	09 95       	icall
    1eec:	df 91       	pop	r29
    1eee:	cf 91       	pop	r28
    1ef0:	ff 91       	pop	r31
    1ef2:	ef 91       	pop	r30
    1ef4:	bf 91       	pop	r27
    1ef6:	af 91       	pop	r26
    1ef8:	9f 91       	pop	r25
    1efa:	8f 91       	pop	r24
    1efc:	7f 91       	pop	r23
    1efe:	6f 91       	pop	r22
    1f00:	5f 91       	pop	r21
    1f02:	4f 91       	pop	r20
    1f04:	3f 91       	pop	r19
    1f06:	2f 91       	pop	r18
    1f08:	0f 90       	pop	r0
    1f0a:	00 92 3f 00 	sts	0x003F, r0
    1f0e:	0f 90       	pop	r0
    1f10:	1f 90       	pop	r1
    1f12:	18 95       	reti

00001f14 <__vector_82>:
    1f14:	1f 92       	push	r1
    1f16:	0f 92       	push	r0
    1f18:	00 90 3f 00 	lds	r0, 0x003F
    1f1c:	0f 92       	push	r0
    1f1e:	11 24       	eor	r1, r1
    1f20:	2f 93       	push	r18
    1f22:	3f 93       	push	r19
    1f24:	4f 93       	push	r20
    1f26:	5f 93       	push	r21
    1f28:	6f 93       	push	r22
    1f2a:	7f 93       	push	r23
    1f2c:	8f 93       	push	r24
    1f2e:	9f 93       	push	r25
    1f30:	af 93       	push	r26
    1f32:	bf 93       	push	r27
    1f34:	ef 93       	push	r30
    1f36:	ff 93       	push	r31
    1f38:	cf 93       	push	r28
    1f3a:	df 93       	push	r29
    1f3c:	cd b7       	in	r28, 0x3d	; 61
    1f3e:	de b7       	in	r29, 0x3e	; 62
    1f40:	80 91 3c 20 	lds	r24, 0x203C
    1f44:	90 91 3d 20 	lds	r25, 0x203D
    1f48:	00 97       	sbiw	r24, 0x00	; 0
    1f4a:	31 f0       	breq	.+12     	; 0x1f58 <__vector_82+0x44>
    1f4c:	80 91 3c 20 	lds	r24, 0x203C
    1f50:	90 91 3d 20 	lds	r25, 0x203D
    1f54:	fc 01       	movw	r30, r24
    1f56:	09 95       	icall
    1f58:	df 91       	pop	r29
    1f5a:	cf 91       	pop	r28
    1f5c:	ff 91       	pop	r31
    1f5e:	ef 91       	pop	r30
    1f60:	bf 91       	pop	r27
    1f62:	af 91       	pop	r26
    1f64:	9f 91       	pop	r25
    1f66:	8f 91       	pop	r24
    1f68:	7f 91       	pop	r23
    1f6a:	6f 91       	pop	r22
    1f6c:	5f 91       	pop	r21
    1f6e:	4f 91       	pop	r20
    1f70:	3f 91       	pop	r19
    1f72:	2f 91       	pop	r18
    1f74:	0f 90       	pop	r0
    1f76:	00 92 3f 00 	sts	0x003F, r0
    1f7a:	0f 90       	pop	r0
    1f7c:	1f 90       	pop	r1
    1f7e:	18 95       	reti

00001f80 <__vector_83>:
    1f80:	1f 92       	push	r1
    1f82:	0f 92       	push	r0
    1f84:	00 90 3f 00 	lds	r0, 0x003F
    1f88:	0f 92       	push	r0
    1f8a:	11 24       	eor	r1, r1
    1f8c:	2f 93       	push	r18
    1f8e:	3f 93       	push	r19
    1f90:	4f 93       	push	r20
    1f92:	5f 93       	push	r21
    1f94:	6f 93       	push	r22
    1f96:	7f 93       	push	r23
    1f98:	8f 93       	push	r24
    1f9a:	9f 93       	push	r25
    1f9c:	af 93       	push	r26
    1f9e:	bf 93       	push	r27
    1fa0:	ef 93       	push	r30
    1fa2:	ff 93       	push	r31
    1fa4:	cf 93       	push	r28
    1fa6:	df 93       	push	r29
    1fa8:	cd b7       	in	r28, 0x3d	; 61
    1faa:	de b7       	in	r29, 0x3e	; 62
    1fac:	80 91 3e 20 	lds	r24, 0x203E
    1fb0:	90 91 3f 20 	lds	r25, 0x203F
    1fb4:	00 97       	sbiw	r24, 0x00	; 0
    1fb6:	31 f0       	breq	.+12     	; 0x1fc4 <__vector_83+0x44>
    1fb8:	80 91 3e 20 	lds	r24, 0x203E
    1fbc:	90 91 3f 20 	lds	r25, 0x203F
    1fc0:	fc 01       	movw	r30, r24
    1fc2:	09 95       	icall
    1fc4:	df 91       	pop	r29
    1fc6:	cf 91       	pop	r28
    1fc8:	ff 91       	pop	r31
    1fca:	ef 91       	pop	r30
    1fcc:	bf 91       	pop	r27
    1fce:	af 91       	pop	r26
    1fd0:	9f 91       	pop	r25
    1fd2:	8f 91       	pop	r24
    1fd4:	7f 91       	pop	r23
    1fd6:	6f 91       	pop	r22
    1fd8:	5f 91       	pop	r21
    1fda:	4f 91       	pop	r20
    1fdc:	3f 91       	pop	r19
    1fde:	2f 91       	pop	r18
    1fe0:	0f 90       	pop	r0
    1fe2:	00 92 3f 00 	sts	0x003F, r0
    1fe6:	0f 90       	pop	r0
    1fe8:	1f 90       	pop	r1
    1fea:	18 95       	reti

00001fec <__vector_84>:
    1fec:	1f 92       	push	r1
    1fee:	0f 92       	push	r0
    1ff0:	00 90 3f 00 	lds	r0, 0x003F
    1ff4:	0f 92       	push	r0
    1ff6:	11 24       	eor	r1, r1
    1ff8:	2f 93       	push	r18
    1ffa:	3f 93       	push	r19
    1ffc:	4f 93       	push	r20
    1ffe:	5f 93       	push	r21
    2000:	6f 93       	push	r22
    2002:	7f 93       	push	r23
    2004:	8f 93       	push	r24
    2006:	9f 93       	push	r25
    2008:	af 93       	push	r26
    200a:	bf 93       	push	r27
    200c:	ef 93       	push	r30
    200e:	ff 93       	push	r31
    2010:	cf 93       	push	r28
    2012:	df 93       	push	r29
    2014:	cd b7       	in	r28, 0x3d	; 61
    2016:	de b7       	in	r29, 0x3e	; 62
    2018:	80 91 40 20 	lds	r24, 0x2040
    201c:	90 91 41 20 	lds	r25, 0x2041
    2020:	00 97       	sbiw	r24, 0x00	; 0
    2022:	31 f0       	breq	.+12     	; 0x2030 <__vector_84+0x44>
    2024:	80 91 40 20 	lds	r24, 0x2040
    2028:	90 91 41 20 	lds	r25, 0x2041
    202c:	fc 01       	movw	r30, r24
    202e:	09 95       	icall
    2030:	df 91       	pop	r29
    2032:	cf 91       	pop	r28
    2034:	ff 91       	pop	r31
    2036:	ef 91       	pop	r30
    2038:	bf 91       	pop	r27
    203a:	af 91       	pop	r26
    203c:	9f 91       	pop	r25
    203e:	8f 91       	pop	r24
    2040:	7f 91       	pop	r23
    2042:	6f 91       	pop	r22
    2044:	5f 91       	pop	r21
    2046:	4f 91       	pop	r20
    2048:	3f 91       	pop	r19
    204a:	2f 91       	pop	r18
    204c:	0f 90       	pop	r0
    204e:	00 92 3f 00 	sts	0x003F, r0
    2052:	0f 90       	pop	r0
    2054:	1f 90       	pop	r1
    2056:	18 95       	reti

00002058 <__vector_85>:
    2058:	1f 92       	push	r1
    205a:	0f 92       	push	r0
    205c:	00 90 3f 00 	lds	r0, 0x003F
    2060:	0f 92       	push	r0
    2062:	11 24       	eor	r1, r1
    2064:	2f 93       	push	r18
    2066:	3f 93       	push	r19
    2068:	4f 93       	push	r20
    206a:	5f 93       	push	r21
    206c:	6f 93       	push	r22
    206e:	7f 93       	push	r23
    2070:	8f 93       	push	r24
    2072:	9f 93       	push	r25
    2074:	af 93       	push	r26
    2076:	bf 93       	push	r27
    2078:	ef 93       	push	r30
    207a:	ff 93       	push	r31
    207c:	cf 93       	push	r28
    207e:	df 93       	push	r29
    2080:	cd b7       	in	r28, 0x3d	; 61
    2082:	de b7       	in	r29, 0x3e	; 62
    2084:	80 91 42 20 	lds	r24, 0x2042
    2088:	90 91 43 20 	lds	r25, 0x2043
    208c:	00 97       	sbiw	r24, 0x00	; 0
    208e:	31 f0       	breq	.+12     	; 0x209c <__vector_85+0x44>
    2090:	80 91 42 20 	lds	r24, 0x2042
    2094:	90 91 43 20 	lds	r25, 0x2043
    2098:	fc 01       	movw	r30, r24
    209a:	09 95       	icall
    209c:	df 91       	pop	r29
    209e:	cf 91       	pop	r28
    20a0:	ff 91       	pop	r31
    20a2:	ef 91       	pop	r30
    20a4:	bf 91       	pop	r27
    20a6:	af 91       	pop	r26
    20a8:	9f 91       	pop	r25
    20aa:	8f 91       	pop	r24
    20ac:	7f 91       	pop	r23
    20ae:	6f 91       	pop	r22
    20b0:	5f 91       	pop	r21
    20b2:	4f 91       	pop	r20
    20b4:	3f 91       	pop	r19
    20b6:	2f 91       	pop	r18
    20b8:	0f 90       	pop	r0
    20ba:	00 92 3f 00 	sts	0x003F, r0
    20be:	0f 90       	pop	r0
    20c0:	1f 90       	pop	r1
    20c2:	18 95       	reti

000020c4 <__vector_86>:
    20c4:	1f 92       	push	r1
    20c6:	0f 92       	push	r0
    20c8:	00 90 3f 00 	lds	r0, 0x003F
    20cc:	0f 92       	push	r0
    20ce:	11 24       	eor	r1, r1
    20d0:	2f 93       	push	r18
    20d2:	3f 93       	push	r19
    20d4:	4f 93       	push	r20
    20d6:	5f 93       	push	r21
    20d8:	6f 93       	push	r22
    20da:	7f 93       	push	r23
    20dc:	8f 93       	push	r24
    20de:	9f 93       	push	r25
    20e0:	af 93       	push	r26
    20e2:	bf 93       	push	r27
    20e4:	ef 93       	push	r30
    20e6:	ff 93       	push	r31
    20e8:	cf 93       	push	r28
    20ea:	df 93       	push	r29
    20ec:	cd b7       	in	r28, 0x3d	; 61
    20ee:	de b7       	in	r29, 0x3e	; 62
    20f0:	80 91 44 20 	lds	r24, 0x2044
    20f4:	90 91 45 20 	lds	r25, 0x2045
    20f8:	00 97       	sbiw	r24, 0x00	; 0
    20fa:	31 f0       	breq	.+12     	; 0x2108 <__vector_86+0x44>
    20fc:	80 91 44 20 	lds	r24, 0x2044
    2100:	90 91 45 20 	lds	r25, 0x2045
    2104:	fc 01       	movw	r30, r24
    2106:	09 95       	icall
    2108:	df 91       	pop	r29
    210a:	cf 91       	pop	r28
    210c:	ff 91       	pop	r31
    210e:	ef 91       	pop	r30
    2110:	bf 91       	pop	r27
    2112:	af 91       	pop	r26
    2114:	9f 91       	pop	r25
    2116:	8f 91       	pop	r24
    2118:	7f 91       	pop	r23
    211a:	6f 91       	pop	r22
    211c:	5f 91       	pop	r21
    211e:	4f 91       	pop	r20
    2120:	3f 91       	pop	r19
    2122:	2f 91       	pop	r18
    2124:	0f 90       	pop	r0
    2126:	00 92 3f 00 	sts	0x003F, r0
    212a:	0f 90       	pop	r0
    212c:	1f 90       	pop	r1
    212e:	18 95       	reti

00002130 <__vector_47>:
    2130:	1f 92       	push	r1
    2132:	0f 92       	push	r0
    2134:	00 90 3f 00 	lds	r0, 0x003F
    2138:	0f 92       	push	r0
    213a:	11 24       	eor	r1, r1
    213c:	2f 93       	push	r18
    213e:	3f 93       	push	r19
    2140:	4f 93       	push	r20
    2142:	5f 93       	push	r21
    2144:	6f 93       	push	r22
    2146:	7f 93       	push	r23
    2148:	8f 93       	push	r24
    214a:	9f 93       	push	r25
    214c:	af 93       	push	r26
    214e:	bf 93       	push	r27
    2150:	ef 93       	push	r30
    2152:	ff 93       	push	r31
    2154:	cf 93       	push	r28
    2156:	df 93       	push	r29
    2158:	cd b7       	in	r28, 0x3d	; 61
    215a:	de b7       	in	r29, 0x3e	; 62
    215c:	80 91 46 20 	lds	r24, 0x2046
    2160:	90 91 47 20 	lds	r25, 0x2047
    2164:	00 97       	sbiw	r24, 0x00	; 0
    2166:	31 f0       	breq	.+12     	; 0x2174 <__vector_47+0x44>
    2168:	80 91 46 20 	lds	r24, 0x2046
    216c:	90 91 47 20 	lds	r25, 0x2047
    2170:	fc 01       	movw	r30, r24
    2172:	09 95       	icall
    2174:	df 91       	pop	r29
    2176:	cf 91       	pop	r28
    2178:	ff 91       	pop	r31
    217a:	ef 91       	pop	r30
    217c:	bf 91       	pop	r27
    217e:	af 91       	pop	r26
    2180:	9f 91       	pop	r25
    2182:	8f 91       	pop	r24
    2184:	7f 91       	pop	r23
    2186:	6f 91       	pop	r22
    2188:	5f 91       	pop	r21
    218a:	4f 91       	pop	r20
    218c:	3f 91       	pop	r19
    218e:	2f 91       	pop	r18
    2190:	0f 90       	pop	r0
    2192:	00 92 3f 00 	sts	0x003F, r0
    2196:	0f 90       	pop	r0
    2198:	1f 90       	pop	r1
    219a:	18 95       	reti

0000219c <__vector_48>:
    219c:	1f 92       	push	r1
    219e:	0f 92       	push	r0
    21a0:	00 90 3f 00 	lds	r0, 0x003F
    21a4:	0f 92       	push	r0
    21a6:	11 24       	eor	r1, r1
    21a8:	2f 93       	push	r18
    21aa:	3f 93       	push	r19
    21ac:	4f 93       	push	r20
    21ae:	5f 93       	push	r21
    21b0:	6f 93       	push	r22
    21b2:	7f 93       	push	r23
    21b4:	8f 93       	push	r24
    21b6:	9f 93       	push	r25
    21b8:	af 93       	push	r26
    21ba:	bf 93       	push	r27
    21bc:	ef 93       	push	r30
    21be:	ff 93       	push	r31
    21c0:	cf 93       	push	r28
    21c2:	df 93       	push	r29
    21c4:	cd b7       	in	r28, 0x3d	; 61
    21c6:	de b7       	in	r29, 0x3e	; 62
    21c8:	80 91 48 20 	lds	r24, 0x2048
    21cc:	90 91 49 20 	lds	r25, 0x2049
    21d0:	00 97       	sbiw	r24, 0x00	; 0
    21d2:	31 f0       	breq	.+12     	; 0x21e0 <__vector_48+0x44>
    21d4:	80 91 48 20 	lds	r24, 0x2048
    21d8:	90 91 49 20 	lds	r25, 0x2049
    21dc:	fc 01       	movw	r30, r24
    21de:	09 95       	icall
    21e0:	df 91       	pop	r29
    21e2:	cf 91       	pop	r28
    21e4:	ff 91       	pop	r31
    21e6:	ef 91       	pop	r30
    21e8:	bf 91       	pop	r27
    21ea:	af 91       	pop	r26
    21ec:	9f 91       	pop	r25
    21ee:	8f 91       	pop	r24
    21f0:	7f 91       	pop	r23
    21f2:	6f 91       	pop	r22
    21f4:	5f 91       	pop	r21
    21f6:	4f 91       	pop	r20
    21f8:	3f 91       	pop	r19
    21fa:	2f 91       	pop	r18
    21fc:	0f 90       	pop	r0
    21fe:	00 92 3f 00 	sts	0x003F, r0
    2202:	0f 90       	pop	r0
    2204:	1f 90       	pop	r1
    2206:	18 95       	reti

00002208 <__vector_49>:
    2208:	1f 92       	push	r1
    220a:	0f 92       	push	r0
    220c:	00 90 3f 00 	lds	r0, 0x003F
    2210:	0f 92       	push	r0
    2212:	11 24       	eor	r1, r1
    2214:	2f 93       	push	r18
    2216:	3f 93       	push	r19
    2218:	4f 93       	push	r20
    221a:	5f 93       	push	r21
    221c:	6f 93       	push	r22
    221e:	7f 93       	push	r23
    2220:	8f 93       	push	r24
    2222:	9f 93       	push	r25
    2224:	af 93       	push	r26
    2226:	bf 93       	push	r27
    2228:	ef 93       	push	r30
    222a:	ff 93       	push	r31
    222c:	cf 93       	push	r28
    222e:	df 93       	push	r29
    2230:	cd b7       	in	r28, 0x3d	; 61
    2232:	de b7       	in	r29, 0x3e	; 62
    2234:	80 91 4a 20 	lds	r24, 0x204A
    2238:	90 91 4b 20 	lds	r25, 0x204B
    223c:	00 97       	sbiw	r24, 0x00	; 0
    223e:	31 f0       	breq	.+12     	; 0x224c <__vector_49+0x44>
    2240:	80 91 4a 20 	lds	r24, 0x204A
    2244:	90 91 4b 20 	lds	r25, 0x204B
    2248:	fc 01       	movw	r30, r24
    224a:	09 95       	icall
    224c:	df 91       	pop	r29
    224e:	cf 91       	pop	r28
    2250:	ff 91       	pop	r31
    2252:	ef 91       	pop	r30
    2254:	bf 91       	pop	r27
    2256:	af 91       	pop	r26
    2258:	9f 91       	pop	r25
    225a:	8f 91       	pop	r24
    225c:	7f 91       	pop	r23
    225e:	6f 91       	pop	r22
    2260:	5f 91       	pop	r21
    2262:	4f 91       	pop	r20
    2264:	3f 91       	pop	r19
    2266:	2f 91       	pop	r18
    2268:	0f 90       	pop	r0
    226a:	00 92 3f 00 	sts	0x003F, r0
    226e:	0f 90       	pop	r0
    2270:	1f 90       	pop	r1
    2272:	18 95       	reti

00002274 <__vector_50>:
    2274:	1f 92       	push	r1
    2276:	0f 92       	push	r0
    2278:	00 90 3f 00 	lds	r0, 0x003F
    227c:	0f 92       	push	r0
    227e:	11 24       	eor	r1, r1
    2280:	2f 93       	push	r18
    2282:	3f 93       	push	r19
    2284:	4f 93       	push	r20
    2286:	5f 93       	push	r21
    2288:	6f 93       	push	r22
    228a:	7f 93       	push	r23
    228c:	8f 93       	push	r24
    228e:	9f 93       	push	r25
    2290:	af 93       	push	r26
    2292:	bf 93       	push	r27
    2294:	ef 93       	push	r30
    2296:	ff 93       	push	r31
    2298:	cf 93       	push	r28
    229a:	df 93       	push	r29
    229c:	cd b7       	in	r28, 0x3d	; 61
    229e:	de b7       	in	r29, 0x3e	; 62
    22a0:	80 91 4c 20 	lds	r24, 0x204C
    22a4:	90 91 4d 20 	lds	r25, 0x204D
    22a8:	00 97       	sbiw	r24, 0x00	; 0
    22aa:	31 f0       	breq	.+12     	; 0x22b8 <__vector_50+0x44>
    22ac:	80 91 4c 20 	lds	r24, 0x204C
    22b0:	90 91 4d 20 	lds	r25, 0x204D
    22b4:	fc 01       	movw	r30, r24
    22b6:	09 95       	icall
    22b8:	df 91       	pop	r29
    22ba:	cf 91       	pop	r28
    22bc:	ff 91       	pop	r31
    22be:	ef 91       	pop	r30
    22c0:	bf 91       	pop	r27
    22c2:	af 91       	pop	r26
    22c4:	9f 91       	pop	r25
    22c6:	8f 91       	pop	r24
    22c8:	7f 91       	pop	r23
    22ca:	6f 91       	pop	r22
    22cc:	5f 91       	pop	r21
    22ce:	4f 91       	pop	r20
    22d0:	3f 91       	pop	r19
    22d2:	2f 91       	pop	r18
    22d4:	0f 90       	pop	r0
    22d6:	00 92 3f 00 	sts	0x003F, r0
    22da:	0f 90       	pop	r0
    22dc:	1f 90       	pop	r1
    22de:	18 95       	reti

000022e0 <__vector_51>:
    22e0:	1f 92       	push	r1
    22e2:	0f 92       	push	r0
    22e4:	00 90 3f 00 	lds	r0, 0x003F
    22e8:	0f 92       	push	r0
    22ea:	11 24       	eor	r1, r1
    22ec:	2f 93       	push	r18
    22ee:	3f 93       	push	r19
    22f0:	4f 93       	push	r20
    22f2:	5f 93       	push	r21
    22f4:	6f 93       	push	r22
    22f6:	7f 93       	push	r23
    22f8:	8f 93       	push	r24
    22fa:	9f 93       	push	r25
    22fc:	af 93       	push	r26
    22fe:	bf 93       	push	r27
    2300:	ef 93       	push	r30
    2302:	ff 93       	push	r31
    2304:	cf 93       	push	r28
    2306:	df 93       	push	r29
    2308:	cd b7       	in	r28, 0x3d	; 61
    230a:	de b7       	in	r29, 0x3e	; 62
    230c:	80 91 4e 20 	lds	r24, 0x204E
    2310:	90 91 4f 20 	lds	r25, 0x204F
    2314:	00 97       	sbiw	r24, 0x00	; 0
    2316:	31 f0       	breq	.+12     	; 0x2324 <__vector_51+0x44>
    2318:	80 91 4e 20 	lds	r24, 0x204E
    231c:	90 91 4f 20 	lds	r25, 0x204F
    2320:	fc 01       	movw	r30, r24
    2322:	09 95       	icall
    2324:	df 91       	pop	r29
    2326:	cf 91       	pop	r28
    2328:	ff 91       	pop	r31
    232a:	ef 91       	pop	r30
    232c:	bf 91       	pop	r27
    232e:	af 91       	pop	r26
    2330:	9f 91       	pop	r25
    2332:	8f 91       	pop	r24
    2334:	7f 91       	pop	r23
    2336:	6f 91       	pop	r22
    2338:	5f 91       	pop	r21
    233a:	4f 91       	pop	r20
    233c:	3f 91       	pop	r19
    233e:	2f 91       	pop	r18
    2340:	0f 90       	pop	r0
    2342:	00 92 3f 00 	sts	0x003F, r0
    2346:	0f 90       	pop	r0
    2348:	1f 90       	pop	r1
    234a:	18 95       	reti

0000234c <__vector_52>:
    234c:	1f 92       	push	r1
    234e:	0f 92       	push	r0
    2350:	00 90 3f 00 	lds	r0, 0x003F
    2354:	0f 92       	push	r0
    2356:	11 24       	eor	r1, r1
    2358:	2f 93       	push	r18
    235a:	3f 93       	push	r19
    235c:	4f 93       	push	r20
    235e:	5f 93       	push	r21
    2360:	6f 93       	push	r22
    2362:	7f 93       	push	r23
    2364:	8f 93       	push	r24
    2366:	9f 93       	push	r25
    2368:	af 93       	push	r26
    236a:	bf 93       	push	r27
    236c:	ef 93       	push	r30
    236e:	ff 93       	push	r31
    2370:	cf 93       	push	r28
    2372:	df 93       	push	r29
    2374:	cd b7       	in	r28, 0x3d	; 61
    2376:	de b7       	in	r29, 0x3e	; 62
    2378:	80 91 50 20 	lds	r24, 0x2050
    237c:	90 91 51 20 	lds	r25, 0x2051
    2380:	00 97       	sbiw	r24, 0x00	; 0
    2382:	31 f0       	breq	.+12     	; 0x2390 <__vector_52+0x44>
    2384:	80 91 50 20 	lds	r24, 0x2050
    2388:	90 91 51 20 	lds	r25, 0x2051
    238c:	fc 01       	movw	r30, r24
    238e:	09 95       	icall
    2390:	df 91       	pop	r29
    2392:	cf 91       	pop	r28
    2394:	ff 91       	pop	r31
    2396:	ef 91       	pop	r30
    2398:	bf 91       	pop	r27
    239a:	af 91       	pop	r26
    239c:	9f 91       	pop	r25
    239e:	8f 91       	pop	r24
    23a0:	7f 91       	pop	r23
    23a2:	6f 91       	pop	r22
    23a4:	5f 91       	pop	r21
    23a6:	4f 91       	pop	r20
    23a8:	3f 91       	pop	r19
    23aa:	2f 91       	pop	r18
    23ac:	0f 90       	pop	r0
    23ae:	00 92 3f 00 	sts	0x003F, r0
    23b2:	0f 90       	pop	r0
    23b4:	1f 90       	pop	r1
    23b6:	18 95       	reti

000023b8 <tc_enable>:
    23b8:	cf 93       	push	r28
    23ba:	df 93       	push	r29
    23bc:	00 d0       	rcall	.+0      	; 0x23be <tc_enable+0x6>
    23be:	1f 92       	push	r1
    23c0:	cd b7       	in	r28, 0x3d	; 61
    23c2:	de b7       	in	r29, 0x3e	; 62
    23c4:	8a 83       	std	Y+2, r24	; 0x02
    23c6:	9b 83       	std	Y+3, r25	; 0x03
    23c8:	3c da       	rcall	.-2952   	; 0x1842 <cpu_irq_save>
    23ca:	89 83       	std	Y+1, r24	; 0x01
    23cc:	8a 81       	ldd	r24, Y+2	; 0x02
    23ce:	9b 81       	ldd	r25, Y+3	; 0x03
    23d0:	81 15       	cp	r24, r1
    23d2:	28 e0       	ldi	r18, 0x08	; 8
    23d4:	92 07       	cpc	r25, r18
    23d6:	59 f4       	brne	.+22     	; 0x23ee <tc_enable+0x36>
    23d8:	61 e0       	ldi	r22, 0x01	; 1
    23da:	83 e0       	ldi	r24, 0x03	; 3
    23dc:	90 e0       	ldi	r25, 0x00	; 0
    23de:	0e 94 19 09 	call	0x1232	; 0x1232 <sysclk_enable_module>
    23e2:	64 e0       	ldi	r22, 0x04	; 4
    23e4:	83 e0       	ldi	r24, 0x03	; 3
    23e6:	90 e0       	ldi	r25, 0x00	; 0
    23e8:	0e 94 19 09 	call	0x1232	; 0x1232 <sysclk_enable_module>
    23ec:	47 c0       	rjmp	.+142    	; 0x247c <tc_enable+0xc4>
    23ee:	8a 81       	ldd	r24, Y+2	; 0x02
    23f0:	9b 81       	ldd	r25, Y+3	; 0x03
    23f2:	80 34       	cpi	r24, 0x40	; 64
    23f4:	28 e0       	ldi	r18, 0x08	; 8
    23f6:	92 07       	cpc	r25, r18
    23f8:	59 f4       	brne	.+22     	; 0x2410 <tc_enable+0x58>
    23fa:	62 e0       	ldi	r22, 0x02	; 2
    23fc:	83 e0       	ldi	r24, 0x03	; 3
    23fe:	90 e0       	ldi	r25, 0x00	; 0
    2400:	0e 94 19 09 	call	0x1232	; 0x1232 <sysclk_enable_module>
    2404:	64 e0       	ldi	r22, 0x04	; 4
    2406:	83 e0       	ldi	r24, 0x03	; 3
    2408:	90 e0       	ldi	r25, 0x00	; 0
    240a:	0e 94 19 09 	call	0x1232	; 0x1232 <sysclk_enable_module>
    240e:	36 c0       	rjmp	.+108    	; 0x247c <tc_enable+0xc4>
    2410:	8a 81       	ldd	r24, Y+2	; 0x02
    2412:	9b 81       	ldd	r25, Y+3	; 0x03
    2414:	81 15       	cp	r24, r1
    2416:	29 e0       	ldi	r18, 0x09	; 9
    2418:	92 07       	cpc	r25, r18
    241a:	59 f4       	brne	.+22     	; 0x2432 <tc_enable+0x7a>
    241c:	61 e0       	ldi	r22, 0x01	; 1
    241e:	84 e0       	ldi	r24, 0x04	; 4
    2420:	90 e0       	ldi	r25, 0x00	; 0
    2422:	0e 94 19 09 	call	0x1232	; 0x1232 <sysclk_enable_module>
    2426:	64 e0       	ldi	r22, 0x04	; 4
    2428:	84 e0       	ldi	r24, 0x04	; 4
    242a:	90 e0       	ldi	r25, 0x00	; 0
    242c:	0e 94 19 09 	call	0x1232	; 0x1232 <sysclk_enable_module>
    2430:	25 c0       	rjmp	.+74     	; 0x247c <tc_enable+0xc4>
    2432:	8a 81       	ldd	r24, Y+2	; 0x02
    2434:	9b 81       	ldd	r25, Y+3	; 0x03
    2436:	80 34       	cpi	r24, 0x40	; 64
    2438:	29 e0       	ldi	r18, 0x09	; 9
    243a:	92 07       	cpc	r25, r18
    243c:	59 f4       	brne	.+22     	; 0x2454 <tc_enable+0x9c>
    243e:	62 e0       	ldi	r22, 0x02	; 2
    2440:	84 e0       	ldi	r24, 0x04	; 4
    2442:	90 e0       	ldi	r25, 0x00	; 0
    2444:	0e 94 19 09 	call	0x1232	; 0x1232 <sysclk_enable_module>
    2448:	64 e0       	ldi	r22, 0x04	; 4
    244a:	84 e0       	ldi	r24, 0x04	; 4
    244c:	90 e0       	ldi	r25, 0x00	; 0
    244e:	0e 94 19 09 	call	0x1232	; 0x1232 <sysclk_enable_module>
    2452:	14 c0       	rjmp	.+40     	; 0x247c <tc_enable+0xc4>
    2454:	8a 81       	ldd	r24, Y+2	; 0x02
    2456:	9b 81       	ldd	r25, Y+3	; 0x03
    2458:	81 15       	cp	r24, r1
    245a:	2a e0       	ldi	r18, 0x0A	; 10
    245c:	92 07       	cpc	r25, r18
    245e:	59 f4       	brne	.+22     	; 0x2476 <tc_enable+0xbe>
    2460:	61 e0       	ldi	r22, 0x01	; 1
    2462:	85 e0       	ldi	r24, 0x05	; 5
    2464:	90 e0       	ldi	r25, 0x00	; 0
    2466:	0e 94 19 09 	call	0x1232	; 0x1232 <sysclk_enable_module>
    246a:	64 e0       	ldi	r22, 0x04	; 4
    246c:	85 e0       	ldi	r24, 0x05	; 5
    246e:	90 e0       	ldi	r25, 0x00	; 0
    2470:	0e 94 19 09 	call	0x1232	; 0x1232 <sysclk_enable_module>
    2474:	03 c0       	rjmp	.+6      	; 0x247c <tc_enable+0xc4>
    2476:	89 81       	ldd	r24, Y+1	; 0x01
    2478:	f4 d9       	rcall	.-3096   	; 0x1862 <cpu_irq_restore>
    247a:	05 c0       	rjmp	.+10     	; 0x2486 <tc_enable+0xce>
    247c:	81 e0       	ldi	r24, 0x01	; 1
    247e:	90 e0       	ldi	r25, 0x00	; 0
    2480:	ff d9       	rcall	.-3074   	; 0x1880 <sleepmgr_lock_mode>
    2482:	89 81       	ldd	r24, Y+1	; 0x01
    2484:	ee d9       	rcall	.-3108   	; 0x1862 <cpu_irq_restore>
    2486:	23 96       	adiw	r28, 0x03	; 3
    2488:	cd bf       	out	0x3d, r28	; 61
    248a:	de bf       	out	0x3e, r29	; 62
    248c:	df 91       	pop	r29
    248e:	cf 91       	pop	r28
    2490:	08 95       	ret

00002492 <tc_set_overflow_interrupt_callback>:

void tc_set_overflow_interrupt_callback(volatile void *tc,
		tc_callback_t callback)
{
    2492:	cf 93       	push	r28
    2494:	df 93       	push	r29
    2496:	00 d0       	rcall	.+0      	; 0x2498 <tc_set_overflow_interrupt_callback+0x6>
    2498:	00 d0       	rcall	.+0      	; 0x249a <tc_set_overflow_interrupt_callback+0x8>
    249a:	cd b7       	in	r28, 0x3d	; 61
    249c:	de b7       	in	r29, 0x3e	; 62
    249e:	89 83       	std	Y+1, r24	; 0x01
    24a0:	9a 83       	std	Y+2, r25	; 0x02
    24a2:	6b 83       	std	Y+3, r22	; 0x03
    24a4:	7c 83       	std	Y+4, r23	; 0x04
#ifdef TCC0
	if ((uintptr_t) tc == (uintptr_t) & TCC0) {
    24a6:	89 81       	ldd	r24, Y+1	; 0x01
    24a8:	9a 81       	ldd	r25, Y+2	; 0x02
    24aa:	81 15       	cp	r24, r1
    24ac:	28 e0       	ldi	r18, 0x08	; 8
    24ae:	92 07       	cpc	r25, r18
    24b0:	39 f4       	brne	.+14     	; 0x24c0 <tc_set_overflow_interrupt_callback+0x2e>
		tc_tcc0_ovf_callback = callback;
    24b2:	8b 81       	ldd	r24, Y+3	; 0x03
    24b4:	9c 81       	ldd	r25, Y+4	; 0x04
    24b6:	80 93 1e 20 	sts	0x201E, r24
    24ba:	90 93 1f 20 	sts	0x201F, r25
    24be:	33 c0       	rjmp	.+102    	; 0x2526 <tc_set_overflow_interrupt_callback+0x94>
	} else
#endif
#ifdef TCC1
	if ((uintptr_t) tc == (uintptr_t) & TCC1) {
    24c0:	89 81       	ldd	r24, Y+1	; 0x01
    24c2:	9a 81       	ldd	r25, Y+2	; 0x02
    24c4:	80 34       	cpi	r24, 0x40	; 64
    24c6:	28 e0       	ldi	r18, 0x08	; 8
    24c8:	92 07       	cpc	r25, r18
    24ca:	39 f4       	brne	.+14     	; 0x24da <tc_set_overflow_interrupt_callback+0x48>
		tc_tcc1_ovf_callback = callback;
    24cc:	8b 81       	ldd	r24, Y+3	; 0x03
    24ce:	9c 81       	ldd	r25, Y+4	; 0x04
    24d0:	80 93 2a 20 	sts	0x202A, r24
    24d4:	90 93 2b 20 	sts	0x202B, r25
    24d8:	26 c0       	rjmp	.+76     	; 0x2526 <tc_set_overflow_interrupt_callback+0x94>
	} else
#endif
#ifdef TCD0
	if ((uintptr_t) tc == (uintptr_t) & TCD0) {
    24da:	89 81       	ldd	r24, Y+1	; 0x01
    24dc:	9a 81       	ldd	r25, Y+2	; 0x02
    24de:	81 15       	cp	r24, r1
    24e0:	29 e0       	ldi	r18, 0x09	; 9
    24e2:	92 07       	cpc	r25, r18
    24e4:	39 f4       	brne	.+14     	; 0x24f4 <tc_set_overflow_interrupt_callback+0x62>
		tc_tcd0_ovf_callback = callback;
    24e6:	8b 81       	ldd	r24, Y+3	; 0x03
    24e8:	9c 81       	ldd	r25, Y+4	; 0x04
    24ea:	80 93 32 20 	sts	0x2032, r24
    24ee:	90 93 33 20 	sts	0x2033, r25
    24f2:	19 c0       	rjmp	.+50     	; 0x2526 <tc_set_overflow_interrupt_callback+0x94>
	} else
#endif
#ifdef TCD1
	if ((uintptr_t) tc == (uintptr_t) & TCD1) {
    24f4:	89 81       	ldd	r24, Y+1	; 0x01
    24f6:	9a 81       	ldd	r25, Y+2	; 0x02
    24f8:	80 34       	cpi	r24, 0x40	; 64
    24fa:	29 e0       	ldi	r18, 0x09	; 9
    24fc:	92 07       	cpc	r25, r18
    24fe:	39 f4       	brne	.+14     	; 0x250e <tc_set_overflow_interrupt_callback+0x7c>
		tc_tcd1_ovf_callback = callback;
    2500:	8b 81       	ldd	r24, Y+3	; 0x03
    2502:	9c 81       	ldd	r25, Y+4	; 0x04
    2504:	80 93 3e 20 	sts	0x203E, r24
    2508:	90 93 3f 20 	sts	0x203F, r25
    250c:	0c c0       	rjmp	.+24     	; 0x2526 <tc_set_overflow_interrupt_callback+0x94>
	} else
#endif
#ifdef TCE0
	if ((uintptr_t) tc == (uintptr_t) & TCE0) {
    250e:	89 81       	ldd	r24, Y+1	; 0x01
    2510:	9a 81       	ldd	r25, Y+2	; 0x02
    2512:	81 15       	cp	r24, r1
    2514:	2a e0       	ldi	r18, 0x0A	; 10
    2516:	92 07       	cpc	r25, r18
    2518:	31 f4       	brne	.+12     	; 0x2526 <tc_set_overflow_interrupt_callback+0x94>
		tc_tce0_ovf_callback = callback;
    251a:	8b 81       	ldd	r24, Y+3	; 0x03
    251c:	9c 81       	ldd	r25, Y+4	; 0x04
    251e:	80 93 46 20 	sts	0x2046, r24
    2522:	90 93 47 20 	sts	0x2047, r25
	if ((uintptr_t) tc == (uintptr_t) & TCF1) {
		tc_tcf1_ovf_callback = callback;
	} else
#endif
	{}
}
    2526:	24 96       	adiw	r28, 0x04	; 4
    2528:	cd bf       	out	0x3d, r28	; 61
    252a:	de bf       	out	0x3e, r29	; 62
    252c:	df 91       	pop	r29
    252e:	cf 91       	pop	r28
    2530:	08 95       	ret

00002532 <usart_rx_enable>:

	if (baud_offset != USART_BAUD_UNDEFINED) {
		(usart)->BAUDCTRLB = (uint8_t)((uint16_t)baudctrl);
		(usart)->BAUDCTRLA = (uint8_t)((uint16_t)baudctrl >> 8);
	}
}
    2532:	cf 93       	push	r28
    2534:	df 93       	push	r29
    2536:	00 d0       	rcall	.+0      	; 0x2538 <usart_rx_enable+0x6>
    2538:	cd b7       	in	r28, 0x3d	; 61
    253a:	de b7       	in	r29, 0x3e	; 62
    253c:	89 83       	std	Y+1, r24	; 0x01
    253e:	9a 83       	std	Y+2, r25	; 0x02
    2540:	89 81       	ldd	r24, Y+1	; 0x01
    2542:	9a 81       	ldd	r25, Y+2	; 0x02
    2544:	fc 01       	movw	r30, r24
    2546:	84 81       	ldd	r24, Z+4	; 0x04
    2548:	28 2f       	mov	r18, r24
    254a:	20 61       	ori	r18, 0x10	; 16
    254c:	89 81       	ldd	r24, Y+1	; 0x01
    254e:	9a 81       	ldd	r25, Y+2	; 0x02
    2550:	fc 01       	movw	r30, r24
    2552:	24 83       	std	Z+4, r18	; 0x04
    2554:	0f 90       	pop	r0
    2556:	0f 90       	pop	r0
    2558:	df 91       	pop	r29
    255a:	cf 91       	pop	r28
    255c:	08 95       	ret

0000255e <usart_format_set>:
    255e:	cf 93       	push	r28
    2560:	df 93       	push	r29
    2562:	cd b7       	in	r28, 0x3d	; 61
    2564:	de b7       	in	r29, 0x3e	; 62
    2566:	27 97       	sbiw	r28, 0x07	; 7
    2568:	cd bf       	out	0x3d, r28	; 61
    256a:	de bf       	out	0x3e, r29	; 62
    256c:	89 83       	std	Y+1, r24	; 0x01
    256e:	9a 83       	std	Y+2, r25	; 0x02
    2570:	6b 83       	std	Y+3, r22	; 0x03
    2572:	7c 83       	std	Y+4, r23	; 0x04
    2574:	4d 83       	std	Y+5, r20	; 0x05
    2576:	5e 83       	std	Y+6, r21	; 0x06
    2578:	2f 83       	std	Y+7, r18	; 0x07
    257a:	9b 81       	ldd	r25, Y+3	; 0x03
    257c:	8d 81       	ldd	r24, Y+5	; 0x05
    257e:	98 2b       	or	r25, r24
    2580:	8f 81       	ldd	r24, Y+7	; 0x07
    2582:	88 23       	and	r24, r24
    2584:	11 f0       	breq	.+4      	; 0x258a <usart_format_set+0x2c>
    2586:	88 e0       	ldi	r24, 0x08	; 8
    2588:	01 c0       	rjmp	.+2      	; 0x258c <usart_format_set+0x2e>
    258a:	80 e0       	ldi	r24, 0x00	; 0
    258c:	29 2f       	mov	r18, r25
    258e:	28 2b       	or	r18, r24
    2590:	89 81       	ldd	r24, Y+1	; 0x01
    2592:	9a 81       	ldd	r25, Y+2	; 0x02
    2594:	fc 01       	movw	r30, r24
    2596:	25 83       	std	Z+5, r18	; 0x05
    2598:	27 96       	adiw	r28, 0x07	; 7
    259a:	cd bf       	out	0x3d, r28	; 61
    259c:	de bf       	out	0x3e, r29	; 62
    259e:	df 91       	pop	r29
    25a0:	cf 91       	pop	r28
    25a2:	08 95       	ret

000025a4 <usart_tx_enable>:
    25a4:	cf 93       	push	r28
    25a6:	df 93       	push	r29
    25a8:	00 d0       	rcall	.+0      	; 0x25aa <usart_tx_enable+0x6>
    25aa:	cd b7       	in	r28, 0x3d	; 61
    25ac:	de b7       	in	r29, 0x3e	; 62
    25ae:	89 83       	std	Y+1, r24	; 0x01
    25b0:	9a 83       	std	Y+2, r25	; 0x02
    25b2:	89 81       	ldd	r24, Y+1	; 0x01
    25b4:	9a 81       	ldd	r25, Y+2	; 0x02
    25b6:	fc 01       	movw	r30, r24
    25b8:	84 81       	ldd	r24, Z+4	; 0x04
    25ba:	28 2f       	mov	r18, r24
    25bc:	28 60       	ori	r18, 0x08	; 8
    25be:	89 81       	ldd	r24, Y+1	; 0x01
    25c0:	9a 81       	ldd	r25, Y+2	; 0x02
    25c2:	fc 01       	movw	r30, r24
    25c4:	24 83       	std	Z+4, r18	; 0x04
    25c6:	0f 90       	pop	r0
    25c8:	0f 90       	pop	r0
    25ca:	df 91       	pop	r29
    25cc:	cf 91       	pop	r28
    25ce:	08 95       	ret

000025d0 <usart_set_mode>:
    25d0:	cf 93       	push	r28
    25d2:	df 93       	push	r29
    25d4:	00 d0       	rcall	.+0      	; 0x25d6 <usart_set_mode+0x6>
    25d6:	00 d0       	rcall	.+0      	; 0x25d8 <usart_set_mode+0x8>
    25d8:	cd b7       	in	r28, 0x3d	; 61
    25da:	de b7       	in	r29, 0x3e	; 62
    25dc:	89 83       	std	Y+1, r24	; 0x01
    25de:	9a 83       	std	Y+2, r25	; 0x02
    25e0:	6b 83       	std	Y+3, r22	; 0x03
    25e2:	7c 83       	std	Y+4, r23	; 0x04
    25e4:	89 81       	ldd	r24, Y+1	; 0x01
    25e6:	9a 81       	ldd	r25, Y+2	; 0x02
    25e8:	fc 01       	movw	r30, r24
    25ea:	85 81       	ldd	r24, Z+5	; 0x05
    25ec:	98 2f       	mov	r25, r24
    25ee:	9f 73       	andi	r25, 0x3F	; 63
    25f0:	8b 81       	ldd	r24, Y+3	; 0x03
    25f2:	29 2f       	mov	r18, r25
    25f4:	28 2b       	or	r18, r24
    25f6:	89 81       	ldd	r24, Y+1	; 0x01
    25f8:	9a 81       	ldd	r25, Y+2	; 0x02
    25fa:	fc 01       	movw	r30, r24
    25fc:	25 83       	std	Z+5, r18	; 0x05
    25fe:	24 96       	adiw	r28, 0x04	; 4
    2600:	cd bf       	out	0x3d, r28	; 61
    2602:	de bf       	out	0x3e, r29	; 62
    2604:	df 91       	pop	r29
    2606:	cf 91       	pop	r28
    2608:	08 95       	ret

0000260a <usart_data_register_is_empty>:
    260a:	cf 93       	push	r28
    260c:	df 93       	push	r29
    260e:	00 d0       	rcall	.+0      	; 0x2610 <usart_data_register_is_empty+0x6>
    2610:	cd b7       	in	r28, 0x3d	; 61
    2612:	de b7       	in	r29, 0x3e	; 62
    2614:	89 83       	std	Y+1, r24	; 0x01
    2616:	9a 83       	std	Y+2, r25	; 0x02
    2618:	89 81       	ldd	r24, Y+1	; 0x01
    261a:	9a 81       	ldd	r25, Y+2	; 0x02
    261c:	fc 01       	movw	r30, r24
    261e:	81 81       	ldd	r24, Z+1	; 0x01
    2620:	88 2f       	mov	r24, r24
    2622:	90 e0       	ldi	r25, 0x00	; 0
    2624:	80 72       	andi	r24, 0x20	; 32
    2626:	99 27       	eor	r25, r25
    2628:	21 e0       	ldi	r18, 0x01	; 1
    262a:	00 97       	sbiw	r24, 0x00	; 0
    262c:	09 f4       	brne	.+2      	; 0x2630 <usart_data_register_is_empty+0x26>
    262e:	20 e0       	ldi	r18, 0x00	; 0
    2630:	82 2f       	mov	r24, r18
    2632:	0f 90       	pop	r0
    2634:	0f 90       	pop	r0
    2636:	df 91       	pop	r29
    2638:	cf 91       	pop	r28
    263a:	08 95       	ret

0000263c <usart_rx_is_complete>:
    263c:	cf 93       	push	r28
    263e:	df 93       	push	r29
    2640:	00 d0       	rcall	.+0      	; 0x2642 <usart_rx_is_complete+0x6>
    2642:	cd b7       	in	r28, 0x3d	; 61
    2644:	de b7       	in	r29, 0x3e	; 62
    2646:	89 83       	std	Y+1, r24	; 0x01
    2648:	9a 83       	std	Y+2, r25	; 0x02
    264a:	89 81       	ldd	r24, Y+1	; 0x01
    264c:	9a 81       	ldd	r25, Y+2	; 0x02
    264e:	fc 01       	movw	r30, r24
    2650:	81 81       	ldd	r24, Z+1	; 0x01
    2652:	88 2f       	mov	r24, r24
    2654:	90 e0       	ldi	r25, 0x00	; 0
    2656:	80 78       	andi	r24, 0x80	; 128
    2658:	99 27       	eor	r25, r25
    265a:	21 e0       	ldi	r18, 0x01	; 1
    265c:	00 97       	sbiw	r24, 0x00	; 0
    265e:	09 f4       	brne	.+2      	; 0x2662 <usart_rx_is_complete+0x26>
    2660:	20 e0       	ldi	r18, 0x00	; 0
    2662:	82 2f       	mov	r24, r18
    2664:	0f 90       	pop	r0
    2666:	0f 90       	pop	r0
    2668:	df 91       	pop	r29
    266a:	cf 91       	pop	r28
    266c:	08 95       	ret

0000266e <sysclk_get_main_hz>:
    266e:	cf 93       	push	r28
    2670:	df 93       	push	r29
    2672:	cd b7       	in	r28, 0x3d	; 61
    2674:	de b7       	in	r29, 0x3e	; 62
    2676:	80 e0       	ldi	r24, 0x00	; 0
    2678:	98 e4       	ldi	r25, 0x48	; 72
    267a:	a8 ee       	ldi	r26, 0xE8	; 232
    267c:	b1 e0       	ldi	r27, 0x01	; 1
    267e:	bc 01       	movw	r22, r24
    2680:	cd 01       	movw	r24, r26
    2682:	df 91       	pop	r29
    2684:	cf 91       	pop	r28
    2686:	08 95       	ret

00002688 <sysclk_get_per4_hz>:
    2688:	cf 93       	push	r28
    268a:	df 93       	push	r29
    268c:	1f 92       	push	r1
    268e:	cd b7       	in	r28, 0x3d	; 61
    2690:	de b7       	in	r29, 0x3e	; 62
    2692:	19 82       	std	Y+1, r1	; 0x01
    2694:	ec df       	rcall	.-40     	; 0x266e <sysclk_get_main_hz>
    2696:	dc 01       	movw	r26, r24
    2698:	cb 01       	movw	r24, r22
    269a:	29 81       	ldd	r18, Y+1	; 0x01
    269c:	22 2f       	mov	r18, r18
    269e:	30 e0       	ldi	r19, 0x00	; 0
    26a0:	02 2e       	mov	r0, r18
    26a2:	04 c0       	rjmp	.+8      	; 0x26ac <sysclk_get_per4_hz+0x24>
    26a4:	b6 95       	lsr	r27
    26a6:	a7 95       	ror	r26
    26a8:	97 95       	ror	r25
    26aa:	87 95       	ror	r24
    26ac:	0a 94       	dec	r0
    26ae:	d2 f7       	brpl	.-12     	; 0x26a4 <sysclk_get_per4_hz+0x1c>
    26b0:	bc 01       	movw	r22, r24
    26b2:	cd 01       	movw	r24, r26
    26b4:	0f 90       	pop	r0
    26b6:	df 91       	pop	r29
    26b8:	cf 91       	pop	r28
    26ba:	08 95       	ret

000026bc <sysclk_get_per2_hz>:
    26bc:	cf 93       	push	r28
    26be:	df 93       	push	r29
    26c0:	cd b7       	in	r28, 0x3d	; 61
    26c2:	de b7       	in	r29, 0x3e	; 62
    26c4:	e1 df       	rcall	.-62     	; 0x2688 <sysclk_get_per4_hz>
    26c6:	dc 01       	movw	r26, r24
    26c8:	cb 01       	movw	r24, r22
    26ca:	bc 01       	movw	r22, r24
    26cc:	cd 01       	movw	r24, r26
    26ce:	df 91       	pop	r29
    26d0:	cf 91       	pop	r28
    26d2:	08 95       	ret

000026d4 <sysclk_get_per_hz>:
    26d4:	cf 93       	push	r28
    26d6:	df 93       	push	r29
    26d8:	cd b7       	in	r28, 0x3d	; 61
    26da:	de b7       	in	r29, 0x3e	; 62
    26dc:	ef df       	rcall	.-34     	; 0x26bc <sysclk_get_per2_hz>
    26de:	dc 01       	movw	r26, r24
    26e0:	cb 01       	movw	r24, r22
    26e2:	bc 01       	movw	r22, r24
    26e4:	cd 01       	movw	r24, r26
    26e6:	df 91       	pop	r29
    26e8:	cf 91       	pop	r28
    26ea:	08 95       	ret

000026ec <sysclk_enable_peripheral_clock>:
    26ec:	cf 93       	push	r28
    26ee:	df 93       	push	r29
    26f0:	00 d0       	rcall	.+0      	; 0x26f2 <sysclk_enable_peripheral_clock+0x6>
    26f2:	cd b7       	in	r28, 0x3d	; 61
    26f4:	de b7       	in	r29, 0x3e	; 62
    26f6:	89 83       	std	Y+1, r24	; 0x01
    26f8:	9a 83       	std	Y+2, r25	; 0x02
    26fa:	89 81       	ldd	r24, Y+1	; 0x01
    26fc:	9a 81       	ldd	r25, Y+2	; 0x02
    26fe:	00 97       	sbiw	r24, 0x00	; 0
    2700:	09 f4       	brne	.+2      	; 0x2704 <sysclk_enable_peripheral_clock+0x18>
    2702:	1e c1       	rjmp	.+572    	; 0x2940 <sysclk_enable_peripheral_clock+0x254>
    2704:	89 81       	ldd	r24, Y+1	; 0x01
    2706:	9a 81       	ldd	r25, Y+2	; 0x02
    2708:	80 3c       	cpi	r24, 0xC0	; 192
    270a:	91 05       	cpc	r25, r1
    270c:	31 f4       	brne	.+12     	; 0x271a <sysclk_enable_peripheral_clock+0x2e>
    270e:	60 e1       	ldi	r22, 0x10	; 16
    2710:	80 e0       	ldi	r24, 0x00	; 0
    2712:	90 e0       	ldi	r25, 0x00	; 0
    2714:	0e 94 19 09 	call	0x1232	; 0x1232 <sysclk_enable_module>
    2718:	13 c1       	rjmp	.+550    	; 0x2940 <sysclk_enable_peripheral_clock+0x254>
    271a:	89 81       	ldd	r24, Y+1	; 0x01
    271c:	9a 81       	ldd	r25, Y+2	; 0x02
    271e:	81 15       	cp	r24, r1
    2720:	24 e0       	ldi	r18, 0x04	; 4
    2722:	92 07       	cpc	r25, r18
    2724:	31 f4       	brne	.+12     	; 0x2732 <sysclk_enable_peripheral_clock+0x46>
    2726:	64 e0       	ldi	r22, 0x04	; 4
    2728:	80 e0       	ldi	r24, 0x00	; 0
    272a:	90 e0       	ldi	r25, 0x00	; 0
    272c:	0e 94 19 09 	call	0x1232	; 0x1232 <sysclk_enable_module>
    2730:	07 c1       	rjmp	.+526    	; 0x2940 <sysclk_enable_peripheral_clock+0x254>
    2732:	89 81       	ldd	r24, Y+1	; 0x01
    2734:	9a 81       	ldd	r25, Y+2	; 0x02
    2736:	80 38       	cpi	r24, 0x80	; 128
    2738:	21 e0       	ldi	r18, 0x01	; 1
    273a:	92 07       	cpc	r25, r18
    273c:	31 f4       	brne	.+12     	; 0x274a <sysclk_enable_peripheral_clock+0x5e>
    273e:	62 e0       	ldi	r22, 0x02	; 2
    2740:	80 e0       	ldi	r24, 0x00	; 0
    2742:	90 e0       	ldi	r25, 0x00	; 0
    2744:	0e 94 19 09 	call	0x1232	; 0x1232 <sysclk_enable_module>
    2748:	fb c0       	rjmp	.+502    	; 0x2940 <sysclk_enable_peripheral_clock+0x254>
    274a:	89 81       	ldd	r24, Y+1	; 0x01
    274c:	9a 81       	ldd	r25, Y+2	; 0x02
    274e:	81 15       	cp	r24, r1
    2750:	21 e0       	ldi	r18, 0x01	; 1
    2752:	92 07       	cpc	r25, r18
    2754:	31 f4       	brne	.+12     	; 0x2762 <sysclk_enable_peripheral_clock+0x76>
    2756:	61 e0       	ldi	r22, 0x01	; 1
    2758:	80 e0       	ldi	r24, 0x00	; 0
    275a:	90 e0       	ldi	r25, 0x00	; 0
    275c:	0e 94 19 09 	call	0x1232	; 0x1232 <sysclk_enable_module>
    2760:	ef c0       	rjmp	.+478    	; 0x2940 <sysclk_enable_peripheral_clock+0x254>
    2762:	89 81       	ldd	r24, Y+1	; 0x01
    2764:	9a 81       	ldd	r25, Y+2	; 0x02
    2766:	80 38       	cpi	r24, 0x80	; 128
    2768:	23 e0       	ldi	r18, 0x03	; 3
    276a:	92 07       	cpc	r25, r18
    276c:	31 f4       	brne	.+12     	; 0x277a <sysclk_enable_peripheral_clock+0x8e>
    276e:	61 e0       	ldi	r22, 0x01	; 1
    2770:	81 e0       	ldi	r24, 0x01	; 1
    2772:	90 e0       	ldi	r25, 0x00	; 0
    2774:	0e 94 19 09 	call	0x1232	; 0x1232 <sysclk_enable_module>
    2778:	e3 c0       	rjmp	.+454    	; 0x2940 <sysclk_enable_peripheral_clock+0x254>
    277a:	89 81       	ldd	r24, Y+1	; 0x01
    277c:	9a 81       	ldd	r25, Y+2	; 0x02
    277e:	81 15       	cp	r24, r1
    2780:	22 e0       	ldi	r18, 0x02	; 2
    2782:	92 07       	cpc	r25, r18
    2784:	31 f4       	brne	.+12     	; 0x2792 <sysclk_enable_peripheral_clock+0xa6>
    2786:	62 e0       	ldi	r22, 0x02	; 2
    2788:	81 e0       	ldi	r24, 0x01	; 1
    278a:	90 e0       	ldi	r25, 0x00	; 0
    278c:	0e 94 19 09 	call	0x1232	; 0x1232 <sysclk_enable_module>
    2790:	d7 c0       	rjmp	.+430    	; 0x2940 <sysclk_enable_peripheral_clock+0x254>
    2792:	89 81       	ldd	r24, Y+1	; 0x01
    2794:	9a 81       	ldd	r25, Y+2	; 0x02
    2796:	80 32       	cpi	r24, 0x20	; 32
    2798:	23 e0       	ldi	r18, 0x03	; 3
    279a:	92 07       	cpc	r25, r18
    279c:	31 f4       	brne	.+12     	; 0x27aa <sysclk_enable_peripheral_clock+0xbe>
    279e:	64 e0       	ldi	r22, 0x04	; 4
    27a0:	82 e0       	ldi	r24, 0x02	; 2
    27a2:	90 e0       	ldi	r25, 0x00	; 0
    27a4:	0e 94 19 09 	call	0x1232	; 0x1232 <sysclk_enable_module>
    27a8:	cb c0       	rjmp	.+406    	; 0x2940 <sysclk_enable_peripheral_clock+0x254>
    27aa:	89 81       	ldd	r24, Y+1	; 0x01
    27ac:	9a 81       	ldd	r25, Y+2	; 0x02
    27ae:	81 15       	cp	r24, r1
    27b0:	28 e0       	ldi	r18, 0x08	; 8
    27b2:	92 07       	cpc	r25, r18
    27b4:	31 f4       	brne	.+12     	; 0x27c2 <sysclk_enable_peripheral_clock+0xd6>
    27b6:	61 e0       	ldi	r22, 0x01	; 1
    27b8:	83 e0       	ldi	r24, 0x03	; 3
    27ba:	90 e0       	ldi	r25, 0x00	; 0
    27bc:	0e 94 19 09 	call	0x1232	; 0x1232 <sysclk_enable_module>
    27c0:	bf c0       	rjmp	.+382    	; 0x2940 <sysclk_enable_peripheral_clock+0x254>
    27c2:	89 81       	ldd	r24, Y+1	; 0x01
    27c4:	9a 81       	ldd	r25, Y+2	; 0x02
    27c6:	81 15       	cp	r24, r1
    27c8:	29 e0       	ldi	r18, 0x09	; 9
    27ca:	92 07       	cpc	r25, r18
    27cc:	31 f4       	brne	.+12     	; 0x27da <sysclk_enable_peripheral_clock+0xee>
    27ce:	61 e0       	ldi	r22, 0x01	; 1
    27d0:	84 e0       	ldi	r24, 0x04	; 4
    27d2:	90 e0       	ldi	r25, 0x00	; 0
    27d4:	0e 94 19 09 	call	0x1232	; 0x1232 <sysclk_enable_module>
    27d8:	b3 c0       	rjmp	.+358    	; 0x2940 <sysclk_enable_peripheral_clock+0x254>
    27da:	89 81       	ldd	r24, Y+1	; 0x01
    27dc:	9a 81       	ldd	r25, Y+2	; 0x02
    27de:	81 15       	cp	r24, r1
    27e0:	2a e0       	ldi	r18, 0x0A	; 10
    27e2:	92 07       	cpc	r25, r18
    27e4:	31 f4       	brne	.+12     	; 0x27f2 <sysclk_enable_peripheral_clock+0x106>
    27e6:	61 e0       	ldi	r22, 0x01	; 1
    27e8:	85 e0       	ldi	r24, 0x05	; 5
    27ea:	90 e0       	ldi	r25, 0x00	; 0
    27ec:	0e 94 19 09 	call	0x1232	; 0x1232 <sysclk_enable_module>
    27f0:	a7 c0       	rjmp	.+334    	; 0x2940 <sysclk_enable_peripheral_clock+0x254>
    27f2:	89 81       	ldd	r24, Y+1	; 0x01
    27f4:	9a 81       	ldd	r25, Y+2	; 0x02
    27f6:	80 34       	cpi	r24, 0x40	; 64
    27f8:	28 e0       	ldi	r18, 0x08	; 8
    27fa:	92 07       	cpc	r25, r18
    27fc:	31 f4       	brne	.+12     	; 0x280a <sysclk_enable_peripheral_clock+0x11e>
    27fe:	62 e0       	ldi	r22, 0x02	; 2
    2800:	83 e0       	ldi	r24, 0x03	; 3
    2802:	90 e0       	ldi	r25, 0x00	; 0
    2804:	0e 94 19 09 	call	0x1232	; 0x1232 <sysclk_enable_module>
    2808:	9b c0       	rjmp	.+310    	; 0x2940 <sysclk_enable_peripheral_clock+0x254>
    280a:	89 81       	ldd	r24, Y+1	; 0x01
    280c:	9a 81       	ldd	r25, Y+2	; 0x02
    280e:	80 34       	cpi	r24, 0x40	; 64
    2810:	29 e0       	ldi	r18, 0x09	; 9
    2812:	92 07       	cpc	r25, r18
    2814:	31 f4       	brne	.+12     	; 0x2822 <sysclk_enable_peripheral_clock+0x136>
    2816:	62 e0       	ldi	r22, 0x02	; 2
    2818:	84 e0       	ldi	r24, 0x04	; 4
    281a:	90 e0       	ldi	r25, 0x00	; 0
    281c:	0e 94 19 09 	call	0x1232	; 0x1232 <sysclk_enable_module>
    2820:	8f c0       	rjmp	.+286    	; 0x2940 <sysclk_enable_peripheral_clock+0x254>
    2822:	89 81       	ldd	r24, Y+1	; 0x01
    2824:	9a 81       	ldd	r25, Y+2	; 0x02
    2826:	80 39       	cpi	r24, 0x90	; 144
    2828:	28 e0       	ldi	r18, 0x08	; 8
    282a:	92 07       	cpc	r25, r18
    282c:	31 f4       	brne	.+12     	; 0x283a <sysclk_enable_peripheral_clock+0x14e>
    282e:	64 e0       	ldi	r22, 0x04	; 4
    2830:	83 e0       	ldi	r24, 0x03	; 3
    2832:	90 e0       	ldi	r25, 0x00	; 0
    2834:	0e 94 19 09 	call	0x1232	; 0x1232 <sysclk_enable_module>
    2838:	83 c0       	rjmp	.+262    	; 0x2940 <sysclk_enable_peripheral_clock+0x254>
    283a:	89 81       	ldd	r24, Y+1	; 0x01
    283c:	9a 81       	ldd	r25, Y+2	; 0x02
    283e:	80 39       	cpi	r24, 0x90	; 144
    2840:	29 e0       	ldi	r18, 0x09	; 9
    2842:	92 07       	cpc	r25, r18
    2844:	31 f4       	brne	.+12     	; 0x2852 <sysclk_enable_peripheral_clock+0x166>
    2846:	64 e0       	ldi	r22, 0x04	; 4
    2848:	84 e0       	ldi	r24, 0x04	; 4
    284a:	90 e0       	ldi	r25, 0x00	; 0
    284c:	0e 94 19 09 	call	0x1232	; 0x1232 <sysclk_enable_module>
    2850:	77 c0       	rjmp	.+238    	; 0x2940 <sysclk_enable_peripheral_clock+0x254>
    2852:	89 81       	ldd	r24, Y+1	; 0x01
    2854:	9a 81       	ldd	r25, Y+2	; 0x02
    2856:	80 39       	cpi	r24, 0x90	; 144
    2858:	2a e0       	ldi	r18, 0x0A	; 10
    285a:	92 07       	cpc	r25, r18
    285c:	31 f4       	brne	.+12     	; 0x286a <sysclk_enable_peripheral_clock+0x17e>
    285e:	64 e0       	ldi	r22, 0x04	; 4
    2860:	85 e0       	ldi	r24, 0x05	; 5
    2862:	90 e0       	ldi	r25, 0x00	; 0
    2864:	0e 94 19 09 	call	0x1232	; 0x1232 <sysclk_enable_module>
    2868:	6b c0       	rjmp	.+214    	; 0x2940 <sysclk_enable_peripheral_clock+0x254>
    286a:	89 81       	ldd	r24, Y+1	; 0x01
    286c:	9a 81       	ldd	r25, Y+2	; 0x02
    286e:	80 3c       	cpi	r24, 0xC0	; 192
    2870:	28 e0       	ldi	r18, 0x08	; 8
    2872:	92 07       	cpc	r25, r18
    2874:	31 f4       	brne	.+12     	; 0x2882 <sysclk_enable_peripheral_clock+0x196>
    2876:	68 e0       	ldi	r22, 0x08	; 8
    2878:	83 e0       	ldi	r24, 0x03	; 3
    287a:	90 e0       	ldi	r25, 0x00	; 0
    287c:	0e 94 19 09 	call	0x1232	; 0x1232 <sysclk_enable_module>
    2880:	5f c0       	rjmp	.+190    	; 0x2940 <sysclk_enable_peripheral_clock+0x254>
    2882:	89 81       	ldd	r24, Y+1	; 0x01
    2884:	9a 81       	ldd	r25, Y+2	; 0x02
    2886:	80 3c       	cpi	r24, 0xC0	; 192
    2888:	29 e0       	ldi	r18, 0x09	; 9
    288a:	92 07       	cpc	r25, r18
    288c:	31 f4       	brne	.+12     	; 0x289a <sysclk_enable_peripheral_clock+0x1ae>
    288e:	68 e0       	ldi	r22, 0x08	; 8
    2890:	84 e0       	ldi	r24, 0x04	; 4
    2892:	90 e0       	ldi	r25, 0x00	; 0
    2894:	0e 94 19 09 	call	0x1232	; 0x1232 <sysclk_enable_module>
    2898:	53 c0       	rjmp	.+166    	; 0x2940 <sysclk_enable_peripheral_clock+0x254>
    289a:	89 81       	ldd	r24, Y+1	; 0x01
    289c:	9a 81       	ldd	r25, Y+2	; 0x02
    289e:	80 3a       	cpi	r24, 0xA0	; 160
    28a0:	28 e0       	ldi	r18, 0x08	; 8
    28a2:	92 07       	cpc	r25, r18
    28a4:	31 f4       	brne	.+12     	; 0x28b2 <sysclk_enable_peripheral_clock+0x1c6>
    28a6:	60 e1       	ldi	r22, 0x10	; 16
    28a8:	83 e0       	ldi	r24, 0x03	; 3
    28aa:	90 e0       	ldi	r25, 0x00	; 0
    28ac:	0e 94 19 09 	call	0x1232	; 0x1232 <sysclk_enable_module>
    28b0:	47 c0       	rjmp	.+142    	; 0x2940 <sysclk_enable_peripheral_clock+0x254>
    28b2:	89 81       	ldd	r24, Y+1	; 0x01
    28b4:	9a 81       	ldd	r25, Y+2	; 0x02
    28b6:	80 3a       	cpi	r24, 0xA0	; 160
    28b8:	29 e0       	ldi	r18, 0x09	; 9
    28ba:	92 07       	cpc	r25, r18
    28bc:	31 f4       	brne	.+12     	; 0x28ca <sysclk_enable_peripheral_clock+0x1de>
    28be:	60 e1       	ldi	r22, 0x10	; 16
    28c0:	84 e0       	ldi	r24, 0x04	; 4
    28c2:	90 e0       	ldi	r25, 0x00	; 0
    28c4:	0e 94 19 09 	call	0x1232	; 0x1232 <sysclk_enable_module>
    28c8:	3b c0       	rjmp	.+118    	; 0x2940 <sysclk_enable_peripheral_clock+0x254>
    28ca:	89 81       	ldd	r24, Y+1	; 0x01
    28cc:	9a 81       	ldd	r25, Y+2	; 0x02
    28ce:	80 3a       	cpi	r24, 0xA0	; 160
    28d0:	2a e0       	ldi	r18, 0x0A	; 10
    28d2:	92 07       	cpc	r25, r18
    28d4:	31 f4       	brne	.+12     	; 0x28e2 <sysclk_enable_peripheral_clock+0x1f6>
    28d6:	60 e1       	ldi	r22, 0x10	; 16
    28d8:	85 e0       	ldi	r24, 0x05	; 5
    28da:	90 e0       	ldi	r25, 0x00	; 0
    28dc:	0e 94 19 09 	call	0x1232	; 0x1232 <sysclk_enable_module>
    28e0:	2f c0       	rjmp	.+94     	; 0x2940 <sysclk_enable_peripheral_clock+0x254>
    28e2:	89 81       	ldd	r24, Y+1	; 0x01
    28e4:	9a 81       	ldd	r25, Y+2	; 0x02
    28e6:	80 3b       	cpi	r24, 0xB0	; 176
    28e8:	28 e0       	ldi	r18, 0x08	; 8
    28ea:	92 07       	cpc	r25, r18
    28ec:	31 f4       	brne	.+12     	; 0x28fa <sysclk_enable_peripheral_clock+0x20e>
    28ee:	60 e2       	ldi	r22, 0x20	; 32
    28f0:	83 e0       	ldi	r24, 0x03	; 3
    28f2:	90 e0       	ldi	r25, 0x00	; 0
    28f4:	0e 94 19 09 	call	0x1232	; 0x1232 <sysclk_enable_module>
    28f8:	23 c0       	rjmp	.+70     	; 0x2940 <sysclk_enable_peripheral_clock+0x254>
    28fa:	89 81       	ldd	r24, Y+1	; 0x01
    28fc:	9a 81       	ldd	r25, Y+2	; 0x02
    28fe:	80 3b       	cpi	r24, 0xB0	; 176
    2900:	29 e0       	ldi	r18, 0x09	; 9
    2902:	92 07       	cpc	r25, r18
    2904:	31 f4       	brne	.+12     	; 0x2912 <sysclk_enable_peripheral_clock+0x226>
    2906:	60 e2       	ldi	r22, 0x20	; 32
    2908:	84 e0       	ldi	r24, 0x04	; 4
    290a:	90 e0       	ldi	r25, 0x00	; 0
    290c:	0e 94 19 09 	call	0x1232	; 0x1232 <sysclk_enable_module>
    2910:	17 c0       	rjmp	.+46     	; 0x2940 <sysclk_enable_peripheral_clock+0x254>
    2912:	89 81       	ldd	r24, Y+1	; 0x01
    2914:	9a 81       	ldd	r25, Y+2	; 0x02
    2916:	80 38       	cpi	r24, 0x80	; 128
    2918:	24 e0       	ldi	r18, 0x04	; 4
    291a:	92 07       	cpc	r25, r18
    291c:	31 f4       	brne	.+12     	; 0x292a <sysclk_enable_peripheral_clock+0x23e>
    291e:	60 e4       	ldi	r22, 0x40	; 64
    2920:	83 e0       	ldi	r24, 0x03	; 3
    2922:	90 e0       	ldi	r25, 0x00	; 0
    2924:	0e 94 19 09 	call	0x1232	; 0x1232 <sysclk_enable_module>
    2928:	0b c0       	rjmp	.+22     	; 0x2940 <sysclk_enable_peripheral_clock+0x254>
    292a:	89 81       	ldd	r24, Y+1	; 0x01
    292c:	9a 81       	ldd	r25, Y+2	; 0x02
    292e:	80 3a       	cpi	r24, 0xA0	; 160
    2930:	24 e0       	ldi	r18, 0x04	; 4
    2932:	92 07       	cpc	r25, r18
    2934:	29 f4       	brne	.+10     	; 0x2940 <sysclk_enable_peripheral_clock+0x254>
    2936:	60 e4       	ldi	r22, 0x40	; 64
    2938:	85 e0       	ldi	r24, 0x05	; 5
    293a:	90 e0       	ldi	r25, 0x00	; 0
    293c:	0e 94 19 09 	call	0x1232	; 0x1232 <sysclk_enable_module>
    2940:	0f 90       	pop	r0
    2942:	0f 90       	pop	r0
    2944:	df 91       	pop	r29
    2946:	cf 91       	pop	r28
    2948:	08 95       	ret

0000294a <usart_init_rs232>:
    294a:	0f 93       	push	r16
    294c:	1f 93       	push	r17
    294e:	cf 93       	push	r28
    2950:	df 93       	push	r29
    2952:	cd b7       	in	r28, 0x3d	; 61
    2954:	de b7       	in	r29, 0x3e	; 62
    2956:	25 97       	sbiw	r28, 0x05	; 5
    2958:	cd bf       	out	0x3d, r28	; 61
    295a:	de bf       	out	0x3e, r29	; 62
    295c:	8a 83       	std	Y+2, r24	; 0x02
    295e:	9b 83       	std	Y+3, r25	; 0x03
    2960:	6c 83       	std	Y+4, r22	; 0x04
    2962:	7d 83       	std	Y+5, r23	; 0x05
    2964:	8a 81       	ldd	r24, Y+2	; 0x02
    2966:	9b 81       	ldd	r25, Y+3	; 0x03
    2968:	c1 de       	rcall	.-638    	; 0x26ec <sysclk_enable_peripheral_clock>
    296a:	8a 81       	ldd	r24, Y+2	; 0x02
    296c:	9b 81       	ldd	r25, Y+3	; 0x03
    296e:	60 e0       	ldi	r22, 0x00	; 0
    2970:	70 e0       	ldi	r23, 0x00	; 0
    2972:	2e de       	rcall	.-932    	; 0x25d0 <usart_set_mode>
    2974:	8c 81       	ldd	r24, Y+4	; 0x04
    2976:	9d 81       	ldd	r25, Y+5	; 0x05
    2978:	fc 01       	movw	r30, r24
    297a:	20 85       	ldd	r18, Z+8	; 0x08
    297c:	8c 81       	ldd	r24, Y+4	; 0x04
    297e:	9d 81       	ldd	r25, Y+5	; 0x05
    2980:	fc 01       	movw	r30, r24
    2982:	46 81       	ldd	r20, Z+6	; 0x06
    2984:	57 81       	ldd	r21, Z+7	; 0x07
    2986:	8c 81       	ldd	r24, Y+4	; 0x04
    2988:	9d 81       	ldd	r25, Y+5	; 0x05
    298a:	fc 01       	movw	r30, r24
    298c:	64 81       	ldd	r22, Z+4	; 0x04
    298e:	75 81       	ldd	r23, Z+5	; 0x05
    2990:	8a 81       	ldd	r24, Y+2	; 0x02
    2992:	9b 81       	ldd	r25, Y+3	; 0x03
    2994:	e4 dd       	rcall	.-1080   	; 0x255e <usart_format_set>
    2996:	9e de       	rcall	.-708    	; 0x26d4 <sysclk_get_per_hz>
    2998:	9b 01       	movw	r18, r22
    299a:	ac 01       	movw	r20, r24
    299c:	8c 81       	ldd	r24, Y+4	; 0x04
    299e:	9d 81       	ldd	r25, Y+5	; 0x05
    29a0:	fc 01       	movw	r30, r24
    29a2:	80 81       	ld	r24, Z
    29a4:	91 81       	ldd	r25, Z+1	; 0x01
    29a6:	a2 81       	ldd	r26, Z+2	; 0x02
    29a8:	b3 81       	ldd	r27, Z+3	; 0x03
    29aa:	ea 81       	ldd	r30, Y+2	; 0x02
    29ac:	fb 81       	ldd	r31, Y+3	; 0x03
    29ae:	89 01       	movw	r16, r18
    29b0:	9a 01       	movw	r18, r20
    29b2:	ac 01       	movw	r20, r24
    29b4:	bd 01       	movw	r22, r26
    29b6:	cf 01       	movw	r24, r30
    29b8:	48 d0       	rcall	.+144    	; 0x2a4a <usart_set_baudrate>
    29ba:	89 83       	std	Y+1, r24	; 0x01
    29bc:	8a 81       	ldd	r24, Y+2	; 0x02
    29be:	9b 81       	ldd	r25, Y+3	; 0x03
    29c0:	f1 dd       	rcall	.-1054   	; 0x25a4 <usart_tx_enable>
    29c2:	8a 81       	ldd	r24, Y+2	; 0x02
    29c4:	9b 81       	ldd	r25, Y+3	; 0x03
    29c6:	b5 dd       	rcall	.-1174   	; 0x2532 <usart_rx_enable>
    29c8:	89 81       	ldd	r24, Y+1	; 0x01
    29ca:	25 96       	adiw	r28, 0x05	; 5
    29cc:	cd bf       	out	0x3d, r28	; 61
    29ce:	de bf       	out	0x3e, r29	; 62
    29d0:	df 91       	pop	r29
    29d2:	cf 91       	pop	r28
    29d4:	1f 91       	pop	r17
    29d6:	0f 91       	pop	r16
    29d8:	08 95       	ret

000029da <usart_putchar>:
    29da:	cf 93       	push	r28
    29dc:	df 93       	push	r29
    29de:	00 d0       	rcall	.+0      	; 0x29e0 <usart_putchar+0x6>
    29e0:	1f 92       	push	r1
    29e2:	cd b7       	in	r28, 0x3d	; 61
    29e4:	de b7       	in	r29, 0x3e	; 62
    29e6:	89 83       	std	Y+1, r24	; 0x01
    29e8:	9a 83       	std	Y+2, r25	; 0x02
    29ea:	6b 83       	std	Y+3, r22	; 0x03
    29ec:	00 00       	nop
    29ee:	89 81       	ldd	r24, Y+1	; 0x01
    29f0:	9a 81       	ldd	r25, Y+2	; 0x02
    29f2:	0b de       	rcall	.-1002   	; 0x260a <usart_data_register_is_empty>
    29f4:	98 2f       	mov	r25, r24
    29f6:	81 e0       	ldi	r24, 0x01	; 1
    29f8:	89 27       	eor	r24, r25
    29fa:	88 23       	and	r24, r24
    29fc:	c1 f7       	brne	.-16     	; 0x29ee <usart_putchar+0x14>
    29fe:	89 81       	ldd	r24, Y+1	; 0x01
    2a00:	9a 81       	ldd	r25, Y+2	; 0x02
    2a02:	2b 81       	ldd	r18, Y+3	; 0x03
    2a04:	fc 01       	movw	r30, r24
    2a06:	20 83       	st	Z, r18
    2a08:	80 e0       	ldi	r24, 0x00	; 0
    2a0a:	90 e0       	ldi	r25, 0x00	; 0
    2a0c:	23 96       	adiw	r28, 0x03	; 3
    2a0e:	cd bf       	out	0x3d, r28	; 61
    2a10:	de bf       	out	0x3e, r29	; 62
    2a12:	df 91       	pop	r29
    2a14:	cf 91       	pop	r28
    2a16:	08 95       	ret

00002a18 <usart_getchar>:
    2a18:	cf 93       	push	r28
    2a1a:	df 93       	push	r29
    2a1c:	00 d0       	rcall	.+0      	; 0x2a1e <usart_getchar+0x6>
    2a1e:	cd b7       	in	r28, 0x3d	; 61
    2a20:	de b7       	in	r29, 0x3e	; 62
    2a22:	89 83       	std	Y+1, r24	; 0x01
    2a24:	9a 83       	std	Y+2, r25	; 0x02
    2a26:	00 00       	nop
    2a28:	89 81       	ldd	r24, Y+1	; 0x01
    2a2a:	9a 81       	ldd	r25, Y+2	; 0x02
    2a2c:	07 de       	rcall	.-1010   	; 0x263c <usart_rx_is_complete>
    2a2e:	98 2f       	mov	r25, r24
    2a30:	81 e0       	ldi	r24, 0x01	; 1
    2a32:	89 27       	eor	r24, r25
    2a34:	88 23       	and	r24, r24
    2a36:	c1 f7       	brne	.-16     	; 0x2a28 <usart_getchar+0x10>
    2a38:	89 81       	ldd	r24, Y+1	; 0x01
    2a3a:	9a 81       	ldd	r25, Y+2	; 0x02
    2a3c:	fc 01       	movw	r30, r24
    2a3e:	80 81       	ld	r24, Z
    2a40:	0f 90       	pop	r0
    2a42:	0f 90       	pop	r0
    2a44:	df 91       	pop	r29
    2a46:	cf 91       	pop	r28
    2a48:	08 95       	ret

00002a4a <usart_set_baudrate>:
 * \retval true if the hardware supports the baud rate
 * \retval false if the hardware does not support the baud rate (i.e. it's
 *               either too high or too low.)
 */
bool usart_set_baudrate(USART_t *usart, uint32_t baud, uint32_t cpu_hz)
{
    2a4a:	ef 92       	push	r14
    2a4c:	ff 92       	push	r15
    2a4e:	0f 93       	push	r16
    2a50:	1f 93       	push	r17
    2a52:	cf 93       	push	r28
    2a54:	df 93       	push	r29
    2a56:	cd b7       	in	r28, 0x3d	; 61
    2a58:	de b7       	in	r29, 0x3e	; 62
    2a5a:	6f 97       	sbiw	r28, 0x1f	; 31
    2a5c:	cd bf       	out	0x3d, r28	; 61
    2a5e:	de bf       	out	0x3e, r29	; 62
    2a60:	8e 8b       	std	Y+22, r24	; 0x16
    2a62:	9f 8b       	std	Y+23, r25	; 0x17
    2a64:	48 8f       	std	Y+24, r20	; 0x18
    2a66:	59 8f       	std	Y+25, r21	; 0x19
    2a68:	6a 8f       	std	Y+26, r22	; 0x1a
    2a6a:	7b 8f       	std	Y+27, r23	; 0x1b
    2a6c:	0c 8f       	std	Y+28, r16	; 0x1c
    2a6e:	1d 8f       	std	Y+29, r17	; 0x1d
    2a70:	2e 8f       	std	Y+30, r18	; 0x1e
    2a72:	3f 8f       	std	Y+31, r19	; 0x1f

	/*
	 * Check if the hardware supports the given baud rate
	 */
	/* 8 = (2^0) * 8 * (2^0) = (2^BSCALE_MIN) * 8 * (BSEL_MIN) */
	max_rate = cpu_hz / 8;
    2a74:	8c 8d       	ldd	r24, Y+28	; 0x1c
    2a76:	9d 8d       	ldd	r25, Y+29	; 0x1d
    2a78:	ae 8d       	ldd	r26, Y+30	; 0x1e
    2a7a:	bf 8d       	ldd	r27, Y+31	; 0x1f
    2a7c:	68 94       	set
    2a7e:	12 f8       	bld	r1, 2
    2a80:	b6 95       	lsr	r27
    2a82:	a7 95       	ror	r26
    2a84:	97 95       	ror	r25
    2a86:	87 95       	ror	r24
    2a88:	16 94       	lsr	r1
    2a8a:	d1 f7       	brne	.-12     	; 0x2a80 <usart_set_baudrate+0x36>
    2a8c:	8e 87       	std	Y+14, r24	; 0x0e
    2a8e:	9f 87       	std	Y+15, r25	; 0x0f
    2a90:	a8 8b       	std	Y+16, r26	; 0x10
    2a92:	b9 8b       	std	Y+17, r27	; 0x11
	/* 4194304 = (2^7) * 8 * (2^12) = (2^BSCALE_MAX) * 8 * (BSEL_MAX+1) */
	min_rate = cpu_hz / 4194304;
    2a94:	8c 8d       	ldd	r24, Y+28	; 0x1c
    2a96:	9d 8d       	ldd	r25, Y+29	; 0x1d
    2a98:	ae 8d       	ldd	r26, Y+30	; 0x1e
    2a9a:	bf 8d       	ldd	r27, Y+31	; 0x1f
    2a9c:	07 2e       	mov	r0, r23
    2a9e:	76 e1       	ldi	r23, 0x16	; 22
    2aa0:	b6 95       	lsr	r27
    2aa2:	a7 95       	ror	r26
    2aa4:	97 95       	ror	r25
    2aa6:	87 95       	ror	r24
    2aa8:	7a 95       	dec	r23
    2aaa:	d1 f7       	brne	.-12     	; 0x2aa0 <usart_set_baudrate+0x56>
    2aac:	70 2d       	mov	r23, r0
    2aae:	8a 87       	std	Y+10, r24	; 0x0a
    2ab0:	9b 87       	std	Y+11, r25	; 0x0b
    2ab2:	ac 87       	std	Y+12, r26	; 0x0c
    2ab4:	bd 87       	std	Y+13, r27	; 0x0d

	if (!((usart)->CTRLB & USART_CLK2X_bm)) {
    2ab6:	8e 89       	ldd	r24, Y+22	; 0x16
    2ab8:	9f 89       	ldd	r25, Y+23	; 0x17
    2aba:	fc 01       	movw	r30, r24
    2abc:	84 81       	ldd	r24, Z+4	; 0x04
    2abe:	88 2f       	mov	r24, r24
    2ac0:	90 e0       	ldi	r25, 0x00	; 0
    2ac2:	84 70       	andi	r24, 0x04	; 4
    2ac4:	99 27       	eor	r25, r25
    2ac6:	00 97       	sbiw	r24, 0x00	; 0
    2ac8:	c1 f4       	brne	.+48     	; 0x2afa <usart_set_baudrate+0xb0>
		max_rate /= 2;
    2aca:	8e 85       	ldd	r24, Y+14	; 0x0e
    2acc:	9f 85       	ldd	r25, Y+15	; 0x0f
    2ace:	a8 89       	ldd	r26, Y+16	; 0x10
    2ad0:	b9 89       	ldd	r27, Y+17	; 0x11
    2ad2:	b6 95       	lsr	r27
    2ad4:	a7 95       	ror	r26
    2ad6:	97 95       	ror	r25
    2ad8:	87 95       	ror	r24
    2ada:	8e 87       	std	Y+14, r24	; 0x0e
    2adc:	9f 87       	std	Y+15, r25	; 0x0f
    2ade:	a8 8b       	std	Y+16, r26	; 0x10
    2ae0:	b9 8b       	std	Y+17, r27	; 0x11
		min_rate /= 2;
    2ae2:	8a 85       	ldd	r24, Y+10	; 0x0a
    2ae4:	9b 85       	ldd	r25, Y+11	; 0x0b
    2ae6:	ac 85       	ldd	r26, Y+12	; 0x0c
    2ae8:	bd 85       	ldd	r27, Y+13	; 0x0d
    2aea:	b6 95       	lsr	r27
    2aec:	a7 95       	ror	r26
    2aee:	97 95       	ror	r25
    2af0:	87 95       	ror	r24
    2af2:	8a 87       	std	Y+10, r24	; 0x0a
    2af4:	9b 87       	std	Y+11, r25	; 0x0b
    2af6:	ac 87       	std	Y+12, r26	; 0x0c
    2af8:	bd 87       	std	Y+13, r27	; 0x0d
	}

	if ((baud > max_rate) || (baud < min_rate)) {
    2afa:	28 8d       	ldd	r18, Y+24	; 0x18
    2afc:	39 8d       	ldd	r19, Y+25	; 0x19
    2afe:	4a 8d       	ldd	r20, Y+26	; 0x1a
    2b00:	5b 8d       	ldd	r21, Y+27	; 0x1b
    2b02:	8e 85       	ldd	r24, Y+14	; 0x0e
    2b04:	9f 85       	ldd	r25, Y+15	; 0x0f
    2b06:	a8 89       	ldd	r26, Y+16	; 0x10
    2b08:	b9 89       	ldd	r27, Y+17	; 0x11
    2b0a:	82 17       	cp	r24, r18
    2b0c:	93 07       	cpc	r25, r19
    2b0e:	a4 07       	cpc	r26, r20
    2b10:	b5 07       	cpc	r27, r21
    2b12:	68 f0       	brcs	.+26     	; 0x2b2e <usart_set_baudrate+0xe4>
    2b14:	28 8d       	ldd	r18, Y+24	; 0x18
    2b16:	39 8d       	ldd	r19, Y+25	; 0x19
    2b18:	4a 8d       	ldd	r20, Y+26	; 0x1a
    2b1a:	5b 8d       	ldd	r21, Y+27	; 0x1b
    2b1c:	8a 85       	ldd	r24, Y+10	; 0x0a
    2b1e:	9b 85       	ldd	r25, Y+11	; 0x0b
    2b20:	ac 85       	ldd	r26, Y+12	; 0x0c
    2b22:	bd 85       	ldd	r27, Y+13	; 0x0d
    2b24:	28 17       	cp	r18, r24
    2b26:	39 07       	cpc	r19, r25
    2b28:	4a 07       	cpc	r20, r26
    2b2a:	5b 07       	cpc	r21, r27
    2b2c:	10 f4       	brcc	.+4      	; 0x2b32 <usart_set_baudrate+0xe8>
		return false;
    2b2e:	80 e0       	ldi	r24, 0x00	; 0
    2b30:	3c c1       	rjmp	.+632    	; 0x2daa <usart_set_baudrate+0x360>
	}

	/* Check if double speed is enabled. */
	if (!((usart)->CTRLB & USART_CLK2X_bm)) {
    2b32:	8e 89       	ldd	r24, Y+22	; 0x16
    2b34:	9f 89       	ldd	r25, Y+23	; 0x17
    2b36:	fc 01       	movw	r30, r24
    2b38:	84 81       	ldd	r24, Z+4	; 0x04
    2b3a:	88 2f       	mov	r24, r24
    2b3c:	90 e0       	ldi	r25, 0x00	; 0
    2b3e:	84 70       	andi	r24, 0x04	; 4
    2b40:	99 27       	eor	r25, r25
    2b42:	00 97       	sbiw	r24, 0x00	; 0
    2b44:	61 f4       	brne	.+24     	; 0x2b5e <usart_set_baudrate+0x114>
		baud *= 2;
    2b46:	88 8d       	ldd	r24, Y+24	; 0x18
    2b48:	99 8d       	ldd	r25, Y+25	; 0x19
    2b4a:	aa 8d       	ldd	r26, Y+26	; 0x1a
    2b4c:	bb 8d       	ldd	r27, Y+27	; 0x1b
    2b4e:	88 0f       	add	r24, r24
    2b50:	99 1f       	adc	r25, r25
    2b52:	aa 1f       	adc	r26, r26
    2b54:	bb 1f       	adc	r27, r27
    2b56:	88 8f       	std	Y+24, r24	; 0x18
    2b58:	99 8f       	std	Y+25, r25	; 0x19
    2b5a:	aa 8f       	std	Y+26, r26	; 0x1a
    2b5c:	bb 8f       	std	Y+27, r27	; 0x1b
	}

	/* Find the lowest possible exponent. */
	limit = 0xfffU >> 4;
    2b5e:	8f ef       	ldi	r24, 0xFF	; 255
    2b60:	90 e0       	ldi	r25, 0x00	; 0
    2b62:	a0 e0       	ldi	r26, 0x00	; 0
    2b64:	b0 e0       	ldi	r27, 0x00	; 0
    2b66:	8e 83       	std	Y+6, r24	; 0x06
    2b68:	9f 83       	std	Y+7, r25	; 0x07
    2b6a:	a8 87       	std	Y+8, r26	; 0x08
    2b6c:	b9 87       	std	Y+9, r27	; 0x09
	ratio = cpu_hz / baud;
    2b6e:	8c 8d       	ldd	r24, Y+28	; 0x1c
    2b70:	9d 8d       	ldd	r25, Y+29	; 0x1d
    2b72:	ae 8d       	ldd	r26, Y+30	; 0x1e
    2b74:	bf 8d       	ldd	r27, Y+31	; 0x1f
    2b76:	28 8d       	ldd	r18, Y+24	; 0x18
    2b78:	39 8d       	ldd	r19, Y+25	; 0x19
    2b7a:	4a 8d       	ldd	r20, Y+26	; 0x1a
    2b7c:	5b 8d       	ldd	r21, Y+27	; 0x1b
    2b7e:	bc 01       	movw	r22, r24
    2b80:	cd 01       	movw	r24, r26
    2b82:	0e 94 61 39 	call	0x72c2	; 0x72c2 <__udivmodsi4>
    2b86:	2a 8b       	std	Y+18, r18	; 0x12
    2b88:	3b 8b       	std	Y+19, r19	; 0x13
    2b8a:	4c 8b       	std	Y+20, r20	; 0x14
    2b8c:	5d 8b       	std	Y+21, r21	; 0x15

	for (exp = -7; exp < 7; exp++) {
    2b8e:	89 ef       	ldi	r24, 0xF9	; 249
    2b90:	89 83       	std	Y+1, r24	; 0x01
    2b92:	28 c0       	rjmp	.+80     	; 0x2be4 <usart_set_baudrate+0x19a>
		if (ratio < limit) {
    2b94:	2a 89       	ldd	r18, Y+18	; 0x12
    2b96:	3b 89       	ldd	r19, Y+19	; 0x13
    2b98:	4c 89       	ldd	r20, Y+20	; 0x14
    2b9a:	5d 89       	ldd	r21, Y+21	; 0x15
    2b9c:	8e 81       	ldd	r24, Y+6	; 0x06
    2b9e:	9f 81       	ldd	r25, Y+7	; 0x07
    2ba0:	a8 85       	ldd	r26, Y+8	; 0x08
    2ba2:	b9 85       	ldd	r27, Y+9	; 0x09
    2ba4:	28 17       	cp	r18, r24
    2ba6:	39 07       	cpc	r19, r25
    2ba8:	4a 07       	cpc	r20, r26
    2baa:	5b 07       	cpc	r21, r27
    2bac:	f8 f0       	brcs	.+62     	; 0x2bec <usart_set_baudrate+0x1a2>
			break;
		}

		limit <<= 1;
    2bae:	8e 81       	ldd	r24, Y+6	; 0x06
    2bb0:	9f 81       	ldd	r25, Y+7	; 0x07
    2bb2:	a8 85       	ldd	r26, Y+8	; 0x08
    2bb4:	b9 85       	ldd	r27, Y+9	; 0x09
    2bb6:	88 0f       	add	r24, r24
    2bb8:	99 1f       	adc	r25, r25
    2bba:	aa 1f       	adc	r26, r26
    2bbc:	bb 1f       	adc	r27, r27
    2bbe:	8e 83       	std	Y+6, r24	; 0x06
    2bc0:	9f 83       	std	Y+7, r25	; 0x07
    2bc2:	a8 87       	std	Y+8, r26	; 0x08
    2bc4:	b9 87       	std	Y+9, r27	; 0x09

		if (exp < -3) {
    2bc6:	89 81       	ldd	r24, Y+1	; 0x01
    2bc8:	8d 3f       	cpi	r24, 0xFD	; 253
    2bca:	4c f4       	brge	.+18     	; 0x2bde <usart_set_baudrate+0x194>
			limit |= 1;
    2bcc:	8e 81       	ldd	r24, Y+6	; 0x06
    2bce:	9f 81       	ldd	r25, Y+7	; 0x07
    2bd0:	a8 85       	ldd	r26, Y+8	; 0x08
    2bd2:	b9 85       	ldd	r27, Y+9	; 0x09
    2bd4:	81 60       	ori	r24, 0x01	; 1
    2bd6:	8e 83       	std	Y+6, r24	; 0x06
    2bd8:	9f 83       	std	Y+7, r25	; 0x07
    2bda:	a8 87       	std	Y+8, r26	; 0x08
    2bdc:	b9 87       	std	Y+9, r27	; 0x09

	/* Find the lowest possible exponent. */
	limit = 0xfffU >> 4;
	ratio = cpu_hz / baud;

	for (exp = -7; exp < 7; exp++) {
    2bde:	89 81       	ldd	r24, Y+1	; 0x01
    2be0:	8f 5f       	subi	r24, 0xFF	; 255
    2be2:	89 83       	std	Y+1, r24	; 0x01
    2be4:	89 81       	ldd	r24, Y+1	; 0x01
    2be6:	87 30       	cpi	r24, 0x07	; 7
    2be8:	ac f2       	brlt	.-86     	; 0x2b94 <usart_set_baudrate+0x14a>
    2bea:	01 c0       	rjmp	.+2      	; 0x2bee <usart_set_baudrate+0x1a4>
		if (ratio < limit) {
			break;
    2bec:	00 00       	nop
	 * point.
	 *
	 * The formula for calculating BSEL is slightly different when exp is
	 * negative than it is when exp is positive.
	 */
	if (exp < 0) {
    2bee:	89 81       	ldd	r24, Y+1	; 0x01
    2bf0:	88 23       	and	r24, r24
    2bf2:	0c f0       	brlt	.+2      	; 0x2bf6 <usart_set_baudrate+0x1ac>
    2bf4:	88 c0       	rjmp	.+272    	; 0x2d06 <usart_set_baudrate+0x2bc>
		/* We are supposed to subtract 1, then apply BSCALE. We want to
		 * apply BSCALE first, so we need to turn everything inside the
		 * parenthesis into a single fractional expression.
		 */
		cpu_hz -= 8 * baud;
    2bf6:	88 8d       	ldd	r24, Y+24	; 0x18
    2bf8:	99 8d       	ldd	r25, Y+25	; 0x19
    2bfa:	aa 8d       	ldd	r26, Y+26	; 0x1a
    2bfc:	bb 8d       	ldd	r27, Y+27	; 0x1b
    2bfe:	88 0f       	add	r24, r24
    2c00:	99 1f       	adc	r25, r25
    2c02:	aa 1f       	adc	r26, r26
    2c04:	bb 1f       	adc	r27, r27
    2c06:	88 0f       	add	r24, r24
    2c08:	99 1f       	adc	r25, r25
    2c0a:	aa 1f       	adc	r26, r26
    2c0c:	bb 1f       	adc	r27, r27
    2c0e:	88 0f       	add	r24, r24
    2c10:	99 1f       	adc	r25, r25
    2c12:	aa 1f       	adc	r26, r26
    2c14:	bb 1f       	adc	r27, r27
    2c16:	2c 8d       	ldd	r18, Y+28	; 0x1c
    2c18:	3d 8d       	ldd	r19, Y+29	; 0x1d
    2c1a:	4e 8d       	ldd	r20, Y+30	; 0x1e
    2c1c:	5f 8d       	ldd	r21, Y+31	; 0x1f
    2c1e:	79 01       	movw	r14, r18
    2c20:	8a 01       	movw	r16, r20
    2c22:	e8 1a       	sub	r14, r24
    2c24:	f9 0a       	sbc	r15, r25
    2c26:	0a 0b       	sbc	r16, r26
    2c28:	1b 0b       	sbc	r17, r27
    2c2a:	d8 01       	movw	r26, r16
    2c2c:	c7 01       	movw	r24, r14
    2c2e:	8c 8f       	std	Y+28, r24	; 0x1c
    2c30:	9d 8f       	std	Y+29, r25	; 0x1d
    2c32:	ae 8f       	std	Y+30, r26	; 0x1e
    2c34:	bf 8f       	std	Y+31, r27	; 0x1f
		/* If we end up with a left-shift after taking the final
		 * divide-by-8 into account, do the shift before the divide.
		 * Otherwise, left-shift the denominator instead (effectively
		 * resulting in an overall right shift.)
		 */
		if (exp <= -3) {
    2c36:	89 81       	ldd	r24, Y+1	; 0x01
    2c38:	8e 3f       	cpi	r24, 0xFE	; 254
    2c3a:	84 f5       	brge	.+96     	; 0x2c9c <usart_set_baudrate+0x252>
			div = ((cpu_hz << (-exp - 3)) + baud / 2) / baud;
    2c3c:	89 81       	ldd	r24, Y+1	; 0x01
    2c3e:	99 27       	eor	r25, r25
    2c40:	87 fd       	sbrc	r24, 7
    2c42:	90 95       	com	r25
    2c44:	2d ef       	ldi	r18, 0xFD	; 253
    2c46:	3f ef       	ldi	r19, 0xFF	; 255
    2c48:	28 1b       	sub	r18, r24
    2c4a:	39 0b       	sbc	r19, r25
    2c4c:	8c 8d       	ldd	r24, Y+28	; 0x1c
    2c4e:	9d 8d       	ldd	r25, Y+29	; 0x1d
    2c50:	ae 8d       	ldd	r26, Y+30	; 0x1e
    2c52:	bf 8d       	ldd	r27, Y+31	; 0x1f
    2c54:	7c 01       	movw	r14, r24
    2c56:	8d 01       	movw	r16, r26
    2c58:	04 c0       	rjmp	.+8      	; 0x2c62 <usart_set_baudrate+0x218>
    2c5a:	ee 0c       	add	r14, r14
    2c5c:	ff 1c       	adc	r15, r15
    2c5e:	00 1f       	adc	r16, r16
    2c60:	11 1f       	adc	r17, r17
    2c62:	2a 95       	dec	r18
    2c64:	d2 f7       	brpl	.-12     	; 0x2c5a <usart_set_baudrate+0x210>
    2c66:	a8 01       	movw	r20, r16
    2c68:	97 01       	movw	r18, r14
    2c6a:	88 8d       	ldd	r24, Y+24	; 0x18
    2c6c:	99 8d       	ldd	r25, Y+25	; 0x19
    2c6e:	aa 8d       	ldd	r26, Y+26	; 0x1a
    2c70:	bb 8d       	ldd	r27, Y+27	; 0x1b
    2c72:	b6 95       	lsr	r27
    2c74:	a7 95       	ror	r26
    2c76:	97 95       	ror	r25
    2c78:	87 95       	ror	r24
    2c7a:	82 0f       	add	r24, r18
    2c7c:	93 1f       	adc	r25, r19
    2c7e:	a4 1f       	adc	r26, r20
    2c80:	b5 1f       	adc	r27, r21
    2c82:	28 8d       	ldd	r18, Y+24	; 0x18
    2c84:	39 8d       	ldd	r19, Y+25	; 0x19
    2c86:	4a 8d       	ldd	r20, Y+26	; 0x1a
    2c88:	5b 8d       	ldd	r21, Y+27	; 0x1b
    2c8a:	bc 01       	movw	r22, r24
    2c8c:	cd 01       	movw	r24, r26
    2c8e:	0e 94 61 39 	call	0x72c2	; 0x72c2 <__udivmodsi4>
    2c92:	2a 83       	std	Y+2, r18	; 0x02
    2c94:	3b 83       	std	Y+3, r19	; 0x03
    2c96:	4c 83       	std	Y+4, r20	; 0x04
    2c98:	5d 83       	std	Y+5, r21	; 0x05
    2c9a:	6e c0       	rjmp	.+220    	; 0x2d78 <usart_set_baudrate+0x32e>
		} else {
			baud <<= exp + 3;
    2c9c:	89 81       	ldd	r24, Y+1	; 0x01
    2c9e:	99 27       	eor	r25, r25
    2ca0:	87 fd       	sbrc	r24, 7
    2ca2:	90 95       	com	r25
    2ca4:	9c 01       	movw	r18, r24
    2ca6:	2d 5f       	subi	r18, 0xFD	; 253
    2ca8:	3f 4f       	sbci	r19, 0xFF	; 255
    2caa:	88 8d       	ldd	r24, Y+24	; 0x18
    2cac:	99 8d       	ldd	r25, Y+25	; 0x19
    2cae:	aa 8d       	ldd	r26, Y+26	; 0x1a
    2cb0:	bb 8d       	ldd	r27, Y+27	; 0x1b
    2cb2:	04 c0       	rjmp	.+8      	; 0x2cbc <usart_set_baudrate+0x272>
    2cb4:	88 0f       	add	r24, r24
    2cb6:	99 1f       	adc	r25, r25
    2cb8:	aa 1f       	adc	r26, r26
    2cba:	bb 1f       	adc	r27, r27
    2cbc:	2a 95       	dec	r18
    2cbe:	d2 f7       	brpl	.-12     	; 0x2cb4 <usart_set_baudrate+0x26a>
    2cc0:	88 8f       	std	Y+24, r24	; 0x18
    2cc2:	99 8f       	std	Y+25, r25	; 0x19
    2cc4:	aa 8f       	std	Y+26, r26	; 0x1a
    2cc6:	bb 8f       	std	Y+27, r27	; 0x1b
			div = (cpu_hz + baud / 2) / baud;
    2cc8:	88 8d       	ldd	r24, Y+24	; 0x18
    2cca:	99 8d       	ldd	r25, Y+25	; 0x19
    2ccc:	aa 8d       	ldd	r26, Y+26	; 0x1a
    2cce:	bb 8d       	ldd	r27, Y+27	; 0x1b
    2cd0:	9c 01       	movw	r18, r24
    2cd2:	ad 01       	movw	r20, r26
    2cd4:	56 95       	lsr	r21
    2cd6:	47 95       	ror	r20
    2cd8:	37 95       	ror	r19
    2cda:	27 95       	ror	r18
    2cdc:	8c 8d       	ldd	r24, Y+28	; 0x1c
    2cde:	9d 8d       	ldd	r25, Y+29	; 0x1d
    2ce0:	ae 8d       	ldd	r26, Y+30	; 0x1e
    2ce2:	bf 8d       	ldd	r27, Y+31	; 0x1f
    2ce4:	82 0f       	add	r24, r18
    2ce6:	93 1f       	adc	r25, r19
    2ce8:	a4 1f       	adc	r26, r20
    2cea:	b5 1f       	adc	r27, r21
    2cec:	28 8d       	ldd	r18, Y+24	; 0x18
    2cee:	39 8d       	ldd	r19, Y+25	; 0x19
    2cf0:	4a 8d       	ldd	r20, Y+26	; 0x1a
    2cf2:	5b 8d       	ldd	r21, Y+27	; 0x1b
    2cf4:	bc 01       	movw	r22, r24
    2cf6:	cd 01       	movw	r24, r26
    2cf8:	0e 94 61 39 	call	0x72c2	; 0x72c2 <__udivmodsi4>
    2cfc:	2a 83       	std	Y+2, r18	; 0x02
    2cfe:	3b 83       	std	Y+3, r19	; 0x03
    2d00:	4c 83       	std	Y+4, r20	; 0x04
    2d02:	5d 83       	std	Y+5, r21	; 0x05
    2d04:	39 c0       	rjmp	.+114    	; 0x2d78 <usart_set_baudrate+0x32e>
		}
	} else {
		/* We will always do a right shift in this case, but we need to
		 * shift three extra positions because of the divide-by-8.
		 */
		baud <<= exp + 3;
    2d06:	89 81       	ldd	r24, Y+1	; 0x01
    2d08:	99 27       	eor	r25, r25
    2d0a:	87 fd       	sbrc	r24, 7
    2d0c:	90 95       	com	r25
    2d0e:	9c 01       	movw	r18, r24
    2d10:	2d 5f       	subi	r18, 0xFD	; 253
    2d12:	3f 4f       	sbci	r19, 0xFF	; 255
    2d14:	88 8d       	ldd	r24, Y+24	; 0x18
    2d16:	99 8d       	ldd	r25, Y+25	; 0x19
    2d18:	aa 8d       	ldd	r26, Y+26	; 0x1a
    2d1a:	bb 8d       	ldd	r27, Y+27	; 0x1b
    2d1c:	04 c0       	rjmp	.+8      	; 0x2d26 <usart_set_baudrate+0x2dc>
    2d1e:	88 0f       	add	r24, r24
    2d20:	99 1f       	adc	r25, r25
    2d22:	aa 1f       	adc	r26, r26
    2d24:	bb 1f       	adc	r27, r27
    2d26:	2a 95       	dec	r18
    2d28:	d2 f7       	brpl	.-12     	; 0x2d1e <usart_set_baudrate+0x2d4>
    2d2a:	88 8f       	std	Y+24, r24	; 0x18
    2d2c:	99 8f       	std	Y+25, r25	; 0x19
    2d2e:	aa 8f       	std	Y+26, r26	; 0x1a
    2d30:	bb 8f       	std	Y+27, r27	; 0x1b
		div = (cpu_hz + baud / 2) / baud - 1;
    2d32:	88 8d       	ldd	r24, Y+24	; 0x18
    2d34:	99 8d       	ldd	r25, Y+25	; 0x19
    2d36:	aa 8d       	ldd	r26, Y+26	; 0x1a
    2d38:	bb 8d       	ldd	r27, Y+27	; 0x1b
    2d3a:	9c 01       	movw	r18, r24
    2d3c:	ad 01       	movw	r20, r26
    2d3e:	56 95       	lsr	r21
    2d40:	47 95       	ror	r20
    2d42:	37 95       	ror	r19
    2d44:	27 95       	ror	r18
    2d46:	8c 8d       	ldd	r24, Y+28	; 0x1c
    2d48:	9d 8d       	ldd	r25, Y+29	; 0x1d
    2d4a:	ae 8d       	ldd	r26, Y+30	; 0x1e
    2d4c:	bf 8d       	ldd	r27, Y+31	; 0x1f
    2d4e:	82 0f       	add	r24, r18
    2d50:	93 1f       	adc	r25, r19
    2d52:	a4 1f       	adc	r26, r20
    2d54:	b5 1f       	adc	r27, r21
    2d56:	28 8d       	ldd	r18, Y+24	; 0x18
    2d58:	39 8d       	ldd	r19, Y+25	; 0x19
    2d5a:	4a 8d       	ldd	r20, Y+26	; 0x1a
    2d5c:	5b 8d       	ldd	r21, Y+27	; 0x1b
    2d5e:	bc 01       	movw	r22, r24
    2d60:	cd 01       	movw	r24, r26
    2d62:	0e 94 61 39 	call	0x72c2	; 0x72c2 <__udivmodsi4>
    2d66:	da 01       	movw	r26, r20
    2d68:	c9 01       	movw	r24, r18
    2d6a:	01 97       	sbiw	r24, 0x01	; 1
    2d6c:	a1 09       	sbc	r26, r1
    2d6e:	b1 09       	sbc	r27, r1
    2d70:	8a 83       	std	Y+2, r24	; 0x02
    2d72:	9b 83       	std	Y+3, r25	; 0x03
    2d74:	ac 83       	std	Y+4, r26	; 0x04
    2d76:	bd 83       	std	Y+5, r27	; 0x05
	}

	(usart)->BAUDCTRLB = (uint8_t)(((div >> 8) & 0X0F) | (exp << 4));
    2d78:	8a 81       	ldd	r24, Y+2	; 0x02
    2d7a:	9b 81       	ldd	r25, Y+3	; 0x03
    2d7c:	ac 81       	ldd	r26, Y+4	; 0x04
    2d7e:	bd 81       	ldd	r27, Y+5	; 0x05
    2d80:	89 2f       	mov	r24, r25
    2d82:	9a 2f       	mov	r25, r26
    2d84:	ab 2f       	mov	r26, r27
    2d86:	bb 27       	eor	r27, r27
    2d88:	98 2f       	mov	r25, r24
    2d8a:	9f 70       	andi	r25, 0x0F	; 15
    2d8c:	89 81       	ldd	r24, Y+1	; 0x01
    2d8e:	82 95       	swap	r24
    2d90:	80 7f       	andi	r24, 0xF0	; 240
    2d92:	29 2f       	mov	r18, r25
    2d94:	28 2b       	or	r18, r24
    2d96:	8e 89       	ldd	r24, Y+22	; 0x16
    2d98:	9f 89       	ldd	r25, Y+23	; 0x17
    2d9a:	fc 01       	movw	r30, r24
    2d9c:	27 83       	std	Z+7, r18	; 0x07
	(usart)->BAUDCTRLA = (uint8_t)div;
    2d9e:	2a 81       	ldd	r18, Y+2	; 0x02
    2da0:	8e 89       	ldd	r24, Y+22	; 0x16
    2da2:	9f 89       	ldd	r25, Y+23	; 0x17
    2da4:	fc 01       	movw	r30, r24
    2da6:	26 83       	std	Z+6, r18	; 0x06

	return true;
    2da8:	81 e0       	ldi	r24, 0x01	; 1
}
    2daa:	6f 96       	adiw	r28, 0x1f	; 31
    2dac:	cd bf       	out	0x3d, r28	; 61
    2dae:	de bf       	out	0x3e, r29	; 62
    2db0:	df 91       	pop	r29
    2db2:	cf 91       	pop	r28
    2db4:	1f 91       	pop	r17
    2db6:	0f 91       	pop	r16
    2db8:	ff 90       	pop	r15
    2dba:	ef 90       	pop	r14
    2dbc:	08 95       	ret

00002dbe <cpu_irq_save>:
	showMeByte(255);
	uint8_t ERROR[] = {25,24,15};
	while(1)
	{
		transmit(ERROR,3);
	}
    2dbe:	cf 93       	push	r28
    2dc0:	df 93       	push	r29
    2dc2:	1f 92       	push	r1
    2dc4:	cd b7       	in	r28, 0x3d	; 61
    2dc6:	de b7       	in	r29, 0x3e	; 62
    2dc8:	8f e3       	ldi	r24, 0x3F	; 63
    2dca:	90 e0       	ldi	r25, 0x00	; 0
    2dcc:	fc 01       	movw	r30, r24
    2dce:	80 81       	ld	r24, Z
    2dd0:	89 83       	std	Y+1, r24	; 0x01
    2dd2:	f8 94       	cli
    2dd4:	89 81       	ldd	r24, Y+1	; 0x01
    2dd6:	0f 90       	pop	r0
    2dd8:	df 91       	pop	r29
    2dda:	cf 91       	pop	r28
    2ddc:	08 95       	ret

00002dde <cpu_irq_restore>:
    2dde:	cf 93       	push	r28
    2de0:	df 93       	push	r29
    2de2:	1f 92       	push	r1
    2de4:	cd b7       	in	r28, 0x3d	; 61
    2de6:	de b7       	in	r29, 0x3e	; 62
    2de8:	89 83       	std	Y+1, r24	; 0x01
    2dea:	8f e3       	ldi	r24, 0x3F	; 63
    2dec:	90 e0       	ldi	r25, 0x00	; 0
    2dee:	29 81       	ldd	r18, Y+1	; 0x01
    2df0:	fc 01       	movw	r30, r24
    2df2:	20 83       	st	Z, r18
    2df4:	0f 90       	pop	r0
    2df6:	df 91       	pop	r29
    2df8:	cf 91       	pop	r28
    2dfa:	08 95       	ret

00002dfc <osc_enable_internal>:
    2dfc:	cf 93       	push	r28
    2dfe:	df 93       	push	r29
    2e00:	00 d0       	rcall	.+0      	; 0x2e02 <osc_enable_internal+0x6>
    2e02:	cd b7       	in	r28, 0x3d	; 61
    2e04:	de b7       	in	r29, 0x3e	; 62
    2e06:	8a 83       	std	Y+2, r24	; 0x02
    2e08:	da df       	rcall	.-76     	; 0x2dbe <cpu_irq_save>
    2e0a:	89 83       	std	Y+1, r24	; 0x01
    2e0c:	80 e5       	ldi	r24, 0x50	; 80
    2e0e:	90 e0       	ldi	r25, 0x00	; 0
    2e10:	20 e5       	ldi	r18, 0x50	; 80
    2e12:	30 e0       	ldi	r19, 0x00	; 0
    2e14:	f9 01       	movw	r30, r18
    2e16:	30 81       	ld	r19, Z
    2e18:	2a 81       	ldd	r18, Y+2	; 0x02
    2e1a:	23 2b       	or	r18, r19
    2e1c:	fc 01       	movw	r30, r24
    2e1e:	20 83       	st	Z, r18
    2e20:	89 81       	ldd	r24, Y+1	; 0x01
    2e22:	dd df       	rcall	.-70     	; 0x2dde <cpu_irq_restore>
    2e24:	0f 90       	pop	r0
    2e26:	0f 90       	pop	r0
    2e28:	df 91       	pop	r29
    2e2a:	cf 91       	pop	r28
    2e2c:	08 95       	ret

00002e2e <osc_enable_external>:
    2e2e:	cf 93       	push	r28
    2e30:	df 93       	push	r29
    2e32:	1f 92       	push	r1
    2e34:	cd b7       	in	r28, 0x3d	; 61
    2e36:	de b7       	in	r29, 0x3e	; 62
    2e38:	89 83       	std	Y+1, r24	; 0x01
    2e3a:	0f 90       	pop	r0
    2e3c:	df 91       	pop	r29
    2e3e:	cf 91       	pop	r28
    2e40:	08 95       	ret

00002e42 <osc_disable>:
    2e42:	cf 93       	push	r28
    2e44:	df 93       	push	r29
    2e46:	00 d0       	rcall	.+0      	; 0x2e48 <osc_disable+0x6>
    2e48:	cd b7       	in	r28, 0x3d	; 61
    2e4a:	de b7       	in	r29, 0x3e	; 62
    2e4c:	8a 83       	std	Y+2, r24	; 0x02
    2e4e:	b7 df       	rcall	.-146    	; 0x2dbe <cpu_irq_save>
    2e50:	89 83       	std	Y+1, r24	; 0x01
    2e52:	80 e5       	ldi	r24, 0x50	; 80
    2e54:	90 e0       	ldi	r25, 0x00	; 0
    2e56:	20 e5       	ldi	r18, 0x50	; 80
    2e58:	30 e0       	ldi	r19, 0x00	; 0
    2e5a:	f9 01       	movw	r30, r18
    2e5c:	20 81       	ld	r18, Z
    2e5e:	32 2f       	mov	r19, r18
    2e60:	2a 81       	ldd	r18, Y+2	; 0x02
    2e62:	20 95       	com	r18
    2e64:	23 23       	and	r18, r19
    2e66:	fc 01       	movw	r30, r24
    2e68:	20 83       	st	Z, r18
    2e6a:	89 81       	ldd	r24, Y+1	; 0x01
    2e6c:	b8 df       	rcall	.-144    	; 0x2dde <cpu_irq_restore>
    2e6e:	0f 90       	pop	r0
    2e70:	0f 90       	pop	r0
    2e72:	df 91       	pop	r29
    2e74:	cf 91       	pop	r28
    2e76:	08 95       	ret

00002e78 <osc_enable>:
    2e78:	cf 93       	push	r28
    2e7a:	df 93       	push	r29
    2e7c:	1f 92       	push	r1
    2e7e:	cd b7       	in	r28, 0x3d	; 61
    2e80:	de b7       	in	r29, 0x3e	; 62
    2e82:	89 83       	std	Y+1, r24	; 0x01
    2e84:	89 81       	ldd	r24, Y+1	; 0x01
    2e86:	88 30       	cpi	r24, 0x08	; 8
    2e88:	19 f0       	breq	.+6      	; 0x2e90 <osc_enable+0x18>
    2e8a:	89 81       	ldd	r24, Y+1	; 0x01
    2e8c:	b7 df       	rcall	.-146    	; 0x2dfc <osc_enable_internal>
    2e8e:	02 c0       	rjmp	.+4      	; 0x2e94 <osc_enable+0x1c>
    2e90:	89 81       	ldd	r24, Y+1	; 0x01
    2e92:	cd df       	rcall	.-102    	; 0x2e2e <osc_enable_external>
    2e94:	0f 90       	pop	r0
    2e96:	df 91       	pop	r29
    2e98:	cf 91       	pop	r28
    2e9a:	08 95       	ret

00002e9c <osc_is_ready>:
    2e9c:	cf 93       	push	r28
    2e9e:	df 93       	push	r29
    2ea0:	1f 92       	push	r1
    2ea2:	cd b7       	in	r28, 0x3d	; 61
    2ea4:	de b7       	in	r29, 0x3e	; 62
    2ea6:	89 83       	std	Y+1, r24	; 0x01
    2ea8:	80 e5       	ldi	r24, 0x50	; 80
    2eaa:	90 e0       	ldi	r25, 0x00	; 0
    2eac:	fc 01       	movw	r30, r24
    2eae:	91 81       	ldd	r25, Z+1	; 0x01
    2eb0:	89 81       	ldd	r24, Y+1	; 0x01
    2eb2:	98 23       	and	r25, r24
    2eb4:	81 e0       	ldi	r24, 0x01	; 1
    2eb6:	99 23       	and	r25, r25
    2eb8:	09 f4       	brne	.+2      	; 0x2ebc <osc_is_ready+0x20>
    2eba:	80 e0       	ldi	r24, 0x00	; 0
    2ebc:	0f 90       	pop	r0
    2ebe:	df 91       	pop	r29
    2ec0:	cf 91       	pop	r28
    2ec2:	08 95       	ret

00002ec4 <osc_wait_ready>:
    2ec4:	cf 93       	push	r28
    2ec6:	df 93       	push	r29
    2ec8:	1f 92       	push	r1
    2eca:	cd b7       	in	r28, 0x3d	; 61
    2ecc:	de b7       	in	r29, 0x3e	; 62
    2ece:	89 83       	std	Y+1, r24	; 0x01
    2ed0:	00 00       	nop
    2ed2:	89 81       	ldd	r24, Y+1	; 0x01
    2ed4:	e3 df       	rcall	.-58     	; 0x2e9c <osc_is_ready>
    2ed6:	98 2f       	mov	r25, r24
    2ed8:	81 e0       	ldi	r24, 0x01	; 1
    2eda:	89 27       	eor	r24, r25
    2edc:	88 23       	and	r24, r24
    2ede:	c9 f7       	brne	.-14     	; 0x2ed2 <osc_wait_ready+0xe>
    2ee0:	0f 90       	pop	r0
    2ee2:	df 91       	pop	r29
    2ee4:	cf 91       	pop	r28
    2ee6:	08 95       	ret

00002ee8 <sysclk_get_main_hz>:
    2ee8:	cf 93       	push	r28
    2eea:	df 93       	push	r29
    2eec:	cd b7       	in	r28, 0x3d	; 61
    2eee:	de b7       	in	r29, 0x3e	; 62
    2ef0:	80 e0       	ldi	r24, 0x00	; 0
    2ef2:	98 e4       	ldi	r25, 0x48	; 72
    2ef4:	a8 ee       	ldi	r26, 0xE8	; 232
    2ef6:	b1 e0       	ldi	r27, 0x01	; 1
    2ef8:	bc 01       	movw	r22, r24
    2efa:	cd 01       	movw	r24, r26
    2efc:	df 91       	pop	r29
    2efe:	cf 91       	pop	r28
    2f00:	08 95       	ret

00002f02 <sysclk_get_per4_hz>:
    2f02:	cf 93       	push	r28
    2f04:	df 93       	push	r29
    2f06:	1f 92       	push	r1
    2f08:	cd b7       	in	r28, 0x3d	; 61
    2f0a:	de b7       	in	r29, 0x3e	; 62
    2f0c:	19 82       	std	Y+1, r1	; 0x01
    2f0e:	ec df       	rcall	.-40     	; 0x2ee8 <sysclk_get_main_hz>
    2f10:	dc 01       	movw	r26, r24
    2f12:	cb 01       	movw	r24, r22
    2f14:	29 81       	ldd	r18, Y+1	; 0x01
    2f16:	22 2f       	mov	r18, r18
    2f18:	30 e0       	ldi	r19, 0x00	; 0
    2f1a:	02 2e       	mov	r0, r18
    2f1c:	04 c0       	rjmp	.+8      	; 0x2f26 <sysclk_get_per4_hz+0x24>
    2f1e:	b6 95       	lsr	r27
    2f20:	a7 95       	ror	r26
    2f22:	97 95       	ror	r25
    2f24:	87 95       	ror	r24
    2f26:	0a 94       	dec	r0
    2f28:	d2 f7       	brpl	.-12     	; 0x2f1e <sysclk_get_per4_hz+0x1c>
    2f2a:	bc 01       	movw	r22, r24
    2f2c:	cd 01       	movw	r24, r26
    2f2e:	0f 90       	pop	r0
    2f30:	df 91       	pop	r29
    2f32:	cf 91       	pop	r28
    2f34:	08 95       	ret

00002f36 <sysclk_get_per2_hz>:
    2f36:	cf 93       	push	r28
    2f38:	df 93       	push	r29
    2f3a:	cd b7       	in	r28, 0x3d	; 61
    2f3c:	de b7       	in	r29, 0x3e	; 62
    2f3e:	e1 df       	rcall	.-62     	; 0x2f02 <sysclk_get_per4_hz>
    2f40:	dc 01       	movw	r26, r24
    2f42:	cb 01       	movw	r24, r22
    2f44:	bc 01       	movw	r22, r24
    2f46:	cd 01       	movw	r24, r26
    2f48:	df 91       	pop	r29
    2f4a:	cf 91       	pop	r28
    2f4c:	08 95       	ret

00002f4e <sysclk_get_per_hz>:
    2f4e:	cf 93       	push	r28
    2f50:	df 93       	push	r29
    2f52:	cd b7       	in	r28, 0x3d	; 61
    2f54:	de b7       	in	r29, 0x3e	; 62
    2f56:	ef df       	rcall	.-34     	; 0x2f36 <sysclk_get_per2_hz>
    2f58:	dc 01       	movw	r26, r24
    2f5a:	cb 01       	movw	r24, r22
    2f5c:	bc 01       	movw	r22, r24
    2f5e:	cd 01       	movw	r24, r26
    2f60:	df 91       	pop	r29
    2f62:	cf 91       	pop	r28
    2f64:	08 95       	ret

00002f66 <sysclk_get_cpu_hz>:
    2f66:	cf 93       	push	r28
    2f68:	df 93       	push	r29
    2f6a:	cd b7       	in	r28, 0x3d	; 61
    2f6c:	de b7       	in	r29, 0x3e	; 62
    2f6e:	ef df       	rcall	.-34     	; 0x2f4e <sysclk_get_per_hz>
    2f70:	dc 01       	movw	r26, r24
    2f72:	cb 01       	movw	r24, r22
    2f74:	bc 01       	movw	r22, r24
    2f76:	cd 01       	movw	r24, r26
    2f78:	df 91       	pop	r29
    2f7a:	cf 91       	pop	r28
    2f7c:	08 95       	ret

00002f7e <__portable_avr_delay_cycles>:
    2f7e:	61 50       	subi	r22, 0x01	; 1
    2f80:	71 09       	sbc	r23, r1
    2f82:	81 09       	sbc	r24, r1
    2f84:	91 09       	sbc	r25, r1
    2f86:	d9 f7       	brne	.-10     	; 0x2f7e <__portable_avr_delay_cycles>
    2f88:	08 95       	ret

00002f8a <ioport_set_value>:
    2f8a:	cf 93       	push	r28
    2f8c:	df 93       	push	r29
    2f8e:	cd b7       	in	r28, 0x3d	; 61
    2f90:	de b7       	in	r29, 0x3e	; 62
    2f92:	2b 97       	sbiw	r28, 0x0b	; 11
    2f94:	cd bf       	out	0x3d, r28	; 61
    2f96:	de bf       	out	0x3e, r29	; 62
    2f98:	8a 87       	std	Y+10, r24	; 0x0a
    2f9a:	6b 87       	std	Y+11, r22	; 0x0b
    2f9c:	8a 85       	ldd	r24, Y+10	; 0x0a
    2f9e:	89 83       	std	Y+1, r24	; 0x01
    2fa0:	8b 85       	ldd	r24, Y+11	; 0x0b
    2fa2:	8a 83       	std	Y+2, r24	; 0x02
    2fa4:	89 81       	ldd	r24, Y+1	; 0x01
    2fa6:	8b 83       	std	Y+3, r24	; 0x03
    2fa8:	8b 81       	ldd	r24, Y+3	; 0x03
    2faa:	8c 83       	std	Y+4, r24	; 0x04
    2fac:	8c 81       	ldd	r24, Y+4	; 0x04
    2fae:	86 95       	lsr	r24
    2fb0:	86 95       	lsr	r24
    2fb2:	86 95       	lsr	r24
    2fb4:	8d 83       	std	Y+5, r24	; 0x05
    2fb6:	8d 81       	ldd	r24, Y+5	; 0x05
    2fb8:	88 2f       	mov	r24, r24
    2fba:	90 e0       	ldi	r25, 0x00	; 0
    2fbc:	88 0f       	add	r24, r24
    2fbe:	99 1f       	adc	r25, r25
    2fc0:	82 95       	swap	r24
    2fc2:	92 95       	swap	r25
    2fc4:	90 7f       	andi	r25, 0xF0	; 240
    2fc6:	98 27       	eor	r25, r24
    2fc8:	80 7f       	andi	r24, 0xF0	; 240
    2fca:	98 27       	eor	r25, r24
    2fcc:	9a 5f       	subi	r25, 0xFA	; 250
    2fce:	8e 83       	std	Y+6, r24	; 0x06
    2fd0:	9f 83       	std	Y+7, r25	; 0x07
    2fd2:	8a 81       	ldd	r24, Y+2	; 0x02
    2fd4:	88 23       	and	r24, r24
    2fd6:	a9 f0       	breq	.+42     	; 0x3002 <__stack+0x3>
    2fd8:	89 81       	ldd	r24, Y+1	; 0x01
    2fda:	88 87       	std	Y+8, r24	; 0x08
    2fdc:	88 85       	ldd	r24, Y+8	; 0x08
    2fde:	88 2f       	mov	r24, r24
    2fe0:	90 e0       	ldi	r25, 0x00	; 0
    2fe2:	9c 01       	movw	r18, r24
    2fe4:	27 70       	andi	r18, 0x07	; 7
    2fe6:	33 27       	eor	r19, r19
    2fe8:	81 e0       	ldi	r24, 0x01	; 1
    2fea:	90 e0       	ldi	r25, 0x00	; 0
    2fec:	02 c0       	rjmp	.+4      	; 0x2ff2 <ioport_set_value+0x68>
    2fee:	88 0f       	add	r24, r24
    2ff0:	99 1f       	adc	r25, r25
    2ff2:	2a 95       	dec	r18
    2ff4:	e2 f7       	brpl	.-8      	; 0x2fee <ioport_set_value+0x64>
    2ff6:	28 2f       	mov	r18, r24
    2ff8:	8e 81       	ldd	r24, Y+6	; 0x06
    2ffa:	9f 81       	ldd	r25, Y+7	; 0x07
    2ffc:	fc 01       	movw	r30, r24
    2ffe:	25 83       	std	Z+5, r18	; 0x05
    3000:	14 c0       	rjmp	.+40     	; 0x302a <__stack+0x2b>
    3002:	89 81       	ldd	r24, Y+1	; 0x01
    3004:	89 87       	std	Y+9, r24	; 0x09
    3006:	89 85       	ldd	r24, Y+9	; 0x09
    3008:	88 2f       	mov	r24, r24
    300a:	90 e0       	ldi	r25, 0x00	; 0
    300c:	9c 01       	movw	r18, r24
    300e:	27 70       	andi	r18, 0x07	; 7
    3010:	33 27       	eor	r19, r19
    3012:	81 e0       	ldi	r24, 0x01	; 1
    3014:	90 e0       	ldi	r25, 0x00	; 0
    3016:	02 c0       	rjmp	.+4      	; 0x301c <__stack+0x1d>
    3018:	88 0f       	add	r24, r24
    301a:	99 1f       	adc	r25, r25
    301c:	2a 95       	dec	r18
    301e:	e2 f7       	brpl	.-8      	; 0x3018 <__stack+0x19>
    3020:	28 2f       	mov	r18, r24
    3022:	8e 81       	ldd	r24, Y+6	; 0x06
    3024:	9f 81       	ldd	r25, Y+7	; 0x07
    3026:	fc 01       	movw	r30, r24
    3028:	26 83       	std	Z+6, r18	; 0x06
    302a:	2b 96       	adiw	r28, 0x0b	; 11
    302c:	cd bf       	out	0x3d, r28	; 61
    302e:	de bf       	out	0x3e, r29	; 62
    3030:	df 91       	pop	r29
    3032:	cf 91       	pop	r28
    3034:	08 95       	ret

00003036 <ioport_toggle_pin>:
    3036:	cf 93       	push	r28
    3038:	df 93       	push	r29
    303a:	cd b7       	in	r28, 0x3d	; 61
    303c:	de b7       	in	r29, 0x3e	; 62
    303e:	28 97       	sbiw	r28, 0x08	; 8
    3040:	cd bf       	out	0x3d, r28	; 61
    3042:	de bf       	out	0x3e, r29	; 62
    3044:	88 87       	std	Y+8, r24	; 0x08
    3046:	88 85       	ldd	r24, Y+8	; 0x08
    3048:	89 83       	std	Y+1, r24	; 0x01
    304a:	89 81       	ldd	r24, Y+1	; 0x01
    304c:	8a 83       	std	Y+2, r24	; 0x02
    304e:	8a 81       	ldd	r24, Y+2	; 0x02
    3050:	8b 83       	std	Y+3, r24	; 0x03
    3052:	8b 81       	ldd	r24, Y+3	; 0x03
    3054:	86 95       	lsr	r24
    3056:	86 95       	lsr	r24
    3058:	86 95       	lsr	r24
    305a:	8c 83       	std	Y+4, r24	; 0x04
    305c:	8c 81       	ldd	r24, Y+4	; 0x04
    305e:	88 2f       	mov	r24, r24
    3060:	90 e0       	ldi	r25, 0x00	; 0
    3062:	88 0f       	add	r24, r24
    3064:	99 1f       	adc	r25, r25
    3066:	82 95       	swap	r24
    3068:	92 95       	swap	r25
    306a:	90 7f       	andi	r25, 0xF0	; 240
    306c:	98 27       	eor	r25, r24
    306e:	80 7f       	andi	r24, 0xF0	; 240
    3070:	98 27       	eor	r25, r24
    3072:	9a 5f       	subi	r25, 0xFA	; 250
    3074:	8d 83       	std	Y+5, r24	; 0x05
    3076:	9e 83       	std	Y+6, r25	; 0x06
    3078:	89 81       	ldd	r24, Y+1	; 0x01
    307a:	8f 83       	std	Y+7, r24	; 0x07
    307c:	8f 81       	ldd	r24, Y+7	; 0x07
    307e:	88 2f       	mov	r24, r24
    3080:	90 e0       	ldi	r25, 0x00	; 0
    3082:	9c 01       	movw	r18, r24
    3084:	27 70       	andi	r18, 0x07	; 7
    3086:	33 27       	eor	r19, r19
    3088:	81 e0       	ldi	r24, 0x01	; 1
    308a:	90 e0       	ldi	r25, 0x00	; 0
    308c:	02 c0       	rjmp	.+4      	; 0x3092 <ioport_toggle_pin+0x5c>
    308e:	88 0f       	add	r24, r24
    3090:	99 1f       	adc	r25, r25
    3092:	2a 95       	dec	r18
    3094:	e2 f7       	brpl	.-8      	; 0x308e <ioport_toggle_pin+0x58>
    3096:	28 2f       	mov	r18, r24
    3098:	8d 81       	ldd	r24, Y+5	; 0x05
    309a:	9e 81       	ldd	r25, Y+6	; 0x06
    309c:	fc 01       	movw	r30, r24
    309e:	27 83       	std	Z+7, r18	; 0x07
    30a0:	28 96       	adiw	r28, 0x08	; 8
    30a2:	cd bf       	out	0x3d, r28	; 61
    30a4:	de bf       	out	0x3e, r29	; 62
    30a6:	df 91       	pop	r29
    30a8:	cf 91       	pop	r28
    30aa:	08 95       	ret

000030ac <pmic_init>:
    30ac:	cf 93       	push	r28
    30ae:	df 93       	push	r29
    30b0:	cd b7       	in	r28, 0x3d	; 61
    30b2:	de b7       	in	r29, 0x3e	; 62
    30b4:	80 ea       	ldi	r24, 0xA0	; 160
    30b6:	90 e0       	ldi	r25, 0x00	; 0
    30b8:	27 e0       	ldi	r18, 0x07	; 7
    30ba:	fc 01       	movw	r30, r24
    30bc:	22 83       	std	Z+2, r18	; 0x02
    30be:	df 91       	pop	r29
    30c0:	cf 91       	pop	r28
    30c2:	08 95       	ret

000030c4 <spi_enable>:
    30c4:	cf 93       	push	r28
    30c6:	df 93       	push	r29
    30c8:	00 d0       	rcall	.+0      	; 0x30ca <spi_enable+0x6>
    30ca:	cd b7       	in	r28, 0x3d	; 61
    30cc:	de b7       	in	r29, 0x3e	; 62
    30ce:	89 83       	std	Y+1, r24	; 0x01
    30d0:	9a 83       	std	Y+2, r25	; 0x02
    30d2:	89 81       	ldd	r24, Y+1	; 0x01
    30d4:	9a 81       	ldd	r25, Y+2	; 0x02
    30d6:	fc 01       	movw	r30, r24
    30d8:	80 81       	ld	r24, Z
    30da:	28 2f       	mov	r18, r24
    30dc:	20 64       	ori	r18, 0x40	; 64
    30de:	89 81       	ldd	r24, Y+1	; 0x01
    30e0:	9a 81       	ldd	r25, Y+2	; 0x02
    30e2:	fc 01       	movw	r30, r24
    30e4:	20 83       	st	Z, r18
    30e6:	0f 90       	pop	r0
    30e8:	0f 90       	pop	r0
    30ea:	df 91       	pop	r29
    30ec:	cf 91       	pop	r28
    30ee:	08 95       	ret

000030f0 <spi_put>:
    30f0:	cf 93       	push	r28
    30f2:	df 93       	push	r29
    30f4:	00 d0       	rcall	.+0      	; 0x30f6 <spi_put+0x6>
    30f6:	1f 92       	push	r1
    30f8:	cd b7       	in	r28, 0x3d	; 61
    30fa:	de b7       	in	r29, 0x3e	; 62
    30fc:	89 83       	std	Y+1, r24	; 0x01
    30fe:	9a 83       	std	Y+2, r25	; 0x02
    3100:	6b 83       	std	Y+3, r22	; 0x03
    3102:	89 81       	ldd	r24, Y+1	; 0x01
    3104:	9a 81       	ldd	r25, Y+2	; 0x02
    3106:	2b 81       	ldd	r18, Y+3	; 0x03
    3108:	fc 01       	movw	r30, r24
    310a:	23 83       	std	Z+3, r18	; 0x03
    310c:	23 96       	adiw	r28, 0x03	; 3
    310e:	cd bf       	out	0x3d, r28	; 61
    3110:	de bf       	out	0x3e, r29	; 62
    3112:	df 91       	pop	r29
    3114:	cf 91       	pop	r28
    3116:	08 95       	ret

00003118 <spi_get>:
    3118:	cf 93       	push	r28
    311a:	df 93       	push	r29
    311c:	00 d0       	rcall	.+0      	; 0x311e <spi_get+0x6>
    311e:	cd b7       	in	r28, 0x3d	; 61
    3120:	de b7       	in	r29, 0x3e	; 62
    3122:	89 83       	std	Y+1, r24	; 0x01
    3124:	9a 83       	std	Y+2, r25	; 0x02
    3126:	89 81       	ldd	r24, Y+1	; 0x01
    3128:	9a 81       	ldd	r25, Y+2	; 0x02
    312a:	fc 01       	movw	r30, r24
    312c:	83 81       	ldd	r24, Z+3	; 0x03
    312e:	0f 90       	pop	r0
    3130:	0f 90       	pop	r0
    3132:	df 91       	pop	r29
    3134:	cf 91       	pop	r28
    3136:	08 95       	ret

00003138 <tc_set_overflow_interrupt_level>:
    3138:	cf 93       	push	r28
    313a:	df 93       	push	r29
    313c:	00 d0       	rcall	.+0      	; 0x313e <tc_set_overflow_interrupt_level+0x6>
    313e:	00 d0       	rcall	.+0      	; 0x3140 <tc_set_overflow_interrupt_level+0x8>
    3140:	cd b7       	in	r28, 0x3d	; 61
    3142:	de b7       	in	r29, 0x3e	; 62
    3144:	89 83       	std	Y+1, r24	; 0x01
    3146:	9a 83       	std	Y+2, r25	; 0x02
    3148:	6b 83       	std	Y+3, r22	; 0x03
    314a:	7c 83       	std	Y+4, r23	; 0x04
    314c:	89 81       	ldd	r24, Y+1	; 0x01
    314e:	9a 81       	ldd	r25, Y+2	; 0x02
    3150:	fc 01       	movw	r30, r24
    3152:	86 81       	ldd	r24, Z+6	; 0x06
    3154:	28 2f       	mov	r18, r24
    3156:	2c 7f       	andi	r18, 0xFC	; 252
    3158:	89 81       	ldd	r24, Y+1	; 0x01
    315a:	9a 81       	ldd	r25, Y+2	; 0x02
    315c:	fc 01       	movw	r30, r24
    315e:	26 83       	std	Z+6, r18	; 0x06
    3160:	89 81       	ldd	r24, Y+1	; 0x01
    3162:	9a 81       	ldd	r25, Y+2	; 0x02
    3164:	fc 01       	movw	r30, r24
    3166:	96 81       	ldd	r25, Z+6	; 0x06
    3168:	8b 81       	ldd	r24, Y+3	; 0x03
    316a:	29 2f       	mov	r18, r25
    316c:	28 2b       	or	r18, r24
    316e:	89 81       	ldd	r24, Y+1	; 0x01
    3170:	9a 81       	ldd	r25, Y+2	; 0x02
    3172:	fc 01       	movw	r30, r24
    3174:	26 83       	std	Z+6, r18	; 0x06
    3176:	24 96       	adiw	r28, 0x04	; 4
    3178:	cd bf       	out	0x3d, r28	; 61
    317a:	de bf       	out	0x3e, r29	; 62
    317c:	df 91       	pop	r29
    317e:	cf 91       	pop	r28
    3180:	08 95       	ret

00003182 <tc_write_clock_source>:
    3182:	cf 93       	push	r28
    3184:	df 93       	push	r29
    3186:	00 d0       	rcall	.+0      	; 0x3188 <tc_write_clock_source+0x6>
    3188:	00 d0       	rcall	.+0      	; 0x318a <tc_write_clock_source+0x8>
    318a:	cd b7       	in	r28, 0x3d	; 61
    318c:	de b7       	in	r29, 0x3e	; 62
    318e:	89 83       	std	Y+1, r24	; 0x01
    3190:	9a 83       	std	Y+2, r25	; 0x02
    3192:	6b 83       	std	Y+3, r22	; 0x03
    3194:	7c 83       	std	Y+4, r23	; 0x04
    3196:	89 81       	ldd	r24, Y+1	; 0x01
    3198:	9a 81       	ldd	r25, Y+2	; 0x02
    319a:	fc 01       	movw	r30, r24
    319c:	80 81       	ld	r24, Z
    319e:	98 2f       	mov	r25, r24
    31a0:	90 7f       	andi	r25, 0xF0	; 240
    31a2:	8b 81       	ldd	r24, Y+3	; 0x03
    31a4:	29 2f       	mov	r18, r25
    31a6:	28 2b       	or	r18, r24
    31a8:	89 81       	ldd	r24, Y+1	; 0x01
    31aa:	9a 81       	ldd	r25, Y+2	; 0x02
    31ac:	fc 01       	movw	r30, r24
    31ae:	20 83       	st	Z, r18
    31b0:	24 96       	adiw	r28, 0x04	; 4
    31b2:	cd bf       	out	0x3d, r28	; 61
    31b4:	de bf       	out	0x3e, r29	; 62
    31b6:	df 91       	pop	r29
    31b8:	cf 91       	pop	r28
    31ba:	08 95       	ret

000031bc <tc_set_wgm>:
    31bc:	cf 93       	push	r28
    31be:	df 93       	push	r29
    31c0:	00 d0       	rcall	.+0      	; 0x31c2 <tc_set_wgm+0x6>
    31c2:	00 d0       	rcall	.+0      	; 0x31c4 <tc_set_wgm+0x8>
    31c4:	cd b7       	in	r28, 0x3d	; 61
    31c6:	de b7       	in	r29, 0x3e	; 62
    31c8:	89 83       	std	Y+1, r24	; 0x01
    31ca:	9a 83       	std	Y+2, r25	; 0x02
    31cc:	6b 83       	std	Y+3, r22	; 0x03
    31ce:	7c 83       	std	Y+4, r23	; 0x04
    31d0:	89 81       	ldd	r24, Y+1	; 0x01
    31d2:	9a 81       	ldd	r25, Y+2	; 0x02
    31d4:	fc 01       	movw	r30, r24
    31d6:	81 81       	ldd	r24, Z+1	; 0x01
    31d8:	98 2f       	mov	r25, r24
    31da:	98 7f       	andi	r25, 0xF8	; 248
    31dc:	8b 81       	ldd	r24, Y+3	; 0x03
    31de:	29 2f       	mov	r18, r25
    31e0:	28 2b       	or	r18, r24
    31e2:	89 81       	ldd	r24, Y+1	; 0x01
    31e4:	9a 81       	ldd	r25, Y+2	; 0x02
    31e6:	fc 01       	movw	r30, r24
    31e8:	21 83       	std	Z+1, r18	; 0x01
    31ea:	24 96       	adiw	r28, 0x04	; 4
    31ec:	cd bf       	out	0x3d, r28	; 61
    31ee:	de bf       	out	0x3e, r29	; 62
    31f0:	df 91       	pop	r29
    31f2:	cf 91       	pop	r28
    31f4:	08 95       	ret

000031f6 <usart_set_rx_interrupt_level>:
    31f6:	cf 93       	push	r28
    31f8:	df 93       	push	r29
    31fa:	00 d0       	rcall	.+0      	; 0x31fc <usart_set_rx_interrupt_level+0x6>
    31fc:	00 d0       	rcall	.+0      	; 0x31fe <usart_set_rx_interrupt_level+0x8>
    31fe:	cd b7       	in	r28, 0x3d	; 61
    3200:	de b7       	in	r29, 0x3e	; 62
    3202:	89 83       	std	Y+1, r24	; 0x01
    3204:	9a 83       	std	Y+2, r25	; 0x02
    3206:	6b 83       	std	Y+3, r22	; 0x03
    3208:	7c 83       	std	Y+4, r23	; 0x04
    320a:	89 81       	ldd	r24, Y+1	; 0x01
    320c:	9a 81       	ldd	r25, Y+2	; 0x02
    320e:	fc 01       	movw	r30, r24
    3210:	83 81       	ldd	r24, Z+3	; 0x03
    3212:	98 2f       	mov	r25, r24
    3214:	9f 7c       	andi	r25, 0xCF	; 207
    3216:	8b 81       	ldd	r24, Y+3	; 0x03
    3218:	82 95       	swap	r24
    321a:	80 7f       	andi	r24, 0xF0	; 240
    321c:	29 2f       	mov	r18, r25
    321e:	28 2b       	or	r18, r24
    3220:	89 81       	ldd	r24, Y+1	; 0x01
    3222:	9a 81       	ldd	r25, Y+2	; 0x02
    3224:	fc 01       	movw	r30, r24
    3226:	23 83       	std	Z+3, r18	; 0x03
    3228:	24 96       	adiw	r28, 0x04	; 4
    322a:	cd bf       	out	0x3d, r28	; 61
    322c:	de bf       	out	0x3e, r29	; 62
    322e:	df 91       	pop	r29
    3230:	cf 91       	pop	r28
    3232:	08 95       	ret

00003234 <usart_put>:
    3234:	cf 93       	push	r28
    3236:	df 93       	push	r29
    3238:	00 d0       	rcall	.+0      	; 0x323a <usart_put+0x6>
    323a:	1f 92       	push	r1
    323c:	cd b7       	in	r28, 0x3d	; 61
    323e:	de b7       	in	r29, 0x3e	; 62
    3240:	89 83       	std	Y+1, r24	; 0x01
    3242:	9a 83       	std	Y+2, r25	; 0x02
    3244:	6b 83       	std	Y+3, r22	; 0x03
    3246:	89 81       	ldd	r24, Y+1	; 0x01
    3248:	9a 81       	ldd	r25, Y+2	; 0x02
    324a:	2b 81       	ldd	r18, Y+3	; 0x03
    324c:	fc 01       	movw	r30, r24
    324e:	20 83       	st	Z, r18
    3250:	23 96       	adiw	r28, 0x03	; 3
    3252:	cd bf       	out	0x3d, r28	; 61
    3254:	de bf       	out	0x3e, r29	; 62
    3256:	df 91       	pop	r29
    3258:	cf 91       	pop	r28
    325a:	08 95       	ret

0000325c <__vector_58>:
    325c:	1f 92       	push	r1
    325e:	0f 92       	push	r0
    3260:	00 90 3f 00 	lds	r0, 0x003F
    3264:	0f 92       	push	r0
    3266:	11 24       	eor	r1, r1
    3268:	8f 92       	push	r8
    326a:	9f 92       	push	r9
    326c:	af 92       	push	r10
    326e:	bf 92       	push	r11
    3270:	cf 92       	push	r12
    3272:	df 92       	push	r13
    3274:	ef 92       	push	r14
    3276:	ff 92       	push	r15
    3278:	0f 93       	push	r16
    327a:	1f 93       	push	r17
    327c:	2f 93       	push	r18
    327e:	3f 93       	push	r19
    3280:	4f 93       	push	r20
    3282:	5f 93       	push	r21
    3284:	6f 93       	push	r22
    3286:	7f 93       	push	r23
    3288:	8f 93       	push	r24
    328a:	9f 93       	push	r25
    328c:	af 93       	push	r26
    328e:	bf 93       	push	r27
    3290:	ef 93       	push	r30
    3292:	ff 93       	push	r31
    3294:	cf 93       	push	r28
    3296:	df 93       	push	r29
    3298:	cd b7       	in	r28, 0x3d	; 61
    329a:	de b7       	in	r29, 0x3e	; 62
    329c:	6b 97       	sbiw	r28, 0x1b	; 27
    329e:	cd bf       	out	0x3d, r28	; 61
    32a0:	de bf       	out	0x3e, r29	; 62
    32a2:	80 ea       	ldi	r24, 0xA0	; 160
    32a4:	9a e0       	ldi	r25, 0x0A	; 10
    32a6:	b8 db       	rcall	.-2192   	; 0x2a18 <usart_getchar>
    32a8:	80 93 54 20 	sts	0x2054, r24
    32ac:	80 91 55 20 	lds	r24, 0x2055
    32b0:	88 23       	and	r24, r24
    32b2:	09 f4       	brne	.+2      	; 0x32b6 <__vector_58+0x5a>
    32b4:	49 c1       	rjmp	.+658    	; 0x3548 <__vector_58+0x2ec>
    32b6:	80 91 54 20 	lds	r24, 0x2054
    32ba:	8d 30       	cpi	r24, 0x0D	; 13
    32bc:	81 f0       	breq	.+32     	; 0x32de <__vector_58+0x82>
    32be:	80 91 60 20 	lds	r24, 0x2060
    32c2:	88 2f       	mov	r24, r24
    32c4:	90 e0       	ldi	r25, 0x00	; 0
    32c6:	20 91 54 20 	lds	r18, 0x2054
    32ca:	8a 5a       	subi	r24, 0xAA	; 170
    32cc:	9f 4d       	sbci	r25, 0xDF	; 223
    32ce:	fc 01       	movw	r30, r24
    32d0:	20 83       	st	Z, r18
    32d2:	80 91 60 20 	lds	r24, 0x2060
    32d6:	8f 5f       	subi	r24, 0xFF	; 255
    32d8:	80 93 60 20 	sts	0x2060, r24
    32dc:	3c c1       	rjmp	.+632    	; 0x3556 <__vector_58+0x2fa>
    32de:	80 91 60 20 	lds	r24, 0x2060
    32e2:	68 2f       	mov	r22, r24
    32e4:	86 e5       	ldi	r24, 0x56	; 86
    32e6:	90 e2       	ldi	r25, 0x20	; 32
    32e8:	0d d6       	rcall	.+3098   	; 0x3f04 <checkCommand>
    32ea:	88 23       	and	r24, r24
    32ec:	09 f4       	brne	.+2      	; 0x32f0 <__vector_58+0x94>
    32ee:	1d c1       	rjmp	.+570    	; 0x352a <__vector_58+0x2ce>
    32f0:	80 91 56 20 	lds	r24, 0x2056
    32f4:	88 2f       	mov	r24, r24
    32f6:	90 e0       	ldi	r25, 0x00	; 0
    32f8:	aa 27       	eor	r26, r26
    32fa:	97 fd       	sbrc	r25, 7
    32fc:	a0 95       	com	r26
    32fe:	ba 2f       	mov	r27, r26
    3300:	41 e0       	ldi	r20, 0x01	; 1
    3302:	50 e0       	ldi	r21, 0x00	; 0
    3304:	28 e2       	ldi	r18, 0x28	; 40
    3306:	30 e0       	ldi	r19, 0x00	; 0
    3308:	84 1b       	sub	r24, r20
    330a:	95 0b       	sbc	r25, r21
    330c:	28 17       	cp	r18, r24
    330e:	39 07       	cpc	r19, r25
    3310:	08 f4       	brcc	.+2      	; 0x3314 <__vector_58+0xb8>
    3312:	44 c0       	rjmp	.+136    	; 0x339c <__vector_58+0x140>
    3314:	82 50       	subi	r24, 0x02	; 2
    3316:	9f 4f       	sbci	r25, 0xFF	; 255
    3318:	fc 01       	movw	r30, r24
    331a:	0c 94 83 39 	jmp	0x7306	; 0x7306 <__tablejump2__>
    331e:	80 91 52 20 	lds	r24, 0x2052
    3322:	68 2f       	mov	r22, r24
    3324:	84 e1       	ldi	r24, 0x14	; 20
    3326:	50 d4       	rcall	.+2208   	; 0x3bc8 <transmit_2bytes>
    3328:	0a c1       	rjmp	.+532    	; 0x353e <__vector_58+0x2e2>
    332a:	80 91 57 20 	lds	r24, 0x2057
    332e:	ce d1       	rcall	.+924    	; 0x36cc <showMeByte>
    3330:	06 c1       	rjmp	.+524    	; 0x353e <__vector_58+0x2e2>
    3332:	55 d6       	rcall	.+3242   	; 0x3fde <MC_transmit_CPUfreq>
    3334:	04 c1       	rjmp	.+520    	; 0x353e <__vector_58+0x2e2>
    3336:	80 91 00 20 	lds	r24, 0x2000
    333a:	68 2f       	mov	r22, r24
    333c:	81 e0       	ldi	r24, 0x01	; 1
    333e:	44 d4       	rcall	.+2184   	; 0x3bc8 <transmit_2bytes>
    3340:	fe c0       	rjmp	.+508    	; 0x353e <__vector_58+0x2e2>
    3342:	84 d6       	rcall	.+3336   	; 0x404c <MC_transmit_Birthday>
    3344:	fc c0       	rjmp	.+504    	; 0x353e <__vector_58+0x2e2>
    3346:	86 e5       	ldi	r24, 0x56	; 86
    3348:	90 e2       	ldi	r25, 0x20	; 32
    334a:	4b d2       	rcall	.+1174   	; 0x37e2 <SPI_DAC_send>
    334c:	f8 c0       	rjmp	.+496    	; 0x353e <__vector_58+0x2e2>
    334e:	86 e5       	ldi	r24, 0x56	; 86
    3350:	90 e2       	ldi	r25, 0x20	; 32
    3352:	7b d2       	rcall	.+1270   	; 0x384a <SPI_ADC_send>
    3354:	f4 c0       	rjmp	.+488    	; 0x353e <__vector_58+0x2e2>
    3356:	84 d7       	rcall	.+3848   	; 0x4260 <COA_start>
    3358:	f2 c0       	rjmp	.+484    	; 0x353e <__vector_58+0x2e2>
    335a:	86 e5       	ldi	r24, 0x56	; 86
    335c:	90 e2       	ldi	r25, 0x20	; 32
    335e:	0f d7       	rcall	.+3614   	; 0x417e <COA_set_MeasureTime>
    3360:	ee c0       	rjmp	.+476    	; 0x353e <__vector_58+0x2e2>
    3362:	86 e5       	ldi	r24, 0x56	; 86
    3364:	90 e2       	ldi	r25, 0x20	; 32
    3366:	ed d7       	rcall	.+4058   	; 0x4342 <RTC_setPrescaler>
    3368:	ea c0       	rjmp	.+468    	; 0x353e <__vector_58+0x2e2>
    336a:	b2 d6       	rcall	.+3428   	; 0x40d0 <COA_transmit_Result>
    336c:	e8 c0       	rjmp	.+464    	; 0x353e <__vector_58+0x2e2>
    336e:	b6 d7       	rcall	.+3948   	; 0x42dc <COA_stop>
    3370:	e6 c0       	rjmp	.+460    	; 0x353e <__vector_58+0x2e2>
    3372:	0e 94 88 22 	call	0x4510	; 0x4510 <MC_reset>
    3376:	e3 c0       	rjmp	.+454    	; 0x353e <__vector_58+0x2e2>
    3378:	80 91 57 20 	lds	r24, 0x2057
    337c:	33 d7       	rcall	.+3686   	; 0x41e4 <COA_set_MeasureDelay>
    337e:	df c0       	rjmp	.+446    	; 0x353e <__vector_58+0x2e2>
    3380:	86 e5       	ldi	r24, 0x56	; 86
    3382:	90 e2       	ldi	r25, 0x20	; 32
    3384:	43 d7       	rcall	.+3718   	; 0x420c <COA_set_MeasureQuontity>
    3386:	db c0       	rjmp	.+438    	; 0x353e <__vector_58+0x2e2>
    3388:	80 91 6b 20 	lds	r24, 0x206B
    338c:	68 2f       	mov	r22, r24
    338e:	83 e2       	ldi	r24, 0x23	; 35
    3390:	1b d4       	rcall	.+2102   	; 0x3bc8 <transmit_2bytes>
    3392:	d5 c0       	rjmp	.+426    	; 0x353e <__vector_58+0x2e2>
    3394:	86 e5       	ldi	r24, 0x56	; 86
    3396:	90 e2       	ldi	r25, 0x20	; 32
    3398:	ee d7       	rcall	.+4060   	; 0x4376 <TIC_transmit>
    339a:	d1 c0       	rjmp	.+418    	; 0x353e <__vector_58+0x2e2>
    339c:	8f ef       	ldi	r24, 0xFF	; 255
    339e:	96 d1       	rcall	.+812    	; 0x36cc <showMeByte>
    33a0:	e2 dd       	rcall	.-1084   	; 0x2f66 <sysclk_get_cpu_hz>
    33a2:	dc 01       	movw	r26, r24
    33a4:	cb 01       	movw	r24, r22
    33a6:	9c 01       	movw	r18, r24
    33a8:	ad 01       	movw	r20, r26
    33aa:	60 e0       	ldi	r22, 0x00	; 0
    33ac:	70 e0       	ldi	r23, 0x00	; 0
    33ae:	cb 01       	movw	r24, r22
    33b0:	82 2e       	mov	r8, r18
    33b2:	93 2e       	mov	r9, r19
    33b4:	a4 2e       	mov	r10, r20
    33b6:	b5 2e       	mov	r11, r21
    33b8:	c6 2e       	mov	r12, r22
    33ba:	d7 2e       	mov	r13, r23
    33bc:	e8 2e       	mov	r14, r24
    33be:	f9 2e       	mov	r15, r25
    33c0:	28 2d       	mov	r18, r8
    33c2:	39 2d       	mov	r19, r9
    33c4:	4a 2d       	mov	r20, r10
    33c6:	5b 2d       	mov	r21, r11
    33c8:	6c 2d       	mov	r22, r12
    33ca:	7d 2d       	mov	r23, r13
    33cc:	8e 2d       	mov	r24, r14
    33ce:	9f 2d       	mov	r25, r15
    33d0:	01 e0       	ldi	r16, 0x01	; 1
    33d2:	0e 94 89 39 	call	0x7312	; 0x7312 <__ashldi3>
    33d6:	2c 83       	std	Y+4, r18	; 0x04
    33d8:	3d 83       	std	Y+5, r19	; 0x05
    33da:	4e 83       	std	Y+6, r20	; 0x06
    33dc:	5f 83       	std	Y+7, r21	; 0x07
    33de:	68 87       	std	Y+8, r22	; 0x08
    33e0:	79 87       	std	Y+9, r23	; 0x09
    33e2:	8a 87       	std	Y+10, r24	; 0x0a
    33e4:	9b 87       	std	Y+11, r25	; 0x0b
    33e6:	8c 80       	ldd	r8, Y+4	; 0x04
    33e8:	9d 80       	ldd	r9, Y+5	; 0x05
    33ea:	ae 80       	ldd	r10, Y+6	; 0x06
    33ec:	bf 80       	ldd	r11, Y+7	; 0x07
    33ee:	c8 84       	ldd	r12, Y+8	; 0x08
    33f0:	d9 84       	ldd	r13, Y+9	; 0x09
    33f2:	ea 84       	ldd	r14, Y+10	; 0x0a
    33f4:	fb 84       	ldd	r15, Y+11	; 0x0b
    33f6:	28 2d       	mov	r18, r8
    33f8:	39 2d       	mov	r19, r9
    33fa:	4a 2d       	mov	r20, r10
    33fc:	5b 2d       	mov	r21, r11
    33fe:	6c 2d       	mov	r22, r12
    3400:	7d 2d       	mov	r23, r13
    3402:	8e 2d       	mov	r24, r14
    3404:	9f 2d       	mov	r25, r15
    3406:	02 e0       	ldi	r16, 0x02	; 2
    3408:	0e 94 89 39 	call	0x7312	; 0x7312 <__ashldi3>
    340c:	2c 87       	std	Y+12, r18	; 0x0c
    340e:	3d 87       	std	Y+13, r19	; 0x0d
    3410:	4e 87       	std	Y+14, r20	; 0x0e
    3412:	5f 87       	std	Y+15, r21	; 0x0f
    3414:	68 8b       	std	Y+16, r22	; 0x10
    3416:	79 8b       	std	Y+17, r23	; 0x11
    3418:	8a 8b       	std	Y+18, r24	; 0x12
    341a:	9b 8b       	std	Y+19, r25	; 0x13
    341c:	28 2d       	mov	r18, r8
    341e:	39 2d       	mov	r19, r9
    3420:	4a 2d       	mov	r20, r10
    3422:	5b 2d       	mov	r21, r11
    3424:	6c 2d       	mov	r22, r12
    3426:	7d 2d       	mov	r23, r13
    3428:	8e 2d       	mov	r24, r14
    342a:	9f 2d       	mov	r25, r15
    342c:	ac 84       	ldd	r10, Y+12	; 0x0c
    342e:	bd 84       	ldd	r11, Y+13	; 0x0d
    3430:	ce 84       	ldd	r12, Y+14	; 0x0e
    3432:	df 84       	ldd	r13, Y+15	; 0x0f
    3434:	e8 88       	ldd	r14, Y+16	; 0x10
    3436:	f9 88       	ldd	r15, Y+17	; 0x11
    3438:	0a 89       	ldd	r16, Y+18	; 0x12
    343a:	1b 89       	ldd	r17, Y+19	; 0x13
    343c:	0e 94 98 39 	call	0x7330	; 0x7330 <__adddi3>
    3440:	82 2e       	mov	r8, r18
    3442:	93 2e       	mov	r9, r19
    3444:	a4 2e       	mov	r10, r20
    3446:	b5 2e       	mov	r11, r21
    3448:	c6 2e       	mov	r12, r22
    344a:	d7 2e       	mov	r13, r23
    344c:	e8 2e       	mov	r14, r24
    344e:	f9 2e       	mov	r15, r25
    3450:	28 2d       	mov	r18, r8
    3452:	39 2d       	mov	r19, r9
    3454:	4a 2d       	mov	r20, r10
    3456:	5b 2d       	mov	r21, r11
    3458:	6c 2d       	mov	r22, r12
    345a:	7d 2d       	mov	r23, r13
    345c:	8e 2d       	mov	r24, r14
    345e:	9f 2d       	mov	r25, r15
    3460:	02 e0       	ldi	r16, 0x02	; 2
    3462:	0e 94 89 39 	call	0x7312	; 0x7312 <__ashldi3>
    3466:	2c 8b       	std	Y+20, r18	; 0x14
    3468:	3d 8b       	std	Y+21, r19	; 0x15
    346a:	4e 8b       	std	Y+22, r20	; 0x16
    346c:	5f 8b       	std	Y+23, r21	; 0x17
    346e:	68 8f       	std	Y+24, r22	; 0x18
    3470:	79 8f       	std	Y+25, r23	; 0x19
    3472:	8a 8f       	std	Y+26, r24	; 0x1a
    3474:	9b 8f       	std	Y+27, r25	; 0x1b
    3476:	28 2d       	mov	r18, r8
    3478:	39 2d       	mov	r19, r9
    347a:	4a 2d       	mov	r20, r10
    347c:	5b 2d       	mov	r21, r11
    347e:	6c 2d       	mov	r22, r12
    3480:	7d 2d       	mov	r23, r13
    3482:	8e 2d       	mov	r24, r14
    3484:	9f 2d       	mov	r25, r15
    3486:	ac 88       	ldd	r10, Y+20	; 0x14
    3488:	bd 88       	ldd	r11, Y+21	; 0x15
    348a:	ce 88       	ldd	r12, Y+22	; 0x16
    348c:	df 88       	ldd	r13, Y+23	; 0x17
    348e:	e8 8c       	ldd	r14, Y+24	; 0x18
    3490:	f9 8c       	ldd	r15, Y+25	; 0x19
    3492:	0a 8d       	ldd	r16, Y+26	; 0x1a
    3494:	1b 8d       	ldd	r17, Y+27	; 0x1b
    3496:	0e 94 98 39 	call	0x7330	; 0x7330 <__adddi3>
    349a:	a2 2e       	mov	r10, r18
    349c:	b3 2e       	mov	r11, r19
    349e:	c4 2e       	mov	r12, r20
    34a0:	d5 2e       	mov	r13, r21
    34a2:	e6 2e       	mov	r14, r22
    34a4:	f7 2e       	mov	r15, r23
    34a6:	08 2f       	mov	r16, r24
    34a8:	19 2f       	mov	r17, r25
    34aa:	2a 2d       	mov	r18, r10
    34ac:	3b 2d       	mov	r19, r11
    34ae:	4c 2d       	mov	r20, r12
    34b0:	5d 2d       	mov	r21, r13
    34b2:	6e 2d       	mov	r22, r14
    34b4:	7f 2d       	mov	r23, r15
    34b6:	80 2f       	mov	r24, r16
    34b8:	91 2f       	mov	r25, r17
    34ba:	29 51       	subi	r18, 0x19	; 25
    34bc:	3c 4f       	sbci	r19, 0xFC	; 252
    34be:	4f 4f       	sbci	r20, 0xFF	; 255
    34c0:	5f 4f       	sbci	r21, 0xFF	; 255
    34c2:	6f 4f       	sbci	r22, 0xFF	; 255
    34c4:	7f 4f       	sbci	r23, 0xFF	; 255
    34c6:	8f 4f       	sbci	r24, 0xFF	; 255
    34c8:	9f 4f       	sbci	r25, 0xFF	; 255
    34ca:	a2 2e       	mov	r10, r18
    34cc:	b3 2e       	mov	r11, r19
    34ce:	c4 2e       	mov	r12, r20
    34d0:	d5 2e       	mov	r13, r21
    34d2:	e6 2e       	mov	r14, r22
    34d4:	f7 2e       	mov	r15, r23
    34d6:	08 2f       	mov	r16, r24
    34d8:	19 2f       	mov	r17, r25
    34da:	2a 2d       	mov	r18, r10
    34dc:	3b 2d       	mov	r19, r11
    34de:	4c 2d       	mov	r20, r12
    34e0:	5d 2d       	mov	r21, r13
    34e2:	6e 2d       	mov	r22, r14
    34e4:	7f 2d       	mov	r23, r15
    34e6:	80 2f       	mov	r24, r16
    34e8:	91 2f       	mov	r25, r17
    34ea:	0e 94 f6 01 	call	0x3ec	; 0x3ec <__floatundisf>
    34ee:	dc 01       	movw	r26, r24
    34f0:	cb 01       	movw	r24, r22
    34f2:	20 e0       	ldi	r18, 0x00	; 0
    34f4:	30 e8       	ldi	r19, 0x80	; 128
    34f6:	4b eb       	ldi	r20, 0xBB	; 187
    34f8:	55 e4       	ldi	r21, 0x45	; 69
    34fa:	bc 01       	movw	r22, r24
    34fc:	cd 01       	movw	r24, r26
    34fe:	0e 94 71 03 	call	0x6e2	; 0x6e2 <__divsf3>
    3502:	dc 01       	movw	r26, r24
    3504:	cb 01       	movw	r24, r22
    3506:	bc 01       	movw	r22, r24
    3508:	cd 01       	movw	r24, r26
    350a:	0e 94 45 01 	call	0x28a	; 0x28a <__fixunssfdi>
    350e:	a2 2e       	mov	r10, r18
    3510:	b3 2e       	mov	r11, r19
    3512:	c4 2e       	mov	r12, r20
    3514:	d5 2e       	mov	r13, r21
    3516:	e6 2e       	mov	r14, r22
    3518:	f7 2e       	mov	r15, r23
    351a:	08 2f       	mov	r16, r24
    351c:	19 2f       	mov	r17, r25
    351e:	d6 01       	movw	r26, r12
    3520:	c5 01       	movw	r24, r10
    3522:	bc 01       	movw	r22, r24
    3524:	cd 01       	movw	r24, r26
    3526:	2b dd       	rcall	.-1450   	; 0x2f7e <__portable_avr_delay_cycles>
    3528:	39 cf       	rjmp	.-398    	; 0x339c <__vector_58+0x140>
    352a:	19 82       	std	Y+1, r1	; 0x01
    352c:	81 e0       	ldi	r24, 0x01	; 1
    352e:	8a 83       	std	Y+2, r24	; 0x02
    3530:	80 91 56 20 	lds	r24, 0x2056
    3534:	8b 83       	std	Y+3, r24	; 0x03
    3536:	63 e0       	ldi	r22, 0x03	; 3
    3538:	ce 01       	movw	r24, r28
    353a:	01 96       	adiw	r24, 0x01	; 1
    353c:	de d1       	rcall	.+956    	; 0x38fa <transmit>
    353e:	10 92 55 20 	sts	0x2055, r1
    3542:	10 92 60 20 	sts	0x2060, r1
    3546:	07 c0       	rjmp	.+14     	; 0x3556 <__vector_58+0x2fa>
    3548:	80 91 54 20 	lds	r24, 0x2054
    354c:	8a 33       	cpi	r24, 0x3A	; 58
    354e:	19 f4       	brne	.+6      	; 0x3556 <__vector_58+0x2fa>
    3550:	81 e0       	ldi	r24, 0x01	; 1
    3552:	80 93 55 20 	sts	0x2055, r24
    3556:	6b 96       	adiw	r28, 0x1b	; 27
    3558:	cd bf       	out	0x3d, r28	; 61
    355a:	de bf       	out	0x3e, r29	; 62
    355c:	df 91       	pop	r29
    355e:	cf 91       	pop	r28
    3560:	ff 91       	pop	r31
    3562:	ef 91       	pop	r30
    3564:	bf 91       	pop	r27
    3566:	af 91       	pop	r26
    3568:	9f 91       	pop	r25
    356a:	8f 91       	pop	r24
    356c:	7f 91       	pop	r23
    356e:	6f 91       	pop	r22
    3570:	5f 91       	pop	r21
    3572:	4f 91       	pop	r20
    3574:	3f 91       	pop	r19
    3576:	2f 91       	pop	r18
    3578:	1f 91       	pop	r17
    357a:	0f 91       	pop	r16
    357c:	ff 90       	pop	r15
    357e:	ef 90       	pop	r14
    3580:	df 90       	pop	r13
    3582:	cf 90       	pop	r12
    3584:	bf 90       	pop	r11
    3586:	af 90       	pop	r10
    3588:	9f 90       	pop	r9
    358a:	8f 90       	pop	r8
    358c:	0f 90       	pop	r0
    358e:	00 92 3f 00 	sts	0x003F, r0
    3592:	0f 90       	pop	r0
    3594:	1f 90       	pop	r1
    3596:	18 95       	reti

00003598 <__vector_10>:
    3598:	1f 92       	push	r1
    359a:	0f 92       	push	r0
    359c:	00 90 3f 00 	lds	r0, 0x003F
    35a0:	0f 92       	push	r0
    35a2:	11 24       	eor	r1, r1
    35a4:	2f 93       	push	r18
    35a6:	3f 93       	push	r19
    35a8:	4f 93       	push	r20
    35aa:	5f 93       	push	r21
    35ac:	6f 93       	push	r22
    35ae:	7f 93       	push	r23
    35b0:	8f 93       	push	r24
    35b2:	9f 93       	push	r25
    35b4:	af 93       	push	r26
    35b6:	bf 93       	push	r27
    35b8:	ef 93       	push	r30
    35ba:	ff 93       	push	r31
    35bc:	cf 93       	push	r28
    35be:	df 93       	push	r29
    35c0:	cd b7       	in	r28, 0x3d	; 61
    35c2:	de b7       	in	r29, 0x3e	; 62
    35c4:	41 d0       	rcall	.+130    	; 0x3648 <COA_Measure_done>
    35c6:	df 91       	pop	r29
    35c8:	cf 91       	pop	r28
    35ca:	ff 91       	pop	r31
    35cc:	ef 91       	pop	r30
    35ce:	bf 91       	pop	r27
    35d0:	af 91       	pop	r26
    35d2:	9f 91       	pop	r25
    35d4:	8f 91       	pop	r24
    35d6:	7f 91       	pop	r23
    35d8:	6f 91       	pop	r22
    35da:	5f 91       	pop	r21
    35dc:	4f 91       	pop	r20
    35de:	3f 91       	pop	r19
    35e0:	2f 91       	pop	r18
    35e2:	0f 90       	pop	r0
    35e4:	00 92 3f 00 	sts	0x003F, r0
    35e8:	0f 90       	pop	r0
    35ea:	1f 90       	pop	r1
    35ec:	18 95       	reti

000035ee <ISR_TCD1>:
    35ee:	cf 93       	push	r28
    35f0:	df 93       	push	r29
    35f2:	cd b7       	in	r28, 0x3d	; 61
    35f4:	de b7       	in	r29, 0x3e	; 62
    35f6:	80 91 6b 20 	lds	r24, 0x206B
    35fa:	8f 5f       	subi	r24, 0xFF	; 255
    35fc:	80 93 6b 20 	sts	0x206B, r24
    3600:	60 e0       	ldi	r22, 0x00	; 0
    3602:	70 e0       	ldi	r23, 0x00	; 0
    3604:	80 e0       	ldi	r24, 0x00	; 0
    3606:	99 e0       	ldi	r25, 0x09	; 9
    3608:	bc dd       	rcall	.-1160   	; 0x3182 <tc_write_clock_source>
    360a:	60 e0       	ldi	r22, 0x00	; 0
    360c:	70 e0       	ldi	r23, 0x00	; 0
    360e:	80 e4       	ldi	r24, 0x40	; 64
    3610:	99 e0       	ldi	r25, 0x09	; 9
    3612:	b7 dd       	rcall	.-1170   	; 0x3182 <tc_write_clock_source>
    3614:	80 e0       	ldi	r24, 0x00	; 0
    3616:	94 e0       	ldi	r25, 0x04	; 4
    3618:	fc 01       	movw	r30, r24
    361a:	10 82       	st	Z, r1
    361c:	80 e0       	ldi	r24, 0x00	; 0
    361e:	94 e0       	ldi	r25, 0x04	; 4
    3620:	fc 01       	movw	r30, r24
    3622:	10 86       	std	Z+8, r1	; 0x08
    3624:	11 86       	std	Z+9, r1	; 0x09
    3626:	80 e0       	ldi	r24, 0x00	; 0
    3628:	99 e0       	ldi	r25, 0x09	; 9
    362a:	2f ef       	ldi	r18, 0xFF	; 255
    362c:	3f ef       	ldi	r19, 0xFF	; 255
    362e:	fc 01       	movw	r30, r24
    3630:	20 a3       	std	Z+32, r18	; 0x20
    3632:	31 a3       	std	Z+33, r19	; 0x21
    3634:	80 e4       	ldi	r24, 0x40	; 64
    3636:	99 e0       	ldi	r25, 0x09	; 9
    3638:	2f ef       	ldi	r18, 0xFF	; 255
    363a:	3f ef       	ldi	r19, 0xFF	; 255
    363c:	fc 01       	movw	r30, r24
    363e:	20 a3       	std	Z+32, r18	; 0x20
    3640:	31 a3       	std	Z+33, r19	; 0x21
    3642:	df 91       	pop	r29
    3644:	cf 91       	pop	r28
    3646:	08 95       	ret

00003648 <COA_Measure_done>:
    3648:	cf 93       	push	r28
    364a:	df 93       	push	r29
    364c:	cd b7       	in	r28, 0x3d	; 61
    364e:	de b7       	in	r29, 0x3e	; 62
    3650:	60 e0       	ldi	r22, 0x00	; 0
    3652:	70 e0       	ldi	r23, 0x00	; 0
    3654:	80 e0       	ldi	r24, 0x00	; 0
    3656:	99 e0       	ldi	r25, 0x09	; 9
    3658:	94 dd       	rcall	.-1240   	; 0x3182 <tc_write_clock_source>
    365a:	60 e0       	ldi	r22, 0x00	; 0
    365c:	70 e0       	ldi	r23, 0x00	; 0
    365e:	80 e4       	ldi	r24, 0x40	; 64
    3660:	99 e0       	ldi	r25, 0x09	; 9
    3662:	8f dd       	rcall	.-1250   	; 0x3182 <tc_write_clock_source>
    3664:	80 e4       	ldi	r24, 0x40	; 64
    3666:	99 e0       	ldi	r25, 0x09	; 9
    3668:	fc 01       	movw	r30, r24
    366a:	80 a1       	ldd	r24, Z+32	; 0x20
    366c:	91 a1       	ldd	r25, Z+33	; 0x21
    366e:	cc 01       	movw	r24, r24
    3670:	a0 e0       	ldi	r26, 0x00	; 0
    3672:	b0 e0       	ldi	r27, 0x00	; 0
    3674:	ac 01       	movw	r20, r24
    3676:	33 27       	eor	r19, r19
    3678:	22 27       	eor	r18, r18
    367a:	80 e0       	ldi	r24, 0x00	; 0
    367c:	99 e0       	ldi	r25, 0x09	; 9
    367e:	fc 01       	movw	r30, r24
    3680:	80 a1       	ldd	r24, Z+32	; 0x20
    3682:	91 a1       	ldd	r25, Z+33	; 0x21
    3684:	cc 01       	movw	r24, r24
    3686:	a0 e0       	ldi	r26, 0x00	; 0
    3688:	b0 e0       	ldi	r27, 0x00	; 0
    368a:	82 0f       	add	r24, r18
    368c:	93 1f       	adc	r25, r19
    368e:	a4 1f       	adc	r26, r20
    3690:	b5 1f       	adc	r27, r21
    3692:	80 93 63 20 	sts	0x2063, r24
    3696:	90 93 64 20 	sts	0x2064, r25
    369a:	a0 93 65 20 	sts	0x2065, r26
    369e:	b0 93 66 20 	sts	0x2066, r27
    36a2:	80 e0       	ldi	r24, 0x00	; 0
    36a4:	94 e0       	ldi	r25, 0x04	; 4
    36a6:	fc 01       	movw	r30, r24
    36a8:	10 82       	st	Z, r1
    36aa:	80 e0       	ldi	r24, 0x00	; 0
    36ac:	94 e0       	ldi	r25, 0x04	; 4
    36ae:	fc 01       	movw	r30, r24
    36b0:	10 86       	std	Z+8, r1	; 0x08
    36b2:	11 86       	std	Z+9, r1	; 0x09
    36b4:	80 91 6b 20 	lds	r24, 0x206B
    36b8:	82 30       	cpi	r24, 0x02	; 2
    36ba:	11 f4       	brne	.+4      	; 0x36c0 <COA_Measure_done+0x78>
    36bc:	10 92 6b 20 	sts	0x206B, r1
    36c0:	84 e0       	ldi	r24, 0x04	; 4
    36c2:	80 93 52 20 	sts	0x2052, r24
    36c6:	df 91       	pop	r29
    36c8:	cf 91       	pop	r28
    36ca:	08 95       	ret

000036cc <showMeByte>:
    36cc:	cf 93       	push	r28
    36ce:	df 93       	push	r29
    36d0:	cd b7       	in	r28, 0x3d	; 61
    36d2:	de b7       	in	r29, 0x3e	; 62
    36d4:	2b 97       	sbiw	r28, 0x0b	; 11
    36d6:	cd bf       	out	0x3d, r28	; 61
    36d8:	de bf       	out	0x3e, r29	; 62
    36da:	8b 87       	std	Y+11, r24	; 0x0b
    36dc:	28 e0       	ldi	r18, 0x08	; 8
    36de:	ce 01       	movw	r24, r28
    36e0:	03 96       	adiw	r24, 0x03	; 3
    36e2:	fc 01       	movw	r30, r24
    36e4:	32 2f       	mov	r19, r18
    36e6:	11 92       	st	Z+, r1
    36e8:	3a 95       	dec	r19
    36ea:	e9 f7       	brne	.-6      	; 0x36e6 <showMeByte+0x1a>
    36ec:	19 82       	std	Y+1, r1	; 0x01
    36ee:	1a 82       	std	Y+2, r1	; 0x02
    36f0:	1d c0       	rjmp	.+58     	; 0x372c <showMeByte+0x60>
    36f2:	8b 85       	ldd	r24, Y+11	; 0x0b
    36f4:	88 2f       	mov	r24, r24
    36f6:	90 e0       	ldi	r25, 0x00	; 0
    36f8:	09 80       	ldd	r0, Y+1	; 0x01
    36fa:	02 c0       	rjmp	.+4      	; 0x3700 <showMeByte+0x34>
    36fc:	95 95       	asr	r25
    36fe:	87 95       	ror	r24
    3700:	0a 94       	dec	r0
    3702:	e2 f7       	brpl	.-8      	; 0x36fc <showMeByte+0x30>
    3704:	81 70       	andi	r24, 0x01	; 1
    3706:	99 27       	eor	r25, r25
    3708:	41 e0       	ldi	r20, 0x01	; 1
    370a:	00 97       	sbiw	r24, 0x00	; 0
    370c:	09 f4       	brne	.+2      	; 0x3710 <showMeByte+0x44>
    370e:	40 e0       	ldi	r20, 0x00	; 0
    3710:	9e 01       	movw	r18, r28
    3712:	2d 5f       	subi	r18, 0xFD	; 253
    3714:	3f 4f       	sbci	r19, 0xFF	; 255
    3716:	89 81       	ldd	r24, Y+1	; 0x01
    3718:	9a 81       	ldd	r25, Y+2	; 0x02
    371a:	82 0f       	add	r24, r18
    371c:	93 1f       	adc	r25, r19
    371e:	fc 01       	movw	r30, r24
    3720:	40 83       	st	Z, r20
    3722:	89 81       	ldd	r24, Y+1	; 0x01
    3724:	9a 81       	ldd	r25, Y+2	; 0x02
    3726:	01 96       	adiw	r24, 0x01	; 1
    3728:	89 83       	std	Y+1, r24	; 0x01
    372a:	9a 83       	std	Y+2, r25	; 0x02
    372c:	89 81       	ldd	r24, Y+1	; 0x01
    372e:	9a 81       	ldd	r25, Y+2	; 0x02
    3730:	88 30       	cpi	r24, 0x08	; 8
    3732:	91 05       	cpc	r25, r1
    3734:	f4 f2       	brlt	.-68     	; 0x36f2 <showMeByte+0x26>
    3736:	8b 81       	ldd	r24, Y+3	; 0x03
    3738:	88 23       	and	r24, r24
    373a:	21 f0       	breq	.+8      	; 0x3744 <showMeByte+0x78>
    373c:	61 e0       	ldi	r22, 0x01	; 1
    373e:	88 e0       	ldi	r24, 0x08	; 8
    3740:	24 dc       	rcall	.-1976   	; 0x2f8a <ioport_set_value>
    3742:	03 c0       	rjmp	.+6      	; 0x374a <showMeByte+0x7e>
    3744:	60 e0       	ldi	r22, 0x00	; 0
    3746:	88 e0       	ldi	r24, 0x08	; 8
    3748:	20 dc       	rcall	.-1984   	; 0x2f8a <ioport_set_value>
    374a:	8c 81       	ldd	r24, Y+4	; 0x04
    374c:	88 23       	and	r24, r24
    374e:	21 f0       	breq	.+8      	; 0x3758 <showMeByte+0x8c>
    3750:	61 e0       	ldi	r22, 0x01	; 1
    3752:	8a e0       	ldi	r24, 0x0A	; 10
    3754:	1a dc       	rcall	.-1996   	; 0x2f8a <ioport_set_value>
    3756:	03 c0       	rjmp	.+6      	; 0x375e <showMeByte+0x92>
    3758:	60 e0       	ldi	r22, 0x00	; 0
    375a:	8a e0       	ldi	r24, 0x0A	; 10
    375c:	16 dc       	rcall	.-2004   	; 0x2f8a <ioport_set_value>
    375e:	8d 81       	ldd	r24, Y+5	; 0x05
    3760:	88 23       	and	r24, r24
    3762:	21 f0       	breq	.+8      	; 0x376c <showMeByte+0xa0>
    3764:	61 e0       	ldi	r22, 0x01	; 1
    3766:	8b e0       	ldi	r24, 0x0B	; 11
    3768:	10 dc       	rcall	.-2016   	; 0x2f8a <ioport_set_value>
    376a:	03 c0       	rjmp	.+6      	; 0x3772 <showMeByte+0xa6>
    376c:	60 e0       	ldi	r22, 0x00	; 0
    376e:	8b e0       	ldi	r24, 0x0B	; 11
    3770:	0c dc       	rcall	.-2024   	; 0x2f8a <ioport_set_value>
    3772:	8e 81       	ldd	r24, Y+6	; 0x06
    3774:	88 23       	and	r24, r24
    3776:	21 f0       	breq	.+8      	; 0x3780 <showMeByte+0xb4>
    3778:	61 e0       	ldi	r22, 0x01	; 1
    377a:	88 e1       	ldi	r24, 0x18	; 24
    377c:	06 dc       	rcall	.-2036   	; 0x2f8a <ioport_set_value>
    377e:	03 c0       	rjmp	.+6      	; 0x3786 <showMeByte+0xba>
    3780:	60 e0       	ldi	r22, 0x00	; 0
    3782:	88 e1       	ldi	r24, 0x18	; 24
    3784:	02 dc       	rcall	.-2044   	; 0x2f8a <ioport_set_value>
    3786:	8f 81       	ldd	r24, Y+7	; 0x07
    3788:	88 23       	and	r24, r24
    378a:	21 f0       	breq	.+8      	; 0x3794 <showMeByte+0xc8>
    378c:	61 e0       	ldi	r22, 0x01	; 1
    378e:	89 e1       	ldi	r24, 0x19	; 25
    3790:	fc db       	rcall	.-2056   	; 0x2f8a <ioport_set_value>
    3792:	03 c0       	rjmp	.+6      	; 0x379a <showMeByte+0xce>
    3794:	60 e0       	ldi	r22, 0x00	; 0
    3796:	89 e1       	ldi	r24, 0x19	; 25
    3798:	f8 db       	rcall	.-2064   	; 0x2f8a <ioport_set_value>
    379a:	88 85       	ldd	r24, Y+8	; 0x08
    379c:	88 23       	and	r24, r24
    379e:	21 f0       	breq	.+8      	; 0x37a8 <showMeByte+0xdc>
    37a0:	61 e0       	ldi	r22, 0x01	; 1
    37a2:	8a e1       	ldi	r24, 0x1A	; 26
    37a4:	f2 db       	rcall	.-2076   	; 0x2f8a <ioport_set_value>
    37a6:	03 c0       	rjmp	.+6      	; 0x37ae <showMeByte+0xe2>
    37a8:	60 e0       	ldi	r22, 0x00	; 0
    37aa:	8a e1       	ldi	r24, 0x1A	; 26
    37ac:	ee db       	rcall	.-2084   	; 0x2f8a <ioport_set_value>
    37ae:	89 85       	ldd	r24, Y+9	; 0x09
    37b0:	88 23       	and	r24, r24
    37b2:	21 f0       	breq	.+8      	; 0x37bc <showMeByte+0xf0>
    37b4:	61 e0       	ldi	r22, 0x01	; 1
    37b6:	8b e1       	ldi	r24, 0x1B	; 27
    37b8:	e8 db       	rcall	.-2096   	; 0x2f8a <ioport_set_value>
    37ba:	03 c0       	rjmp	.+6      	; 0x37c2 <showMeByte+0xf6>
    37bc:	60 e0       	ldi	r22, 0x00	; 0
    37be:	8b e1       	ldi	r24, 0x1B	; 27
    37c0:	e4 db       	rcall	.-2104   	; 0x2f8a <ioport_set_value>
    37c2:	8a 85       	ldd	r24, Y+10	; 0x0a
    37c4:	88 23       	and	r24, r24
    37c6:	21 f0       	breq	.+8      	; 0x37d0 <showMeByte+0x104>
    37c8:	61 e0       	ldi	r22, 0x01	; 1
    37ca:	8c e1       	ldi	r24, 0x1C	; 28
    37cc:	de db       	rcall	.-2116   	; 0x2f8a <ioport_set_value>
    37ce:	03 c0       	rjmp	.+6      	; 0x37d6 <showMeByte+0x10a>
    37d0:	60 e0       	ldi	r22, 0x00	; 0
    37d2:	8c e1       	ldi	r24, 0x1C	; 28
    37d4:	da db       	rcall	.-2124   	; 0x2f8a <ioport_set_value>
    37d6:	2b 96       	adiw	r28, 0x0b	; 11
    37d8:	cd bf       	out	0x3d, r28	; 61
    37da:	de bf       	out	0x3e, r29	; 62
    37dc:	df 91       	pop	r29
    37de:	cf 91       	pop	r28
    37e0:	08 95       	ret

000037e2 <SPI_DAC_send>:
    37e2:	cf 93       	push	r28
    37e4:	df 93       	push	r29
    37e6:	cd b7       	in	r28, 0x3d	; 61
    37e8:	de b7       	in	r29, 0x3e	; 62
    37ea:	25 97       	sbiw	r28, 0x05	; 5
    37ec:	cd bf       	out	0x3d, r28	; 61
    37ee:	de bf       	out	0x3e, r29	; 62
    37f0:	8c 83       	std	Y+4, r24	; 0x04
    37f2:	9d 83       	std	Y+5, r25	; 0x05
    37f4:	8c 81       	ldd	r24, Y+4	; 0x04
    37f6:	9d 81       	ldd	r25, Y+5	; 0x05
    37f8:	fc 01       	movw	r30, r24
    37fa:	81 81       	ldd	r24, Z+1	; 0x01
    37fc:	89 83       	std	Y+1, r24	; 0x01
    37fe:	8c 81       	ldd	r24, Y+4	; 0x04
    3800:	9d 81       	ldd	r25, Y+5	; 0x05
    3802:	fc 01       	movw	r30, r24
    3804:	82 81       	ldd	r24, Z+2	; 0x02
    3806:	8a 83       	std	Y+2, r24	; 0x02
    3808:	63 e1       	ldi	r22, 0x13	; 19
    380a:	70 e2       	ldi	r23, 0x20	; 32
    380c:	80 ec       	ldi	r24, 0xC0	; 192
    380e:	98 e0       	ldi	r25, 0x08	; 8
    3810:	0e 94 f0 0a 	call	0x15e0	; 0x15e0 <spi_select_device>
    3814:	42 e0       	ldi	r20, 0x02	; 2
    3816:	50 e0       	ldi	r21, 0x00	; 0
    3818:	ce 01       	movw	r24, r28
    381a:	01 96       	adiw	r24, 0x01	; 1
    381c:	bc 01       	movw	r22, r24
    381e:	80 ec       	ldi	r24, 0xC0	; 192
    3820:	98 e0       	ldi	r25, 0x08	; 8
    3822:	0e 94 b2 0a 	call	0x1564	; 0x1564 <spi_write_packet>
    3826:	63 e1       	ldi	r22, 0x13	; 19
    3828:	70 e2       	ldi	r23, 0x20	; 32
    382a:	80 ec       	ldi	r24, 0xC0	; 192
    382c:	98 e0       	ldi	r25, 0x08	; 8
    382e:	0e 94 05 0b 	call	0x160a	; 0x160a <spi_deselect_device>
    3832:	88 e2       	ldi	r24, 0x28	; 40
    3834:	8b 83       	std	Y+3, r24	; 0x03
    3836:	ce 01       	movw	r24, r28
    3838:	03 96       	adiw	r24, 0x03	; 3
    383a:	61 e0       	ldi	r22, 0x01	; 1
    383c:	5e d0       	rcall	.+188    	; 0x38fa <transmit>
    383e:	25 96       	adiw	r28, 0x05	; 5
    3840:	cd bf       	out	0x3d, r28	; 61
    3842:	de bf       	out	0x3e, r29	; 62
    3844:	df 91       	pop	r29
    3846:	cf 91       	pop	r28
    3848:	08 95       	ret

0000384a <SPI_ADC_send>:
    384a:	cf 93       	push	r28
    384c:	df 93       	push	r29
    384e:	cd b7       	in	r28, 0x3d	; 61
    3850:	de b7       	in	r29, 0x3e	; 62
    3852:	27 97       	sbiw	r28, 0x07	; 7
    3854:	cd bf       	out	0x3d, r28	; 61
    3856:	de bf       	out	0x3e, r29	; 62
    3858:	8e 83       	std	Y+6, r24	; 0x06
    385a:	9f 83       	std	Y+7, r25	; 0x07
    385c:	8e 81       	ldd	r24, Y+6	; 0x06
    385e:	9f 81       	ldd	r25, Y+7	; 0x07
    3860:	fc 01       	movw	r30, r24
    3862:	81 81       	ldd	r24, Z+1	; 0x01
    3864:	89 83       	std	Y+1, r24	; 0x01
    3866:	8e 81       	ldd	r24, Y+6	; 0x06
    3868:	9f 81       	ldd	r25, Y+7	; 0x07
    386a:	fc 01       	movw	r30, r24
    386c:	82 81       	ldd	r24, Z+2	; 0x02
    386e:	8a 83       	std	Y+2, r24	; 0x02
    3870:	64 e1       	ldi	r22, 0x14	; 20
    3872:	70 e2       	ldi	r23, 0x20	; 32
    3874:	80 ec       	ldi	r24, 0xC0	; 192
    3876:	98 e0       	ldi	r25, 0x08	; 8
    3878:	0e 94 f0 0a 	call	0x15e0	; 0x15e0 <spi_select_device>
    387c:	42 e0       	ldi	r20, 0x02	; 2
    387e:	50 e0       	ldi	r21, 0x00	; 0
    3880:	ce 01       	movw	r24, r28
    3882:	01 96       	adiw	r24, 0x01	; 1
    3884:	bc 01       	movw	r22, r24
    3886:	80 ec       	ldi	r24, 0xC0	; 192
    3888:	98 e0       	ldi	r25, 0x08	; 8
    388a:	0e 94 b2 0a 	call	0x1564	; 0x1564 <spi_write_packet>
    388e:	64 e1       	ldi	r22, 0x14	; 20
    3890:	70 e2       	ldi	r23, 0x20	; 32
    3892:	80 ec       	ldi	r24, 0xC0	; 192
    3894:	98 e0       	ldi	r25, 0x08	; 8
    3896:	0e 94 05 0b 	call	0x160a	; 0x160a <spi_deselect_device>
    389a:	64 e1       	ldi	r22, 0x14	; 20
    389c:	70 e2       	ldi	r23, 0x20	; 32
    389e:	80 ec       	ldi	r24, 0xC0	; 192
    38a0:	98 e0       	ldi	r25, 0x08	; 8
    38a2:	0e 94 f0 0a 	call	0x15e0	; 0x15e0 <spi_select_device>
    38a6:	60 e0       	ldi	r22, 0x00	; 0
    38a8:	80 ec       	ldi	r24, 0xC0	; 192
    38aa:	98 e0       	ldi	r25, 0x08	; 8
    38ac:	21 dc       	rcall	.-1982   	; 0x30f0 <spi_put>
    38ae:	80 ec       	ldi	r24, 0xC0	; 192
    38b0:	98 e0       	ldi	r25, 0x08	; 8
    38b2:	32 dc       	rcall	.-1948   	; 0x3118 <spi_get>
    38b4:	80 93 61 20 	sts	0x2061, r24
    38b8:	60 e0       	ldi	r22, 0x00	; 0
    38ba:	80 ec       	ldi	r24, 0xC0	; 192
    38bc:	98 e0       	ldi	r25, 0x08	; 8
    38be:	18 dc       	rcall	.-2000   	; 0x30f0 <spi_put>
    38c0:	80 ec       	ldi	r24, 0xC0	; 192
    38c2:	98 e0       	ldi	r25, 0x08	; 8
    38c4:	29 dc       	rcall	.-1966   	; 0x3118 <spi_get>
    38c6:	80 93 62 20 	sts	0x2062, r24
    38ca:	64 e1       	ldi	r22, 0x14	; 20
    38cc:	70 e2       	ldi	r23, 0x20	; 32
    38ce:	80 ec       	ldi	r24, 0xC0	; 192
    38d0:	98 e0       	ldi	r25, 0x08	; 8
    38d2:	0e 94 05 0b 	call	0x160a	; 0x160a <spi_deselect_device>
    38d6:	89 e2       	ldi	r24, 0x29	; 41
    38d8:	8b 83       	std	Y+3, r24	; 0x03
    38da:	80 91 61 20 	lds	r24, 0x2061
    38de:	8c 83       	std	Y+4, r24	; 0x04
    38e0:	80 91 62 20 	lds	r24, 0x2062
    38e4:	8d 83       	std	Y+5, r24	; 0x05
    38e6:	ce 01       	movw	r24, r28
    38e8:	03 96       	adiw	r24, 0x03	; 3
    38ea:	63 e0       	ldi	r22, 0x03	; 3
    38ec:	06 d0       	rcall	.+12     	; 0x38fa <transmit>
    38ee:	27 96       	adiw	r28, 0x07	; 7
    38f0:	cd bf       	out	0x3d, r28	; 61
    38f2:	de bf       	out	0x3e, r29	; 62
    38f4:	df 91       	pop	r29
    38f6:	cf 91       	pop	r28
    38f8:	08 95       	ret

000038fa <transmit>:
    38fa:	af 92       	push	r10
    38fc:	bf 92       	push	r11
    38fe:	cf 92       	push	r12
    3900:	df 92       	push	r13
    3902:	ef 92       	push	r14
    3904:	ff 92       	push	r15
    3906:	0f 93       	push	r16
    3908:	1f 93       	push	r17
    390a:	cf 93       	push	r28
    390c:	df 93       	push	r29
    390e:	00 d0       	rcall	.+0      	; 0x3910 <transmit+0x16>
    3910:	00 d0       	rcall	.+0      	; 0x3912 <transmit+0x18>
    3912:	cd b7       	in	r28, 0x3d	; 61
    3914:	de b7       	in	r29, 0x3e	; 62
    3916:	8a 83       	std	Y+2, r24	; 0x02
    3918:	9b 83       	std	Y+3, r25	; 0x03
    391a:	6c 83       	std	Y+4, r22	; 0x04
    391c:	24 db       	rcall	.-2488   	; 0x2f66 <sysclk_get_cpu_hz>
    391e:	dc 01       	movw	r26, r24
    3920:	cb 01       	movw	r24, r22
    3922:	5c 01       	movw	r10, r24
    3924:	6d 01       	movw	r12, r26
    3926:	e1 2c       	mov	r14, r1
    3928:	f1 2c       	mov	r15, r1
    392a:	87 01       	movw	r16, r14
    392c:	2a 2d       	mov	r18, r10
    392e:	3b 2d       	mov	r19, r11
    3930:	4c 2d       	mov	r20, r12
    3932:	5d 2d       	mov	r21, r13
    3934:	6e 2d       	mov	r22, r14
    3936:	7f 2d       	mov	r23, r15
    3938:	80 2f       	mov	r24, r16
    393a:	91 2f       	mov	r25, r17
    393c:	21 5c       	subi	r18, 0xC1	; 193
    393e:	3d 4b       	sbci	r19, 0xBD	; 189
    3940:	40 4f       	sbci	r20, 0xF0	; 240
    3942:	5f 4f       	sbci	r21, 0xFF	; 255
    3944:	6f 4f       	sbci	r22, 0xFF	; 255
    3946:	7f 4f       	sbci	r23, 0xFF	; 255
    3948:	8f 4f       	sbci	r24, 0xFF	; 255
    394a:	9f 4f       	sbci	r25, 0xFF	; 255
    394c:	a2 2e       	mov	r10, r18
    394e:	b3 2e       	mov	r11, r19
    3950:	c4 2e       	mov	r12, r20
    3952:	d5 2e       	mov	r13, r21
    3954:	e6 2e       	mov	r14, r22
    3956:	f7 2e       	mov	r15, r23
    3958:	08 2f       	mov	r16, r24
    395a:	19 2f       	mov	r17, r25
    395c:	2a 2d       	mov	r18, r10
    395e:	3b 2d       	mov	r19, r11
    3960:	4c 2d       	mov	r20, r12
    3962:	5d 2d       	mov	r21, r13
    3964:	6e 2d       	mov	r22, r14
    3966:	7f 2d       	mov	r23, r15
    3968:	80 2f       	mov	r24, r16
    396a:	91 2f       	mov	r25, r17
    396c:	0e 94 f6 01 	call	0x3ec	; 0x3ec <__floatundisf>
    3970:	dc 01       	movw	r26, r24
    3972:	cb 01       	movw	r24, r22
    3974:	20 e0       	ldi	r18, 0x00	; 0
    3976:	3b e1       	ldi	r19, 0x1B	; 27
    3978:	47 eb       	ldi	r20, 0xB7	; 183
    397a:	5a e4       	ldi	r21, 0x4A	; 74
    397c:	bc 01       	movw	r22, r24
    397e:	cd 01       	movw	r24, r26
    3980:	0e 94 71 03 	call	0x6e2	; 0x6e2 <__divsf3>
    3984:	dc 01       	movw	r26, r24
    3986:	cb 01       	movw	r24, r22
    3988:	bc 01       	movw	r22, r24
    398a:	cd 01       	movw	r24, r26
    398c:	0e 94 45 01 	call	0x28a	; 0x28a <__fixunssfdi>
    3990:	a2 2e       	mov	r10, r18
    3992:	b3 2e       	mov	r11, r19
    3994:	c4 2e       	mov	r12, r20
    3996:	d5 2e       	mov	r13, r21
    3998:	e6 2e       	mov	r14, r22
    399a:	f7 2e       	mov	r15, r23
    399c:	08 2f       	mov	r16, r24
    399e:	19 2f       	mov	r17, r25
    39a0:	d6 01       	movw	r26, r12
    39a2:	c5 01       	movw	r24, r10
    39a4:	bc 01       	movw	r22, r24
    39a6:	cd 01       	movw	r24, r26
    39a8:	ea da       	rcall	.-2604   	; 0x2f7e <__portable_avr_delay_cycles>
    39aa:	6a e3       	ldi	r22, 0x3A	; 58
    39ac:	80 ea       	ldi	r24, 0xA0	; 160
    39ae:	9a e0       	ldi	r25, 0x0A	; 10
    39b0:	14 d8       	rcall	.-4056   	; 0x29da <usart_putchar>
    39b2:	d9 da       	rcall	.-2638   	; 0x2f66 <sysclk_get_cpu_hz>
    39b4:	dc 01       	movw	r26, r24
    39b6:	cb 01       	movw	r24, r22
    39b8:	5c 01       	movw	r10, r24
    39ba:	6d 01       	movw	r12, r26
    39bc:	e1 2c       	mov	r14, r1
    39be:	f1 2c       	mov	r15, r1
    39c0:	87 01       	movw	r16, r14
    39c2:	2a 2d       	mov	r18, r10
    39c4:	3b 2d       	mov	r19, r11
    39c6:	4c 2d       	mov	r20, r12
    39c8:	5d 2d       	mov	r21, r13
    39ca:	6e 2d       	mov	r22, r14
    39cc:	7f 2d       	mov	r23, r15
    39ce:	80 2f       	mov	r24, r16
    39d0:	91 2f       	mov	r25, r17
    39d2:	21 5c       	subi	r18, 0xC1	; 193
    39d4:	3d 4b       	sbci	r19, 0xBD	; 189
    39d6:	40 4f       	sbci	r20, 0xF0	; 240
    39d8:	5f 4f       	sbci	r21, 0xFF	; 255
    39da:	6f 4f       	sbci	r22, 0xFF	; 255
    39dc:	7f 4f       	sbci	r23, 0xFF	; 255
    39de:	8f 4f       	sbci	r24, 0xFF	; 255
    39e0:	9f 4f       	sbci	r25, 0xFF	; 255
    39e2:	a2 2e       	mov	r10, r18
    39e4:	b3 2e       	mov	r11, r19
    39e6:	c4 2e       	mov	r12, r20
    39e8:	d5 2e       	mov	r13, r21
    39ea:	e6 2e       	mov	r14, r22
    39ec:	f7 2e       	mov	r15, r23
    39ee:	08 2f       	mov	r16, r24
    39f0:	19 2f       	mov	r17, r25
    39f2:	2a 2d       	mov	r18, r10
    39f4:	3b 2d       	mov	r19, r11
    39f6:	4c 2d       	mov	r20, r12
    39f8:	5d 2d       	mov	r21, r13
    39fa:	6e 2d       	mov	r22, r14
    39fc:	7f 2d       	mov	r23, r15
    39fe:	80 2f       	mov	r24, r16
    3a00:	91 2f       	mov	r25, r17
    3a02:	0e 94 f6 01 	call	0x3ec	; 0x3ec <__floatundisf>
    3a06:	dc 01       	movw	r26, r24
    3a08:	cb 01       	movw	r24, r22
    3a0a:	20 e0       	ldi	r18, 0x00	; 0
    3a0c:	3b e1       	ldi	r19, 0x1B	; 27
    3a0e:	47 eb       	ldi	r20, 0xB7	; 183
    3a10:	5a e4       	ldi	r21, 0x4A	; 74
    3a12:	bc 01       	movw	r22, r24
    3a14:	cd 01       	movw	r24, r26
    3a16:	0e 94 71 03 	call	0x6e2	; 0x6e2 <__divsf3>
    3a1a:	dc 01       	movw	r26, r24
    3a1c:	cb 01       	movw	r24, r22
    3a1e:	bc 01       	movw	r22, r24
    3a20:	cd 01       	movw	r24, r26
    3a22:	0e 94 45 01 	call	0x28a	; 0x28a <__fixunssfdi>
    3a26:	a2 2e       	mov	r10, r18
    3a28:	b3 2e       	mov	r11, r19
    3a2a:	c4 2e       	mov	r12, r20
    3a2c:	d5 2e       	mov	r13, r21
    3a2e:	e6 2e       	mov	r14, r22
    3a30:	f7 2e       	mov	r15, r23
    3a32:	08 2f       	mov	r16, r24
    3a34:	19 2f       	mov	r17, r25
    3a36:	d6 01       	movw	r26, r12
    3a38:	c5 01       	movw	r24, r10
    3a3a:	bc 01       	movw	r22, r24
    3a3c:	cd 01       	movw	r24, r26
    3a3e:	9f da       	rcall	.-2754   	; 0x2f7e <__portable_avr_delay_cycles>
    3a40:	19 82       	std	Y+1, r1	; 0x01
    3a42:	58 c0       	rjmp	.+176    	; 0x3af4 <transmit+0x1fa>
    3a44:	89 81       	ldd	r24, Y+1	; 0x01
    3a46:	88 2f       	mov	r24, r24
    3a48:	90 e0       	ldi	r25, 0x00	; 0
    3a4a:	2a 81       	ldd	r18, Y+2	; 0x02
    3a4c:	3b 81       	ldd	r19, Y+3	; 0x03
    3a4e:	82 0f       	add	r24, r18
    3a50:	93 1f       	adc	r25, r19
    3a52:	fc 01       	movw	r30, r24
    3a54:	80 81       	ld	r24, Z
    3a56:	68 2f       	mov	r22, r24
    3a58:	80 ea       	ldi	r24, 0xA0	; 160
    3a5a:	9a e0       	ldi	r25, 0x0A	; 10
    3a5c:	0e 94 ed 14 	call	0x29da	; 0x29da <usart_putchar>
    3a60:	82 da       	rcall	.-2812   	; 0x2f66 <sysclk_get_cpu_hz>
    3a62:	dc 01       	movw	r26, r24
    3a64:	cb 01       	movw	r24, r22
    3a66:	5c 01       	movw	r10, r24
    3a68:	6d 01       	movw	r12, r26
    3a6a:	e1 2c       	mov	r14, r1
    3a6c:	f1 2c       	mov	r15, r1
    3a6e:	87 01       	movw	r16, r14
    3a70:	2a 2d       	mov	r18, r10
    3a72:	3b 2d       	mov	r19, r11
    3a74:	4c 2d       	mov	r20, r12
    3a76:	5d 2d       	mov	r21, r13
    3a78:	6e 2d       	mov	r22, r14
    3a7a:	7f 2d       	mov	r23, r15
    3a7c:	80 2f       	mov	r24, r16
    3a7e:	91 2f       	mov	r25, r17
    3a80:	21 5c       	subi	r18, 0xC1	; 193
    3a82:	3d 4b       	sbci	r19, 0xBD	; 189
    3a84:	40 4f       	sbci	r20, 0xF0	; 240
    3a86:	5f 4f       	sbci	r21, 0xFF	; 255
    3a88:	6f 4f       	sbci	r22, 0xFF	; 255
    3a8a:	7f 4f       	sbci	r23, 0xFF	; 255
    3a8c:	8f 4f       	sbci	r24, 0xFF	; 255
    3a8e:	9f 4f       	sbci	r25, 0xFF	; 255
    3a90:	a2 2e       	mov	r10, r18
    3a92:	b3 2e       	mov	r11, r19
    3a94:	c4 2e       	mov	r12, r20
    3a96:	d5 2e       	mov	r13, r21
    3a98:	e6 2e       	mov	r14, r22
    3a9a:	f7 2e       	mov	r15, r23
    3a9c:	08 2f       	mov	r16, r24
    3a9e:	19 2f       	mov	r17, r25
    3aa0:	2a 2d       	mov	r18, r10
    3aa2:	3b 2d       	mov	r19, r11
    3aa4:	4c 2d       	mov	r20, r12
    3aa6:	5d 2d       	mov	r21, r13
    3aa8:	6e 2d       	mov	r22, r14
    3aaa:	7f 2d       	mov	r23, r15
    3aac:	80 2f       	mov	r24, r16
    3aae:	91 2f       	mov	r25, r17
    3ab0:	0e 94 f6 01 	call	0x3ec	; 0x3ec <__floatundisf>
    3ab4:	dc 01       	movw	r26, r24
    3ab6:	cb 01       	movw	r24, r22
    3ab8:	20 e0       	ldi	r18, 0x00	; 0
    3aba:	3b e1       	ldi	r19, 0x1B	; 27
    3abc:	47 eb       	ldi	r20, 0xB7	; 183
    3abe:	5a e4       	ldi	r21, 0x4A	; 74
    3ac0:	bc 01       	movw	r22, r24
    3ac2:	cd 01       	movw	r24, r26
    3ac4:	0e 94 71 03 	call	0x6e2	; 0x6e2 <__divsf3>
    3ac8:	dc 01       	movw	r26, r24
    3aca:	cb 01       	movw	r24, r22
    3acc:	bc 01       	movw	r22, r24
    3ace:	cd 01       	movw	r24, r26
    3ad0:	0e 94 45 01 	call	0x28a	; 0x28a <__fixunssfdi>
    3ad4:	a2 2e       	mov	r10, r18
    3ad6:	b3 2e       	mov	r11, r19
    3ad8:	c4 2e       	mov	r12, r20
    3ada:	d5 2e       	mov	r13, r21
    3adc:	e6 2e       	mov	r14, r22
    3ade:	f7 2e       	mov	r15, r23
    3ae0:	08 2f       	mov	r16, r24
    3ae2:	19 2f       	mov	r17, r25
    3ae4:	d6 01       	movw	r26, r12
    3ae6:	c5 01       	movw	r24, r10
    3ae8:	bc 01       	movw	r22, r24
    3aea:	cd 01       	movw	r24, r26
    3aec:	48 da       	rcall	.-2928   	; 0x2f7e <__portable_avr_delay_cycles>
    3aee:	89 81       	ldd	r24, Y+1	; 0x01
    3af0:	8f 5f       	subi	r24, 0xFF	; 255
    3af2:	89 83       	std	Y+1, r24	; 0x01
    3af4:	99 81       	ldd	r25, Y+1	; 0x01
    3af6:	8c 81       	ldd	r24, Y+4	; 0x04
    3af8:	98 17       	cp	r25, r24
    3afa:	08 f4       	brcc	.+2      	; 0x3afe <transmit+0x204>
    3afc:	a3 cf       	rjmp	.-186    	; 0x3a44 <transmit+0x14a>
    3afe:	8c 81       	ldd	r24, Y+4	; 0x04
    3b00:	28 2f       	mov	r18, r24
    3b02:	2f 5f       	subi	r18, 0xFF	; 255
    3b04:	8a 81       	ldd	r24, Y+2	; 0x02
    3b06:	9b 81       	ldd	r25, Y+3	; 0x03
    3b08:	62 2f       	mov	r22, r18
    3b0a:	3a d2       	rcall	.+1140   	; 0x3f80 <calcCheckSum>
    3b0c:	68 2f       	mov	r22, r24
    3b0e:	80 ea       	ldi	r24, 0xA0	; 160
    3b10:	9a e0       	ldi	r25, 0x0A	; 10
    3b12:	0e 94 ed 14 	call	0x29da	; 0x29da <usart_putchar>
    3b16:	27 da       	rcall	.-2994   	; 0x2f66 <sysclk_get_cpu_hz>
    3b18:	dc 01       	movw	r26, r24
    3b1a:	cb 01       	movw	r24, r22
    3b1c:	5c 01       	movw	r10, r24
    3b1e:	6d 01       	movw	r12, r26
    3b20:	e1 2c       	mov	r14, r1
    3b22:	f1 2c       	mov	r15, r1
    3b24:	87 01       	movw	r16, r14
    3b26:	2a 2d       	mov	r18, r10
    3b28:	3b 2d       	mov	r19, r11
    3b2a:	4c 2d       	mov	r20, r12
    3b2c:	5d 2d       	mov	r21, r13
    3b2e:	6e 2d       	mov	r22, r14
    3b30:	7f 2d       	mov	r23, r15
    3b32:	80 2f       	mov	r24, r16
    3b34:	91 2f       	mov	r25, r17
    3b36:	21 5c       	subi	r18, 0xC1	; 193
    3b38:	3d 4b       	sbci	r19, 0xBD	; 189
    3b3a:	40 4f       	sbci	r20, 0xF0	; 240
    3b3c:	5f 4f       	sbci	r21, 0xFF	; 255
    3b3e:	6f 4f       	sbci	r22, 0xFF	; 255
    3b40:	7f 4f       	sbci	r23, 0xFF	; 255
    3b42:	8f 4f       	sbci	r24, 0xFF	; 255
    3b44:	9f 4f       	sbci	r25, 0xFF	; 255
    3b46:	a2 2e       	mov	r10, r18
    3b48:	b3 2e       	mov	r11, r19
    3b4a:	c4 2e       	mov	r12, r20
    3b4c:	d5 2e       	mov	r13, r21
    3b4e:	e6 2e       	mov	r14, r22
    3b50:	f7 2e       	mov	r15, r23
    3b52:	08 2f       	mov	r16, r24
    3b54:	19 2f       	mov	r17, r25
    3b56:	2a 2d       	mov	r18, r10
    3b58:	3b 2d       	mov	r19, r11
    3b5a:	4c 2d       	mov	r20, r12
    3b5c:	5d 2d       	mov	r21, r13
    3b5e:	6e 2d       	mov	r22, r14
    3b60:	7f 2d       	mov	r23, r15
    3b62:	80 2f       	mov	r24, r16
    3b64:	91 2f       	mov	r25, r17
    3b66:	0e 94 f6 01 	call	0x3ec	; 0x3ec <__floatundisf>
    3b6a:	dc 01       	movw	r26, r24
    3b6c:	cb 01       	movw	r24, r22
    3b6e:	20 e0       	ldi	r18, 0x00	; 0
    3b70:	3b e1       	ldi	r19, 0x1B	; 27
    3b72:	47 eb       	ldi	r20, 0xB7	; 183
    3b74:	5a e4       	ldi	r21, 0x4A	; 74
    3b76:	bc 01       	movw	r22, r24
    3b78:	cd 01       	movw	r24, r26
    3b7a:	0e 94 71 03 	call	0x6e2	; 0x6e2 <__divsf3>
    3b7e:	dc 01       	movw	r26, r24
    3b80:	cb 01       	movw	r24, r22
    3b82:	bc 01       	movw	r22, r24
    3b84:	cd 01       	movw	r24, r26
    3b86:	0e 94 45 01 	call	0x28a	; 0x28a <__fixunssfdi>
    3b8a:	a2 2e       	mov	r10, r18
    3b8c:	b3 2e       	mov	r11, r19
    3b8e:	c4 2e       	mov	r12, r20
    3b90:	d5 2e       	mov	r13, r21
    3b92:	e6 2e       	mov	r14, r22
    3b94:	f7 2e       	mov	r15, r23
    3b96:	08 2f       	mov	r16, r24
    3b98:	19 2f       	mov	r17, r25
    3b9a:	d6 01       	movw	r26, r12
    3b9c:	c5 01       	movw	r24, r10
    3b9e:	bc 01       	movw	r22, r24
    3ba0:	cd 01       	movw	r24, r26
    3ba2:	ed d9       	rcall	.-3110   	; 0x2f7e <__portable_avr_delay_cycles>
    3ba4:	6d e0       	ldi	r22, 0x0D	; 13
    3ba6:	80 ea       	ldi	r24, 0xA0	; 160
    3ba8:	9a e0       	ldi	r25, 0x0A	; 10
    3baa:	44 db       	rcall	.-2424   	; 0x3234 <usart_put>
    3bac:	24 96       	adiw	r28, 0x04	; 4
    3bae:	cd bf       	out	0x3d, r28	; 61
    3bb0:	de bf       	out	0x3e, r29	; 62
    3bb2:	df 91       	pop	r29
    3bb4:	cf 91       	pop	r28
    3bb6:	1f 91       	pop	r17
    3bb8:	0f 91       	pop	r16
    3bba:	ff 90       	pop	r15
    3bbc:	ef 90       	pop	r14
    3bbe:	df 90       	pop	r13
    3bc0:	cf 90       	pop	r12
    3bc2:	bf 90       	pop	r11
    3bc4:	af 90       	pop	r10
    3bc6:	08 95       	ret

00003bc8 <transmit_2bytes>:
    3bc8:	af 92       	push	r10
    3bca:	bf 92       	push	r11
    3bcc:	cf 92       	push	r12
    3bce:	df 92       	push	r13
    3bd0:	ef 92       	push	r14
    3bd2:	ff 92       	push	r15
    3bd4:	0f 93       	push	r16
    3bd6:	1f 93       	push	r17
    3bd8:	cf 93       	push	r28
    3bda:	df 93       	push	r29
    3bdc:	00 d0       	rcall	.+0      	; 0x3bde <transmit_2bytes+0x16>
    3bde:	cd b7       	in	r28, 0x3d	; 61
    3be0:	de b7       	in	r29, 0x3e	; 62
    3be2:	89 83       	std	Y+1, r24	; 0x01
    3be4:	6a 83       	std	Y+2, r22	; 0x02
    3be6:	bf d9       	rcall	.-3202   	; 0x2f66 <sysclk_get_cpu_hz>
    3be8:	dc 01       	movw	r26, r24
    3bea:	cb 01       	movw	r24, r22
    3bec:	5c 01       	movw	r10, r24
    3bee:	6d 01       	movw	r12, r26
    3bf0:	e1 2c       	mov	r14, r1
    3bf2:	f1 2c       	mov	r15, r1
    3bf4:	87 01       	movw	r16, r14
    3bf6:	2a 2d       	mov	r18, r10
    3bf8:	3b 2d       	mov	r19, r11
    3bfa:	4c 2d       	mov	r20, r12
    3bfc:	5d 2d       	mov	r21, r13
    3bfe:	6e 2d       	mov	r22, r14
    3c00:	7f 2d       	mov	r23, r15
    3c02:	80 2f       	mov	r24, r16
    3c04:	91 2f       	mov	r25, r17
    3c06:	21 5c       	subi	r18, 0xC1	; 193
    3c08:	3d 4b       	sbci	r19, 0xBD	; 189
    3c0a:	40 4f       	sbci	r20, 0xF0	; 240
    3c0c:	5f 4f       	sbci	r21, 0xFF	; 255
    3c0e:	6f 4f       	sbci	r22, 0xFF	; 255
    3c10:	7f 4f       	sbci	r23, 0xFF	; 255
    3c12:	8f 4f       	sbci	r24, 0xFF	; 255
    3c14:	9f 4f       	sbci	r25, 0xFF	; 255
    3c16:	a2 2e       	mov	r10, r18
    3c18:	b3 2e       	mov	r11, r19
    3c1a:	c4 2e       	mov	r12, r20
    3c1c:	d5 2e       	mov	r13, r21
    3c1e:	e6 2e       	mov	r14, r22
    3c20:	f7 2e       	mov	r15, r23
    3c22:	08 2f       	mov	r16, r24
    3c24:	19 2f       	mov	r17, r25
    3c26:	2a 2d       	mov	r18, r10
    3c28:	3b 2d       	mov	r19, r11
    3c2a:	4c 2d       	mov	r20, r12
    3c2c:	5d 2d       	mov	r21, r13
    3c2e:	6e 2d       	mov	r22, r14
    3c30:	7f 2d       	mov	r23, r15
    3c32:	80 2f       	mov	r24, r16
    3c34:	91 2f       	mov	r25, r17
    3c36:	0e 94 f6 01 	call	0x3ec	; 0x3ec <__floatundisf>
    3c3a:	dc 01       	movw	r26, r24
    3c3c:	cb 01       	movw	r24, r22
    3c3e:	20 e0       	ldi	r18, 0x00	; 0
    3c40:	3b e1       	ldi	r19, 0x1B	; 27
    3c42:	47 eb       	ldi	r20, 0xB7	; 183
    3c44:	5a e4       	ldi	r21, 0x4A	; 74
    3c46:	bc 01       	movw	r22, r24
    3c48:	cd 01       	movw	r24, r26
    3c4a:	0e 94 71 03 	call	0x6e2	; 0x6e2 <__divsf3>
    3c4e:	dc 01       	movw	r26, r24
    3c50:	cb 01       	movw	r24, r22
    3c52:	bc 01       	movw	r22, r24
    3c54:	cd 01       	movw	r24, r26
    3c56:	0e 94 45 01 	call	0x28a	; 0x28a <__fixunssfdi>
    3c5a:	a2 2e       	mov	r10, r18
    3c5c:	b3 2e       	mov	r11, r19
    3c5e:	c4 2e       	mov	r12, r20
    3c60:	d5 2e       	mov	r13, r21
    3c62:	e6 2e       	mov	r14, r22
    3c64:	f7 2e       	mov	r15, r23
    3c66:	08 2f       	mov	r16, r24
    3c68:	19 2f       	mov	r17, r25
    3c6a:	d6 01       	movw	r26, r12
    3c6c:	c5 01       	movw	r24, r10
    3c6e:	bc 01       	movw	r22, r24
    3c70:	cd 01       	movw	r24, r26
    3c72:	85 d9       	rcall	.-3318   	; 0x2f7e <__portable_avr_delay_cycles>
    3c74:	6a e3       	ldi	r22, 0x3A	; 58
    3c76:	80 ea       	ldi	r24, 0xA0	; 160
    3c78:	9a e0       	ldi	r25, 0x0A	; 10
    3c7a:	0e 94 ed 14 	call	0x29da	; 0x29da <usart_putchar>
    3c7e:	73 d9       	rcall	.-3354   	; 0x2f66 <sysclk_get_cpu_hz>
    3c80:	dc 01       	movw	r26, r24
    3c82:	cb 01       	movw	r24, r22
    3c84:	5c 01       	movw	r10, r24
    3c86:	6d 01       	movw	r12, r26
    3c88:	e1 2c       	mov	r14, r1
    3c8a:	f1 2c       	mov	r15, r1
    3c8c:	87 01       	movw	r16, r14
    3c8e:	2a 2d       	mov	r18, r10
    3c90:	3b 2d       	mov	r19, r11
    3c92:	4c 2d       	mov	r20, r12
    3c94:	5d 2d       	mov	r21, r13
    3c96:	6e 2d       	mov	r22, r14
    3c98:	7f 2d       	mov	r23, r15
    3c9a:	80 2f       	mov	r24, r16
    3c9c:	91 2f       	mov	r25, r17
    3c9e:	21 5c       	subi	r18, 0xC1	; 193
    3ca0:	3d 4b       	sbci	r19, 0xBD	; 189
    3ca2:	40 4f       	sbci	r20, 0xF0	; 240
    3ca4:	5f 4f       	sbci	r21, 0xFF	; 255
    3ca6:	6f 4f       	sbci	r22, 0xFF	; 255
    3ca8:	7f 4f       	sbci	r23, 0xFF	; 255
    3caa:	8f 4f       	sbci	r24, 0xFF	; 255
    3cac:	9f 4f       	sbci	r25, 0xFF	; 255
    3cae:	a2 2e       	mov	r10, r18
    3cb0:	b3 2e       	mov	r11, r19
    3cb2:	c4 2e       	mov	r12, r20
    3cb4:	d5 2e       	mov	r13, r21
    3cb6:	e6 2e       	mov	r14, r22
    3cb8:	f7 2e       	mov	r15, r23
    3cba:	08 2f       	mov	r16, r24
    3cbc:	19 2f       	mov	r17, r25
    3cbe:	2a 2d       	mov	r18, r10
    3cc0:	3b 2d       	mov	r19, r11
    3cc2:	4c 2d       	mov	r20, r12
    3cc4:	5d 2d       	mov	r21, r13
    3cc6:	6e 2d       	mov	r22, r14
    3cc8:	7f 2d       	mov	r23, r15
    3cca:	80 2f       	mov	r24, r16
    3ccc:	91 2f       	mov	r25, r17
    3cce:	0e 94 f6 01 	call	0x3ec	; 0x3ec <__floatundisf>
    3cd2:	dc 01       	movw	r26, r24
    3cd4:	cb 01       	movw	r24, r22
    3cd6:	20 e0       	ldi	r18, 0x00	; 0
    3cd8:	3b e1       	ldi	r19, 0x1B	; 27
    3cda:	47 eb       	ldi	r20, 0xB7	; 183
    3cdc:	5a e4       	ldi	r21, 0x4A	; 74
    3cde:	bc 01       	movw	r22, r24
    3ce0:	cd 01       	movw	r24, r26
    3ce2:	0e 94 71 03 	call	0x6e2	; 0x6e2 <__divsf3>
    3ce6:	dc 01       	movw	r26, r24
    3ce8:	cb 01       	movw	r24, r22
    3cea:	bc 01       	movw	r22, r24
    3cec:	cd 01       	movw	r24, r26
    3cee:	0e 94 45 01 	call	0x28a	; 0x28a <__fixunssfdi>
    3cf2:	a2 2e       	mov	r10, r18
    3cf4:	b3 2e       	mov	r11, r19
    3cf6:	c4 2e       	mov	r12, r20
    3cf8:	d5 2e       	mov	r13, r21
    3cfa:	e6 2e       	mov	r14, r22
    3cfc:	f7 2e       	mov	r15, r23
    3cfe:	08 2f       	mov	r16, r24
    3d00:	19 2f       	mov	r17, r25
    3d02:	d6 01       	movw	r26, r12
    3d04:	c5 01       	movw	r24, r10
    3d06:	bc 01       	movw	r22, r24
    3d08:	cd 01       	movw	r24, r26
    3d0a:	39 d9       	rcall	.-3470   	; 0x2f7e <__portable_avr_delay_cycles>
    3d0c:	69 81       	ldd	r22, Y+1	; 0x01
    3d0e:	80 ea       	ldi	r24, 0xA0	; 160
    3d10:	9a e0       	ldi	r25, 0x0A	; 10
    3d12:	0e 94 ed 14 	call	0x29da	; 0x29da <usart_putchar>
    3d16:	27 d9       	rcall	.-3506   	; 0x2f66 <sysclk_get_cpu_hz>
    3d18:	dc 01       	movw	r26, r24
    3d1a:	cb 01       	movw	r24, r22
    3d1c:	5c 01       	movw	r10, r24
    3d1e:	6d 01       	movw	r12, r26
    3d20:	e1 2c       	mov	r14, r1
    3d22:	f1 2c       	mov	r15, r1
    3d24:	87 01       	movw	r16, r14
    3d26:	2a 2d       	mov	r18, r10
    3d28:	3b 2d       	mov	r19, r11
    3d2a:	4c 2d       	mov	r20, r12
    3d2c:	5d 2d       	mov	r21, r13
    3d2e:	6e 2d       	mov	r22, r14
    3d30:	7f 2d       	mov	r23, r15
    3d32:	80 2f       	mov	r24, r16
    3d34:	91 2f       	mov	r25, r17
    3d36:	21 5c       	subi	r18, 0xC1	; 193
    3d38:	3d 4b       	sbci	r19, 0xBD	; 189
    3d3a:	40 4f       	sbci	r20, 0xF0	; 240
    3d3c:	5f 4f       	sbci	r21, 0xFF	; 255
    3d3e:	6f 4f       	sbci	r22, 0xFF	; 255
    3d40:	7f 4f       	sbci	r23, 0xFF	; 255
    3d42:	8f 4f       	sbci	r24, 0xFF	; 255
    3d44:	9f 4f       	sbci	r25, 0xFF	; 255
    3d46:	a2 2e       	mov	r10, r18
    3d48:	b3 2e       	mov	r11, r19
    3d4a:	c4 2e       	mov	r12, r20
    3d4c:	d5 2e       	mov	r13, r21
    3d4e:	e6 2e       	mov	r14, r22
    3d50:	f7 2e       	mov	r15, r23
    3d52:	08 2f       	mov	r16, r24
    3d54:	19 2f       	mov	r17, r25
    3d56:	2a 2d       	mov	r18, r10
    3d58:	3b 2d       	mov	r19, r11
    3d5a:	4c 2d       	mov	r20, r12
    3d5c:	5d 2d       	mov	r21, r13
    3d5e:	6e 2d       	mov	r22, r14
    3d60:	7f 2d       	mov	r23, r15
    3d62:	80 2f       	mov	r24, r16
    3d64:	91 2f       	mov	r25, r17
    3d66:	0e 94 f6 01 	call	0x3ec	; 0x3ec <__floatundisf>
    3d6a:	dc 01       	movw	r26, r24
    3d6c:	cb 01       	movw	r24, r22
    3d6e:	20 e0       	ldi	r18, 0x00	; 0
    3d70:	3b e1       	ldi	r19, 0x1B	; 27
    3d72:	47 eb       	ldi	r20, 0xB7	; 183
    3d74:	5a e4       	ldi	r21, 0x4A	; 74
    3d76:	bc 01       	movw	r22, r24
    3d78:	cd 01       	movw	r24, r26
    3d7a:	0e 94 71 03 	call	0x6e2	; 0x6e2 <__divsf3>
    3d7e:	dc 01       	movw	r26, r24
    3d80:	cb 01       	movw	r24, r22
    3d82:	bc 01       	movw	r22, r24
    3d84:	cd 01       	movw	r24, r26
    3d86:	0e 94 45 01 	call	0x28a	; 0x28a <__fixunssfdi>
    3d8a:	a2 2e       	mov	r10, r18
    3d8c:	b3 2e       	mov	r11, r19
    3d8e:	c4 2e       	mov	r12, r20
    3d90:	d5 2e       	mov	r13, r21
    3d92:	e6 2e       	mov	r14, r22
    3d94:	f7 2e       	mov	r15, r23
    3d96:	08 2f       	mov	r16, r24
    3d98:	19 2f       	mov	r17, r25
    3d9a:	d6 01       	movw	r26, r12
    3d9c:	c5 01       	movw	r24, r10
    3d9e:	bc 01       	movw	r22, r24
    3da0:	cd 01       	movw	r24, r26
    3da2:	ed d8       	rcall	.-3622   	; 0x2f7e <__portable_avr_delay_cycles>
    3da4:	6a 81       	ldd	r22, Y+2	; 0x02
    3da6:	80 ea       	ldi	r24, 0xA0	; 160
    3da8:	9a e0       	ldi	r25, 0x0A	; 10
    3daa:	0e 94 ed 14 	call	0x29da	; 0x29da <usart_putchar>
    3dae:	db d8       	rcall	.-3658   	; 0x2f66 <sysclk_get_cpu_hz>
    3db0:	dc 01       	movw	r26, r24
    3db2:	cb 01       	movw	r24, r22
    3db4:	5c 01       	movw	r10, r24
    3db6:	6d 01       	movw	r12, r26
    3db8:	e1 2c       	mov	r14, r1
    3dba:	f1 2c       	mov	r15, r1
    3dbc:	87 01       	movw	r16, r14
    3dbe:	2a 2d       	mov	r18, r10
    3dc0:	3b 2d       	mov	r19, r11
    3dc2:	4c 2d       	mov	r20, r12
    3dc4:	5d 2d       	mov	r21, r13
    3dc6:	6e 2d       	mov	r22, r14
    3dc8:	7f 2d       	mov	r23, r15
    3dca:	80 2f       	mov	r24, r16
    3dcc:	91 2f       	mov	r25, r17
    3dce:	21 5c       	subi	r18, 0xC1	; 193
    3dd0:	3d 4b       	sbci	r19, 0xBD	; 189
    3dd2:	40 4f       	sbci	r20, 0xF0	; 240
    3dd4:	5f 4f       	sbci	r21, 0xFF	; 255
    3dd6:	6f 4f       	sbci	r22, 0xFF	; 255
    3dd8:	7f 4f       	sbci	r23, 0xFF	; 255
    3dda:	8f 4f       	sbci	r24, 0xFF	; 255
    3ddc:	9f 4f       	sbci	r25, 0xFF	; 255
    3dde:	a2 2e       	mov	r10, r18
    3de0:	b3 2e       	mov	r11, r19
    3de2:	c4 2e       	mov	r12, r20
    3de4:	d5 2e       	mov	r13, r21
    3de6:	e6 2e       	mov	r14, r22
    3de8:	f7 2e       	mov	r15, r23
    3dea:	08 2f       	mov	r16, r24
    3dec:	19 2f       	mov	r17, r25
    3dee:	2a 2d       	mov	r18, r10
    3df0:	3b 2d       	mov	r19, r11
    3df2:	4c 2d       	mov	r20, r12
    3df4:	5d 2d       	mov	r21, r13
    3df6:	6e 2d       	mov	r22, r14
    3df8:	7f 2d       	mov	r23, r15
    3dfa:	80 2f       	mov	r24, r16
    3dfc:	91 2f       	mov	r25, r17
    3dfe:	0e 94 f6 01 	call	0x3ec	; 0x3ec <__floatundisf>
    3e02:	dc 01       	movw	r26, r24
    3e04:	cb 01       	movw	r24, r22
    3e06:	20 e0       	ldi	r18, 0x00	; 0
    3e08:	3b e1       	ldi	r19, 0x1B	; 27
    3e0a:	47 eb       	ldi	r20, 0xB7	; 183
    3e0c:	5a e4       	ldi	r21, 0x4A	; 74
    3e0e:	bc 01       	movw	r22, r24
    3e10:	cd 01       	movw	r24, r26
    3e12:	0e 94 71 03 	call	0x6e2	; 0x6e2 <__divsf3>
    3e16:	dc 01       	movw	r26, r24
    3e18:	cb 01       	movw	r24, r22
    3e1a:	bc 01       	movw	r22, r24
    3e1c:	cd 01       	movw	r24, r26
    3e1e:	0e 94 45 01 	call	0x28a	; 0x28a <__fixunssfdi>
    3e22:	a2 2e       	mov	r10, r18
    3e24:	b3 2e       	mov	r11, r19
    3e26:	c4 2e       	mov	r12, r20
    3e28:	d5 2e       	mov	r13, r21
    3e2a:	e6 2e       	mov	r14, r22
    3e2c:	f7 2e       	mov	r15, r23
    3e2e:	08 2f       	mov	r16, r24
    3e30:	19 2f       	mov	r17, r25
    3e32:	d6 01       	movw	r26, r12
    3e34:	c5 01       	movw	r24, r10
    3e36:	bc 01       	movw	r22, r24
    3e38:	cd 01       	movw	r24, r26
    3e3a:	a1 d8       	rcall	.-3774   	; 0x2f7e <__portable_avr_delay_cycles>
    3e3c:	89 81       	ldd	r24, Y+1	; 0x01
    3e3e:	98 2f       	mov	r25, r24
    3e40:	91 95       	neg	r25
    3e42:	8a 81       	ldd	r24, Y+2	; 0x02
    3e44:	29 2f       	mov	r18, r25
    3e46:	28 1b       	sub	r18, r24
    3e48:	82 2f       	mov	r24, r18
    3e4a:	68 2f       	mov	r22, r24
    3e4c:	80 ea       	ldi	r24, 0xA0	; 160
    3e4e:	9a e0       	ldi	r25, 0x0A	; 10
    3e50:	0e 94 ed 14 	call	0x29da	; 0x29da <usart_putchar>
    3e54:	88 d8       	rcall	.-3824   	; 0x2f66 <sysclk_get_cpu_hz>
    3e56:	dc 01       	movw	r26, r24
    3e58:	cb 01       	movw	r24, r22
    3e5a:	5c 01       	movw	r10, r24
    3e5c:	6d 01       	movw	r12, r26
    3e5e:	e1 2c       	mov	r14, r1
    3e60:	f1 2c       	mov	r15, r1
    3e62:	87 01       	movw	r16, r14
    3e64:	2a 2d       	mov	r18, r10
    3e66:	3b 2d       	mov	r19, r11
    3e68:	4c 2d       	mov	r20, r12
    3e6a:	5d 2d       	mov	r21, r13
    3e6c:	6e 2d       	mov	r22, r14
    3e6e:	7f 2d       	mov	r23, r15
    3e70:	80 2f       	mov	r24, r16
    3e72:	91 2f       	mov	r25, r17
    3e74:	21 5c       	subi	r18, 0xC1	; 193
    3e76:	3d 4b       	sbci	r19, 0xBD	; 189
    3e78:	40 4f       	sbci	r20, 0xF0	; 240
    3e7a:	5f 4f       	sbci	r21, 0xFF	; 255
    3e7c:	6f 4f       	sbci	r22, 0xFF	; 255
    3e7e:	7f 4f       	sbci	r23, 0xFF	; 255
    3e80:	8f 4f       	sbci	r24, 0xFF	; 255
    3e82:	9f 4f       	sbci	r25, 0xFF	; 255
    3e84:	a2 2e       	mov	r10, r18
    3e86:	b3 2e       	mov	r11, r19
    3e88:	c4 2e       	mov	r12, r20
    3e8a:	d5 2e       	mov	r13, r21
    3e8c:	e6 2e       	mov	r14, r22
    3e8e:	f7 2e       	mov	r15, r23
    3e90:	08 2f       	mov	r16, r24
    3e92:	19 2f       	mov	r17, r25
    3e94:	2a 2d       	mov	r18, r10
    3e96:	3b 2d       	mov	r19, r11
    3e98:	4c 2d       	mov	r20, r12
    3e9a:	5d 2d       	mov	r21, r13
    3e9c:	6e 2d       	mov	r22, r14
    3e9e:	7f 2d       	mov	r23, r15
    3ea0:	80 2f       	mov	r24, r16
    3ea2:	91 2f       	mov	r25, r17
    3ea4:	0e 94 f6 01 	call	0x3ec	; 0x3ec <__floatundisf>
    3ea8:	dc 01       	movw	r26, r24
    3eaa:	cb 01       	movw	r24, r22
    3eac:	20 e0       	ldi	r18, 0x00	; 0
    3eae:	3b e1       	ldi	r19, 0x1B	; 27
    3eb0:	47 eb       	ldi	r20, 0xB7	; 183
    3eb2:	5a e4       	ldi	r21, 0x4A	; 74
    3eb4:	bc 01       	movw	r22, r24
    3eb6:	cd 01       	movw	r24, r26
    3eb8:	0e 94 71 03 	call	0x6e2	; 0x6e2 <__divsf3>
    3ebc:	dc 01       	movw	r26, r24
    3ebe:	cb 01       	movw	r24, r22
    3ec0:	bc 01       	movw	r22, r24
    3ec2:	cd 01       	movw	r24, r26
    3ec4:	0e 94 45 01 	call	0x28a	; 0x28a <__fixunssfdi>
    3ec8:	a2 2e       	mov	r10, r18
    3eca:	b3 2e       	mov	r11, r19
    3ecc:	c4 2e       	mov	r12, r20
    3ece:	d5 2e       	mov	r13, r21
    3ed0:	e6 2e       	mov	r14, r22
    3ed2:	f7 2e       	mov	r15, r23
    3ed4:	08 2f       	mov	r16, r24
    3ed6:	19 2f       	mov	r17, r25
    3ed8:	d6 01       	movw	r26, r12
    3eda:	c5 01       	movw	r24, r10
    3edc:	bc 01       	movw	r22, r24
    3ede:	cd 01       	movw	r24, r26
    3ee0:	4e d8       	rcall	.-3940   	; 0x2f7e <__portable_avr_delay_cycles>
    3ee2:	6d e0       	ldi	r22, 0x0D	; 13
    3ee4:	80 ea       	ldi	r24, 0xA0	; 160
    3ee6:	9a e0       	ldi	r25, 0x0A	; 10
    3ee8:	a5 d9       	rcall	.-3254   	; 0x3234 <usart_put>
    3eea:	0f 90       	pop	r0
    3eec:	0f 90       	pop	r0
    3eee:	df 91       	pop	r29
    3ef0:	cf 91       	pop	r28
    3ef2:	1f 91       	pop	r17
    3ef4:	0f 91       	pop	r16
    3ef6:	ff 90       	pop	r15
    3ef8:	ef 90       	pop	r14
    3efa:	df 90       	pop	r13
    3efc:	cf 90       	pop	r12
    3efe:	bf 90       	pop	r11
    3f00:	af 90       	pop	r10
    3f02:	08 95       	ret

00003f04 <checkCommand>:
    3f04:	cf 93       	push	r28
    3f06:	df 93       	push	r29
    3f08:	cd b7       	in	r28, 0x3d	; 61
    3f0a:	de b7       	in	r29, 0x3e	; 62
    3f0c:	25 97       	sbiw	r28, 0x05	; 5
    3f0e:	cd bf       	out	0x3d, r28	; 61
    3f10:	de bf       	out	0x3e, r29	; 62
    3f12:	8b 83       	std	Y+3, r24	; 0x03
    3f14:	9c 83       	std	Y+4, r25	; 0x04
    3f16:	6d 83       	std	Y+5, r22	; 0x05
    3f18:	19 82       	std	Y+1, r1	; 0x01
    3f1a:	1a 82       	std	Y+2, r1	; 0x02
    3f1c:	11 c0       	rjmp	.+34     	; 0x3f40 <checkCommand+0x3c>
    3f1e:	8a 81       	ldd	r24, Y+2	; 0x02
    3f20:	88 2f       	mov	r24, r24
    3f22:	90 e0       	ldi	r25, 0x00	; 0
    3f24:	2b 81       	ldd	r18, Y+3	; 0x03
    3f26:	3c 81       	ldd	r19, Y+4	; 0x04
    3f28:	82 0f       	add	r24, r18
    3f2a:	93 1f       	adc	r25, r19
    3f2c:	fc 01       	movw	r30, r24
    3f2e:	80 81       	ld	r24, Z
    3f30:	99 81       	ldd	r25, Y+1	; 0x01
    3f32:	f9 2f       	mov	r31, r25
    3f34:	f8 1b       	sub	r31, r24
    3f36:	8f 2f       	mov	r24, r31
    3f38:	89 83       	std	Y+1, r24	; 0x01
    3f3a:	8a 81       	ldd	r24, Y+2	; 0x02
    3f3c:	8f 5f       	subi	r24, 0xFF	; 255
    3f3e:	8a 83       	std	Y+2, r24	; 0x02
    3f40:	8a 81       	ldd	r24, Y+2	; 0x02
    3f42:	28 2f       	mov	r18, r24
    3f44:	30 e0       	ldi	r19, 0x00	; 0
    3f46:	8d 81       	ldd	r24, Y+5	; 0x05
    3f48:	88 2f       	mov	r24, r24
    3f4a:	90 e0       	ldi	r25, 0x00	; 0
    3f4c:	01 97       	sbiw	r24, 0x01	; 1
    3f4e:	28 17       	cp	r18, r24
    3f50:	39 07       	cpc	r19, r25
    3f52:	2c f3       	brlt	.-54     	; 0x3f1e <checkCommand+0x1a>
    3f54:	8d 81       	ldd	r24, Y+5	; 0x05
    3f56:	88 2f       	mov	r24, r24
    3f58:	90 e0       	ldi	r25, 0x00	; 0
    3f5a:	01 97       	sbiw	r24, 0x01	; 1
    3f5c:	2b 81       	ldd	r18, Y+3	; 0x03
    3f5e:	3c 81       	ldd	r19, Y+4	; 0x04
    3f60:	82 0f       	add	r24, r18
    3f62:	93 1f       	adc	r25, r19
    3f64:	fc 01       	movw	r30, r24
    3f66:	90 81       	ld	r25, Z
    3f68:	89 81       	ldd	r24, Y+1	; 0x01
    3f6a:	98 17       	cp	r25, r24
    3f6c:	11 f4       	brne	.+4      	; 0x3f72 <checkCommand+0x6e>
    3f6e:	81 e0       	ldi	r24, 0x01	; 1
    3f70:	01 c0       	rjmp	.+2      	; 0x3f74 <checkCommand+0x70>
    3f72:	80 e0       	ldi	r24, 0x00	; 0
    3f74:	25 96       	adiw	r28, 0x05	; 5
    3f76:	cd bf       	out	0x3d, r28	; 61
    3f78:	de bf       	out	0x3e, r29	; 62
    3f7a:	df 91       	pop	r29
    3f7c:	cf 91       	pop	r28
    3f7e:	08 95       	ret

00003f80 <calcCheckSum>:
    3f80:	cf 93       	push	r28
    3f82:	df 93       	push	r29
    3f84:	cd b7       	in	r28, 0x3d	; 61
    3f86:	de b7       	in	r29, 0x3e	; 62
    3f88:	25 97       	sbiw	r28, 0x05	; 5
    3f8a:	cd bf       	out	0x3d, r28	; 61
    3f8c:	de bf       	out	0x3e, r29	; 62
    3f8e:	8b 83       	std	Y+3, r24	; 0x03
    3f90:	9c 83       	std	Y+4, r25	; 0x04
    3f92:	6d 83       	std	Y+5, r22	; 0x05
    3f94:	19 82       	std	Y+1, r1	; 0x01
    3f96:	1a 82       	std	Y+2, r1	; 0x02
    3f98:	11 c0       	rjmp	.+34     	; 0x3fbc <calcCheckSum+0x3c>
    3f9a:	8a 81       	ldd	r24, Y+2	; 0x02
    3f9c:	88 2f       	mov	r24, r24
    3f9e:	90 e0       	ldi	r25, 0x00	; 0
    3fa0:	2b 81       	ldd	r18, Y+3	; 0x03
    3fa2:	3c 81       	ldd	r19, Y+4	; 0x04
    3fa4:	82 0f       	add	r24, r18
    3fa6:	93 1f       	adc	r25, r19
    3fa8:	fc 01       	movw	r30, r24
    3faa:	80 81       	ld	r24, Z
    3fac:	99 81       	ldd	r25, Y+1	; 0x01
    3fae:	f9 2f       	mov	r31, r25
    3fb0:	f8 1b       	sub	r31, r24
    3fb2:	8f 2f       	mov	r24, r31
    3fb4:	89 83       	std	Y+1, r24	; 0x01
    3fb6:	8a 81       	ldd	r24, Y+2	; 0x02
    3fb8:	8f 5f       	subi	r24, 0xFF	; 255
    3fba:	8a 83       	std	Y+2, r24	; 0x02
    3fbc:	8a 81       	ldd	r24, Y+2	; 0x02
    3fbe:	28 2f       	mov	r18, r24
    3fc0:	30 e0       	ldi	r19, 0x00	; 0
    3fc2:	8d 81       	ldd	r24, Y+5	; 0x05
    3fc4:	88 2f       	mov	r24, r24
    3fc6:	90 e0       	ldi	r25, 0x00	; 0
    3fc8:	01 97       	sbiw	r24, 0x01	; 1
    3fca:	28 17       	cp	r18, r24
    3fcc:	39 07       	cpc	r19, r25
    3fce:	2c f3       	brlt	.-54     	; 0x3f9a <calcCheckSum+0x1a>
    3fd0:	89 81       	ldd	r24, Y+1	; 0x01
    3fd2:	25 96       	adiw	r28, 0x05	; 5
    3fd4:	cd bf       	out	0x3d, r28	; 61
    3fd6:	de bf       	out	0x3e, r29	; 62
    3fd8:	df 91       	pop	r29
    3fda:	cf 91       	pop	r28
    3fdc:	08 95       	ret

00003fde <MC_transmit_CPUfreq>:
    3fde:	cf 93       	push	r28
    3fe0:	df 93       	push	r29
    3fe2:	cd b7       	in	r28, 0x3d	; 61
    3fe4:	de b7       	in	r29, 0x3e	; 62
    3fe6:	29 97       	sbiw	r28, 0x09	; 9
    3fe8:	cd bf       	out	0x3d, r28	; 61
    3fea:	de bf       	out	0x3e, r29	; 62
    3fec:	0e 94 b3 17 	call	0x2f66	; 0x2f66 <sysclk_get_cpu_hz>
    3ff0:	dc 01       	movw	r26, r24
    3ff2:	cb 01       	movw	r24, r22
    3ff4:	89 83       	std	Y+1, r24	; 0x01
    3ff6:	9a 83       	std	Y+2, r25	; 0x02
    3ff8:	ab 83       	std	Y+3, r26	; 0x03
    3ffa:	bc 83       	std	Y+4, r27	; 0x04
    3ffc:	83 e0       	ldi	r24, 0x03	; 3
    3ffe:	8d 83       	std	Y+5, r24	; 0x05
    4000:	89 81       	ldd	r24, Y+1	; 0x01
    4002:	8e 83       	std	Y+6, r24	; 0x06
    4004:	89 81       	ldd	r24, Y+1	; 0x01
    4006:	9a 81       	ldd	r25, Y+2	; 0x02
    4008:	ab 81       	ldd	r26, Y+3	; 0x03
    400a:	bc 81       	ldd	r27, Y+4	; 0x04
    400c:	89 2f       	mov	r24, r25
    400e:	9a 2f       	mov	r25, r26
    4010:	ab 2f       	mov	r26, r27
    4012:	bb 27       	eor	r27, r27
    4014:	8f 83       	std	Y+7, r24	; 0x07
    4016:	89 81       	ldd	r24, Y+1	; 0x01
    4018:	9a 81       	ldd	r25, Y+2	; 0x02
    401a:	ab 81       	ldd	r26, Y+3	; 0x03
    401c:	bc 81       	ldd	r27, Y+4	; 0x04
    401e:	cd 01       	movw	r24, r26
    4020:	aa 27       	eor	r26, r26
    4022:	bb 27       	eor	r27, r27
    4024:	88 87       	std	Y+8, r24	; 0x08
    4026:	89 81       	ldd	r24, Y+1	; 0x01
    4028:	9a 81       	ldd	r25, Y+2	; 0x02
    402a:	ab 81       	ldd	r26, Y+3	; 0x03
    402c:	bc 81       	ldd	r27, Y+4	; 0x04
    402e:	8b 2f       	mov	r24, r27
    4030:	99 27       	eor	r25, r25
    4032:	aa 27       	eor	r26, r26
    4034:	bb 27       	eor	r27, r27
    4036:	89 87       	std	Y+9, r24	; 0x09
    4038:	ce 01       	movw	r24, r28
    403a:	05 96       	adiw	r24, 0x05	; 5
    403c:	65 e0       	ldi	r22, 0x05	; 5
    403e:	5d dc       	rcall	.-1862   	; 0x38fa <transmit>
    4040:	29 96       	adiw	r28, 0x09	; 9
    4042:	cd bf       	out	0x3d, r28	; 61
    4044:	de bf       	out	0x3e, r29	; 62
    4046:	df 91       	pop	r29
    4048:	cf 91       	pop	r28
    404a:	08 95       	ret

0000404c <MC_transmit_Birthday>:
    404c:	cf 93       	push	r28
    404e:	df 93       	push	r29
    4050:	cd b7       	in	r28, 0x3d	; 61
    4052:	de b7       	in	r29, 0x3e	; 62
    4054:	25 97       	sbiw	r28, 0x05	; 5
    4056:	cd bf       	out	0x3d, r28	; 61
    4058:	de bf       	out	0x3e, r29	; 62
    405a:	82 e0       	ldi	r24, 0x02	; 2
    405c:	89 83       	std	Y+1, r24	; 0x01
    405e:	80 91 01 20 	lds	r24, 0x2001
    4062:	90 91 02 20 	lds	r25, 0x2002
    4066:	a0 91 03 20 	lds	r26, 0x2003
    406a:	b0 91 04 20 	lds	r27, 0x2004
    406e:	8a 83       	std	Y+2, r24	; 0x02
    4070:	80 91 01 20 	lds	r24, 0x2001
    4074:	90 91 02 20 	lds	r25, 0x2002
    4078:	a0 91 03 20 	lds	r26, 0x2003
    407c:	b0 91 04 20 	lds	r27, 0x2004
    4080:	89 2f       	mov	r24, r25
    4082:	9a 2f       	mov	r25, r26
    4084:	ab 2f       	mov	r26, r27
    4086:	bb 27       	eor	r27, r27
    4088:	8b 83       	std	Y+3, r24	; 0x03
    408a:	80 91 01 20 	lds	r24, 0x2001
    408e:	90 91 02 20 	lds	r25, 0x2002
    4092:	a0 91 03 20 	lds	r26, 0x2003
    4096:	b0 91 04 20 	lds	r27, 0x2004
    409a:	cd 01       	movw	r24, r26
    409c:	aa 27       	eor	r26, r26
    409e:	bb 27       	eor	r27, r27
    40a0:	8c 83       	std	Y+4, r24	; 0x04
    40a2:	80 91 01 20 	lds	r24, 0x2001
    40a6:	90 91 02 20 	lds	r25, 0x2002
    40aa:	a0 91 03 20 	lds	r26, 0x2003
    40ae:	b0 91 04 20 	lds	r27, 0x2004
    40b2:	8b 2f       	mov	r24, r27
    40b4:	99 27       	eor	r25, r25
    40b6:	aa 27       	eor	r26, r26
    40b8:	bb 27       	eor	r27, r27
    40ba:	8d 83       	std	Y+5, r24	; 0x05
    40bc:	65 e0       	ldi	r22, 0x05	; 5
    40be:	ce 01       	movw	r24, r28
    40c0:	01 96       	adiw	r24, 0x01	; 1
    40c2:	1b dc       	rcall	.-1994   	; 0x38fa <transmit>
    40c4:	25 96       	adiw	r28, 0x05	; 5
    40c6:	cd bf       	out	0x3d, r28	; 61
    40c8:	de bf       	out	0x3e, r29	; 62
    40ca:	df 91       	pop	r29
    40cc:	cf 91       	pop	r28
    40ce:	08 95       	ret

000040d0 <COA_transmit_Result>:
    40d0:	cf 93       	push	r28
    40d2:	df 93       	push	r29
    40d4:	cd b7       	in	r28, 0x3d	; 61
    40d6:	de b7       	in	r29, 0x3e	; 62
    40d8:	26 97       	sbiw	r28, 0x06	; 6
    40da:	cd bf       	out	0x3d, r28	; 61
    40dc:	de bf       	out	0x3e, r29	; 62
    40de:	80 e2       	ldi	r24, 0x20	; 32
    40e0:	89 83       	std	Y+1, r24	; 0x01
    40e2:	80 91 6b 20 	lds	r24, 0x206B
    40e6:	8a 83       	std	Y+2, r24	; 0x02
    40e8:	1b 82       	std	Y+3, r1	; 0x03
    40ea:	1c 82       	std	Y+4, r1	; 0x04
    40ec:	1d 82       	std	Y+5, r1	; 0x05
    40ee:	1e 82       	std	Y+6, r1	; 0x06
    40f0:	80 91 6b 20 	lds	r24, 0x206B
    40f4:	88 2f       	mov	r24, r24
    40f6:	90 e0       	ldi	r25, 0x00	; 0
    40f8:	01 97       	sbiw	r24, 0x01	; 1
    40fa:	82 30       	cpi	r24, 0x02	; 2
    40fc:	91 05       	cpc	r25, r1
    40fe:	28 f4       	brcc	.+10     	; 0x410a <COA_transmit_Result+0x3a>
    4100:	62 e0       	ldi	r22, 0x02	; 2
    4102:	ce 01       	movw	r24, r28
    4104:	01 96       	adiw	r24, 0x01	; 1
    4106:	f9 db       	rcall	.-2062   	; 0x38fa <transmit>
    4108:	34 c0       	rjmp	.+104    	; 0x4172 <COA_transmit_Result+0xa2>
    410a:	80 91 63 20 	lds	r24, 0x2063
    410e:	90 91 64 20 	lds	r25, 0x2064
    4112:	a0 91 65 20 	lds	r26, 0x2065
    4116:	b0 91 66 20 	lds	r27, 0x2066
    411a:	8b 2f       	mov	r24, r27
    411c:	99 27       	eor	r25, r25
    411e:	aa 27       	eor	r26, r26
    4120:	bb 27       	eor	r27, r27
    4122:	8b 83       	std	Y+3, r24	; 0x03
    4124:	80 91 63 20 	lds	r24, 0x2063
    4128:	90 91 64 20 	lds	r25, 0x2064
    412c:	a0 91 65 20 	lds	r26, 0x2065
    4130:	b0 91 66 20 	lds	r27, 0x2066
    4134:	cd 01       	movw	r24, r26
    4136:	aa 27       	eor	r26, r26
    4138:	bb 27       	eor	r27, r27
    413a:	8c 83       	std	Y+4, r24	; 0x04
    413c:	80 91 63 20 	lds	r24, 0x2063
    4140:	90 91 64 20 	lds	r25, 0x2064
    4144:	a0 91 65 20 	lds	r26, 0x2065
    4148:	b0 91 66 20 	lds	r27, 0x2066
    414c:	89 2f       	mov	r24, r25
    414e:	9a 2f       	mov	r25, r26
    4150:	ab 2f       	mov	r26, r27
    4152:	bb 27       	eor	r27, r27
    4154:	8d 83       	std	Y+5, r24	; 0x05
    4156:	80 91 63 20 	lds	r24, 0x2063
    415a:	90 91 64 20 	lds	r25, 0x2064
    415e:	a0 91 65 20 	lds	r26, 0x2065
    4162:	b0 91 66 20 	lds	r27, 0x2066
    4166:	8e 83       	std	Y+6, r24	; 0x06
    4168:	66 e0       	ldi	r22, 0x06	; 6
    416a:	ce 01       	movw	r24, r28
    416c:	01 96       	adiw	r24, 0x01	; 1
    416e:	c5 db       	rcall	.-2166   	; 0x38fa <transmit>
    4170:	00 00       	nop
    4172:	26 96       	adiw	r28, 0x06	; 6
    4174:	cd bf       	out	0x3d, r28	; 61
    4176:	de bf       	out	0x3e, r29	; 62
    4178:	df 91       	pop	r29
    417a:	cf 91       	pop	r28
    417c:	08 95       	ret

0000417e <COA_set_MeasureTime>:
    417e:	cf 93       	push	r28
    4180:	df 93       	push	r29
    4182:	00 d0       	rcall	.+0      	; 0x4184 <COA_set_MeasureTime+0x6>
    4184:	1f 92       	push	r1
    4186:	cd b7       	in	r28, 0x3d	; 61
    4188:	de b7       	in	r29, 0x3e	; 62
    418a:	8a 83       	std	Y+2, r24	; 0x02
    418c:	9b 83       	std	Y+3, r25	; 0x03
    418e:	8a 81       	ldd	r24, Y+2	; 0x02
    4190:	9b 81       	ldd	r25, Y+3	; 0x03
    4192:	01 96       	adiw	r24, 0x01	; 1
    4194:	fc 01       	movw	r30, r24
    4196:	80 81       	ld	r24, Z
    4198:	88 2f       	mov	r24, r24
    419a:	90 e0       	ldi	r25, 0x00	; 0
    419c:	38 2f       	mov	r19, r24
    419e:	22 27       	eor	r18, r18
    41a0:	8a 81       	ldd	r24, Y+2	; 0x02
    41a2:	9b 81       	ldd	r25, Y+3	; 0x03
    41a4:	02 96       	adiw	r24, 0x02	; 2
    41a6:	fc 01       	movw	r30, r24
    41a8:	80 81       	ld	r24, Z
    41aa:	88 2f       	mov	r24, r24
    41ac:	90 e0       	ldi	r25, 0x00	; 0
    41ae:	82 0f       	add	r24, r18
    41b0:	93 1f       	adc	r25, r19
    41b2:	80 93 05 20 	sts	0x2005, r24
    41b6:	90 93 06 20 	sts	0x2006, r25
    41ba:	80 e0       	ldi	r24, 0x00	; 0
    41bc:	94 e0       	ldi	r25, 0x04	; 4
    41be:	20 91 05 20 	lds	r18, 0x2005
    41c2:	30 91 06 20 	lds	r19, 0x2006
    41c6:	fc 01       	movw	r30, r24
    41c8:	22 87       	std	Z+10, r18	; 0x0a
    41ca:	33 87       	std	Z+11, r19	; 0x0b
    41cc:	8e e1       	ldi	r24, 0x1E	; 30
    41ce:	89 83       	std	Y+1, r24	; 0x01
    41d0:	61 e0       	ldi	r22, 0x01	; 1
    41d2:	ce 01       	movw	r24, r28
    41d4:	01 96       	adiw	r24, 0x01	; 1
    41d6:	91 db       	rcall	.-2270   	; 0x38fa <transmit>
    41d8:	23 96       	adiw	r28, 0x03	; 3
    41da:	cd bf       	out	0x3d, r28	; 61
    41dc:	de bf       	out	0x3e, r29	; 62
    41de:	df 91       	pop	r29
    41e0:	cf 91       	pop	r28
    41e2:	08 95       	ret

000041e4 <COA_set_MeasureDelay>:
    41e4:	cf 93       	push	r28
    41e6:	df 93       	push	r29
    41e8:	00 d0       	rcall	.+0      	; 0x41ea <COA_set_MeasureDelay+0x6>
    41ea:	cd b7       	in	r28, 0x3d	; 61
    41ec:	de b7       	in	r29, 0x3e	; 62
    41ee:	8a 83       	std	Y+2, r24	; 0x02
    41f0:	8a 81       	ldd	r24, Y+2	; 0x02
    41f2:	80 93 07 20 	sts	0x2007, r24
    41f6:	84 e2       	ldi	r24, 0x24	; 36
    41f8:	89 83       	std	Y+1, r24	; 0x01
    41fa:	61 e0       	ldi	r22, 0x01	; 1
    41fc:	ce 01       	movw	r24, r28
    41fe:	01 96       	adiw	r24, 0x01	; 1
    4200:	7c db       	rcall	.-2312   	; 0x38fa <transmit>
    4202:	0f 90       	pop	r0
    4204:	0f 90       	pop	r0
    4206:	df 91       	pop	r29
    4208:	cf 91       	pop	r28
    420a:	08 95       	ret

0000420c <COA_set_MeasureQuontity>:
    420c:	cf 93       	push	r28
    420e:	df 93       	push	r29
    4210:	00 d0       	rcall	.+0      	; 0x4212 <COA_set_MeasureQuontity+0x6>
    4212:	1f 92       	push	r1
    4214:	cd b7       	in	r28, 0x3d	; 61
    4216:	de b7       	in	r29, 0x3e	; 62
    4218:	8a 83       	std	Y+2, r24	; 0x02
    421a:	9b 83       	std	Y+3, r25	; 0x03
    421c:	8a 81       	ldd	r24, Y+2	; 0x02
    421e:	9b 81       	ldd	r25, Y+3	; 0x03
    4220:	01 96       	adiw	r24, 0x01	; 1
    4222:	fc 01       	movw	r30, r24
    4224:	80 81       	ld	r24, Z
    4226:	88 2f       	mov	r24, r24
    4228:	90 e0       	ldi	r25, 0x00	; 0
    422a:	38 2f       	mov	r19, r24
    422c:	22 27       	eor	r18, r18
    422e:	8a 81       	ldd	r24, Y+2	; 0x02
    4230:	9b 81       	ldd	r25, Y+3	; 0x03
    4232:	02 96       	adiw	r24, 0x02	; 2
    4234:	fc 01       	movw	r30, r24
    4236:	80 81       	ld	r24, Z
    4238:	88 2f       	mov	r24, r24
    423a:	90 e0       	ldi	r25, 0x00	; 0
    423c:	82 0f       	add	r24, r18
    423e:	93 1f       	adc	r25, r19
    4240:	80 93 08 20 	sts	0x2008, r24
    4244:	90 93 09 20 	sts	0x2009, r25
    4248:	85 e2       	ldi	r24, 0x25	; 37
    424a:	89 83       	std	Y+1, r24	; 0x01
    424c:	61 e0       	ldi	r22, 0x01	; 1
    424e:	ce 01       	movw	r24, r28
    4250:	01 96       	adiw	r24, 0x01	; 1
    4252:	53 db       	rcall	.-2394   	; 0x38fa <transmit>
    4254:	23 96       	adiw	r28, 0x03	; 3
    4256:	cd bf       	out	0x3d, r28	; 61
    4258:	de bf       	out	0x3e, r29	; 62
    425a:	df 91       	pop	r29
    425c:	cf 91       	pop	r28
    425e:	08 95       	ret

00004260 <COA_start>:
    4260:	cf 93       	push	r28
    4262:	df 93       	push	r29
    4264:	00 d0       	rcall	.+0      	; 0x4266 <COA_start+0x6>
    4266:	cd b7       	in	r28, 0x3d	; 61
    4268:	de b7       	in	r29, 0x3e	; 62
    426a:	80 91 6b 20 	lds	r24, 0x206B
    426e:	82 30       	cpi	r24, 0x02	; 2
    4270:	21 f1       	breq	.+72     	; 0x42ba <COA_start+0x5a>
    4272:	80 e0       	ldi	r24, 0x00	; 0
    4274:	99 e0       	ldi	r25, 0x09	; 9
    4276:	fc 01       	movw	r30, r24
    4278:	10 a2       	std	Z+32, r1	; 0x20
    427a:	11 a2       	std	Z+33, r1	; 0x21
    427c:	80 e4       	ldi	r24, 0x40	; 64
    427e:	99 e0       	ldi	r25, 0x09	; 9
    4280:	fc 01       	movw	r30, r24
    4282:	10 a2       	std	Z+32, r1	; 0x20
    4284:	11 a2       	std	Z+33, r1	; 0x21
    4286:	80 e0       	ldi	r24, 0x00	; 0
    4288:	94 e0       	ldi	r25, 0x04	; 4
    428a:	fc 01       	movw	r30, r24
    428c:	10 86       	std	Z+8, r1	; 0x08
    428e:	11 86       	std	Z+9, r1	; 0x09
    4290:	81 e0       	ldi	r24, 0x01	; 1
    4292:	80 93 6c 20 	sts	0x206C, r24
    4296:	69 e0       	ldi	r22, 0x09	; 9
    4298:	70 e0       	ldi	r23, 0x00	; 0
    429a:	80 e4       	ldi	r24, 0x40	; 64
    429c:	99 e0       	ldi	r25, 0x09	; 9
    429e:	0e 94 c1 18 	call	0x3182	; 0x3182 <tc_write_clock_source>
    42a2:	80 e0       	ldi	r24, 0x00	; 0
    42a4:	94 e0       	ldi	r25, 0x04	; 4
    42a6:	20 91 6d 20 	lds	r18, 0x206D
    42aa:	fc 01       	movw	r30, r24
    42ac:	20 83       	st	Z, r18
    42ae:	68 e0       	ldi	r22, 0x08	; 8
    42b0:	70 e0       	ldi	r23, 0x00	; 0
    42b2:	80 e0       	ldi	r24, 0x00	; 0
    42b4:	99 e0       	ldi	r25, 0x09	; 9
    42b6:	0e 94 c1 18 	call	0x3182	; 0x3182 <tc_write_clock_source>
    42ba:	8f e1       	ldi	r24, 0x1F	; 31
    42bc:	89 83       	std	Y+1, r24	; 0x01
    42be:	80 91 6b 20 	lds	r24, 0x206B
    42c2:	8a 83       	std	Y+2, r24	; 0x02
    42c4:	62 e0       	ldi	r22, 0x02	; 2
    42c6:	ce 01       	movw	r24, r28
    42c8:	01 96       	adiw	r24, 0x01	; 1
    42ca:	17 db       	rcall	.-2514   	; 0x38fa <transmit>
    42cc:	82 e0       	ldi	r24, 0x02	; 2
    42ce:	80 93 6b 20 	sts	0x206B, r24
    42d2:	0f 90       	pop	r0
    42d4:	0f 90       	pop	r0
    42d6:	df 91       	pop	r29
    42d8:	cf 91       	pop	r28
    42da:	08 95       	ret

000042dc <COA_stop>:
    42dc:	cf 93       	push	r28
    42de:	df 93       	push	r29
    42e0:	1f 92       	push	r1
    42e2:	cd b7       	in	r28, 0x3d	; 61
    42e4:	de b7       	in	r29, 0x3e	; 62
    42e6:	60 e0       	ldi	r22, 0x00	; 0
    42e8:	70 e0       	ldi	r23, 0x00	; 0
    42ea:	80 e0       	ldi	r24, 0x00	; 0
    42ec:	99 e0       	ldi	r25, 0x09	; 9
    42ee:	0e 94 c1 18 	call	0x3182	; 0x3182 <tc_write_clock_source>
    42f2:	60 e0       	ldi	r22, 0x00	; 0
    42f4:	70 e0       	ldi	r23, 0x00	; 0
    42f6:	80 e4       	ldi	r24, 0x40	; 64
    42f8:	99 e0       	ldi	r25, 0x09	; 9
    42fa:	0e 94 c1 18 	call	0x3182	; 0x3182 <tc_write_clock_source>
    42fe:	80 e0       	ldi	r24, 0x00	; 0
    4300:	94 e0       	ldi	r25, 0x04	; 4
    4302:	fc 01       	movw	r30, r24
    4304:	10 82       	st	Z, r1
    4306:	80 e0       	ldi	r24, 0x00	; 0
    4308:	94 e0       	ldi	r25, 0x04	; 4
    430a:	fc 01       	movw	r30, r24
    430c:	10 86       	std	Z+8, r1	; 0x08
    430e:	11 86       	std	Z+9, r1	; 0x09
    4310:	80 e0       	ldi	r24, 0x00	; 0
    4312:	99 e0       	ldi	r25, 0x09	; 9
    4314:	fc 01       	movw	r30, r24
    4316:	10 a2       	std	Z+32, r1	; 0x20
    4318:	11 a2       	std	Z+33, r1	; 0x21
    431a:	80 e4       	ldi	r24, 0x40	; 64
    431c:	99 e0       	ldi	r25, 0x09	; 9
    431e:	fc 01       	movw	r30, r24
    4320:	10 a2       	std	Z+32, r1	; 0x20
    4322:	11 a2       	std	Z+33, r1	; 0x21
    4324:	10 92 6c 20 	sts	0x206C, r1
    4328:	81 e0       	ldi	r24, 0x01	; 1
    432a:	80 93 6b 20 	sts	0x206B, r24
    432e:	81 e2       	ldi	r24, 0x21	; 33
    4330:	89 83       	std	Y+1, r24	; 0x01
    4332:	61 e0       	ldi	r22, 0x01	; 1
    4334:	ce 01       	movw	r24, r28
    4336:	01 96       	adiw	r24, 0x01	; 1
    4338:	e0 da       	rcall	.-2624   	; 0x38fa <transmit>
    433a:	0f 90       	pop	r0
    433c:	df 91       	pop	r29
    433e:	cf 91       	pop	r28
    4340:	08 95       	ret

00004342 <RTC_setPrescaler>:
    4342:	cf 93       	push	r28
    4344:	df 93       	push	r29
    4346:	00 d0       	rcall	.+0      	; 0x4348 <RTC_setPrescaler+0x6>
    4348:	1f 92       	push	r1
    434a:	cd b7       	in	r28, 0x3d	; 61
    434c:	de b7       	in	r29, 0x3e	; 62
    434e:	8a 83       	std	Y+2, r24	; 0x02
    4350:	9b 83       	std	Y+3, r25	; 0x03
    4352:	8a 81       	ldd	r24, Y+2	; 0x02
    4354:	9b 81       	ldd	r25, Y+3	; 0x03
    4356:	fc 01       	movw	r30, r24
    4358:	81 81       	ldd	r24, Z+1	; 0x01
    435a:	80 93 6d 20 	sts	0x206D, r24
    435e:	82 e2       	ldi	r24, 0x22	; 34
    4360:	89 83       	std	Y+1, r24	; 0x01
    4362:	61 e0       	ldi	r22, 0x01	; 1
    4364:	ce 01       	movw	r24, r28
    4366:	01 96       	adiw	r24, 0x01	; 1
    4368:	c8 da       	rcall	.-2672   	; 0x38fa <transmit>
    436a:	23 96       	adiw	r28, 0x03	; 3
    436c:	cd bf       	out	0x3d, r28	; 61
    436e:	de bf       	out	0x3e, r29	; 62
    4370:	df 91       	pop	r29
    4372:	cf 91       	pop	r28
    4374:	08 95       	ret

00004376 <TIC_transmit>:
    4376:	af 92       	push	r10
    4378:	bf 92       	push	r11
    437a:	cf 92       	push	r12
    437c:	df 92       	push	r13
    437e:	ef 92       	push	r14
    4380:	ff 92       	push	r15
    4382:	0f 93       	push	r16
    4384:	1f 93       	push	r17
    4386:	cf 93       	push	r28
    4388:	df 93       	push	r29
    438a:	00 d0       	rcall	.+0      	; 0x438c <TIC_transmit+0x16>
    438c:	1f 92       	push	r1
    438e:	cd b7       	in	r28, 0x3d	; 61
    4390:	de b7       	in	r29, 0x3e	; 62
    4392:	8a 83       	std	Y+2, r24	; 0x02
    4394:	9b 83       	std	Y+3, r25	; 0x03
    4396:	0e 94 b3 17 	call	0x2f66	; 0x2f66 <sysclk_get_cpu_hz>
    439a:	dc 01       	movw	r26, r24
    439c:	cb 01       	movw	r24, r22
    439e:	5c 01       	movw	r10, r24
    43a0:	6d 01       	movw	r12, r26
    43a2:	e1 2c       	mov	r14, r1
    43a4:	f1 2c       	mov	r15, r1
    43a6:	87 01       	movw	r16, r14
    43a8:	2a 2d       	mov	r18, r10
    43aa:	3b 2d       	mov	r19, r11
    43ac:	4c 2d       	mov	r20, r12
    43ae:	5d 2d       	mov	r21, r13
    43b0:	6e 2d       	mov	r22, r14
    43b2:	7f 2d       	mov	r23, r15
    43b4:	80 2f       	mov	r24, r16
    43b6:	91 2f       	mov	r25, r17
    43b8:	21 5c       	subi	r18, 0xC1	; 193
    43ba:	3d 4b       	sbci	r19, 0xBD	; 189
    43bc:	40 4f       	sbci	r20, 0xF0	; 240
    43be:	5f 4f       	sbci	r21, 0xFF	; 255
    43c0:	6f 4f       	sbci	r22, 0xFF	; 255
    43c2:	7f 4f       	sbci	r23, 0xFF	; 255
    43c4:	8f 4f       	sbci	r24, 0xFF	; 255
    43c6:	9f 4f       	sbci	r25, 0xFF	; 255
    43c8:	a2 2e       	mov	r10, r18
    43ca:	b3 2e       	mov	r11, r19
    43cc:	c4 2e       	mov	r12, r20
    43ce:	d5 2e       	mov	r13, r21
    43d0:	e6 2e       	mov	r14, r22
    43d2:	f7 2e       	mov	r15, r23
    43d4:	08 2f       	mov	r16, r24
    43d6:	19 2f       	mov	r17, r25
    43d8:	2a 2d       	mov	r18, r10
    43da:	3b 2d       	mov	r19, r11
    43dc:	4c 2d       	mov	r20, r12
    43de:	5d 2d       	mov	r21, r13
    43e0:	6e 2d       	mov	r22, r14
    43e2:	7f 2d       	mov	r23, r15
    43e4:	80 2f       	mov	r24, r16
    43e6:	91 2f       	mov	r25, r17
    43e8:	0e 94 f6 01 	call	0x3ec	; 0x3ec <__floatundisf>
    43ec:	dc 01       	movw	r26, r24
    43ee:	cb 01       	movw	r24, r22
    43f0:	20 e0       	ldi	r18, 0x00	; 0
    43f2:	3b e1       	ldi	r19, 0x1B	; 27
    43f4:	47 eb       	ldi	r20, 0xB7	; 183
    43f6:	5a e4       	ldi	r21, 0x4A	; 74
    43f8:	bc 01       	movw	r22, r24
    43fa:	cd 01       	movw	r24, r26
    43fc:	0e 94 71 03 	call	0x6e2	; 0x6e2 <__divsf3>
    4400:	dc 01       	movw	r26, r24
    4402:	cb 01       	movw	r24, r22
    4404:	bc 01       	movw	r22, r24
    4406:	cd 01       	movw	r24, r26
    4408:	0e 94 45 01 	call	0x28a	; 0x28a <__fixunssfdi>
    440c:	a2 2e       	mov	r10, r18
    440e:	b3 2e       	mov	r11, r19
    4410:	c4 2e       	mov	r12, r20
    4412:	d5 2e       	mov	r13, r21
    4414:	e6 2e       	mov	r14, r22
    4416:	f7 2e       	mov	r15, r23
    4418:	08 2f       	mov	r16, r24
    441a:	19 2f       	mov	r17, r25
    441c:	d6 01       	movw	r26, r12
    441e:	c5 01       	movw	r24, r10
    4420:	bc 01       	movw	r22, r24
    4422:	cd 01       	movw	r24, r26
    4424:	0e 94 bf 17 	call	0x2f7e	; 0x2f7e <__portable_avr_delay_cycles>
    4428:	82 e0       	ldi	r24, 0x02	; 2
    442a:	89 83       	std	Y+1, r24	; 0x01
    442c:	5a c0       	rjmp	.+180    	; 0x44e2 <TIC_transmit+0x16c>
    442e:	89 81       	ldd	r24, Y+1	; 0x01
    4430:	88 2f       	mov	r24, r24
    4432:	90 e0       	ldi	r25, 0x00	; 0
    4434:	2a 81       	ldd	r18, Y+2	; 0x02
    4436:	3b 81       	ldd	r19, Y+3	; 0x03
    4438:	82 0f       	add	r24, r18
    443a:	93 1f       	adc	r25, r19
    443c:	fc 01       	movw	r30, r24
    443e:	80 81       	ld	r24, Z
    4440:	68 2f       	mov	r22, r24
    4442:	80 ea       	ldi	r24, 0xA0	; 160
    4444:	9a e0       	ldi	r25, 0x0A	; 10
    4446:	0e 94 ed 14 	call	0x29da	; 0x29da <usart_putchar>
    444a:	0e 94 b3 17 	call	0x2f66	; 0x2f66 <sysclk_get_cpu_hz>
    444e:	dc 01       	movw	r26, r24
    4450:	cb 01       	movw	r24, r22
    4452:	5c 01       	movw	r10, r24
    4454:	6d 01       	movw	r12, r26
    4456:	e1 2c       	mov	r14, r1
    4458:	f1 2c       	mov	r15, r1
    445a:	87 01       	movw	r16, r14
    445c:	2a 2d       	mov	r18, r10
    445e:	3b 2d       	mov	r19, r11
    4460:	4c 2d       	mov	r20, r12
    4462:	5d 2d       	mov	r21, r13
    4464:	6e 2d       	mov	r22, r14
    4466:	7f 2d       	mov	r23, r15
    4468:	80 2f       	mov	r24, r16
    446a:	91 2f       	mov	r25, r17
    446c:	21 5c       	subi	r18, 0xC1	; 193
    446e:	3d 4b       	sbci	r19, 0xBD	; 189
    4470:	40 4f       	sbci	r20, 0xF0	; 240
    4472:	5f 4f       	sbci	r21, 0xFF	; 255
    4474:	6f 4f       	sbci	r22, 0xFF	; 255
    4476:	7f 4f       	sbci	r23, 0xFF	; 255
    4478:	8f 4f       	sbci	r24, 0xFF	; 255
    447a:	9f 4f       	sbci	r25, 0xFF	; 255
    447c:	a2 2e       	mov	r10, r18
    447e:	b3 2e       	mov	r11, r19
    4480:	c4 2e       	mov	r12, r20
    4482:	d5 2e       	mov	r13, r21
    4484:	e6 2e       	mov	r14, r22
    4486:	f7 2e       	mov	r15, r23
    4488:	08 2f       	mov	r16, r24
    448a:	19 2f       	mov	r17, r25
    448c:	2a 2d       	mov	r18, r10
    448e:	3b 2d       	mov	r19, r11
    4490:	4c 2d       	mov	r20, r12
    4492:	5d 2d       	mov	r21, r13
    4494:	6e 2d       	mov	r22, r14
    4496:	7f 2d       	mov	r23, r15
    4498:	80 2f       	mov	r24, r16
    449a:	91 2f       	mov	r25, r17
    449c:	0e 94 f6 01 	call	0x3ec	; 0x3ec <__floatundisf>
    44a0:	dc 01       	movw	r26, r24
    44a2:	cb 01       	movw	r24, r22
    44a4:	20 e0       	ldi	r18, 0x00	; 0
    44a6:	3b e1       	ldi	r19, 0x1B	; 27
    44a8:	47 eb       	ldi	r20, 0xB7	; 183
    44aa:	5a e4       	ldi	r21, 0x4A	; 74
    44ac:	bc 01       	movw	r22, r24
    44ae:	cd 01       	movw	r24, r26
    44b0:	0e 94 71 03 	call	0x6e2	; 0x6e2 <__divsf3>
    44b4:	dc 01       	movw	r26, r24
    44b6:	cb 01       	movw	r24, r22
    44b8:	bc 01       	movw	r22, r24
    44ba:	cd 01       	movw	r24, r26
    44bc:	0e 94 45 01 	call	0x28a	; 0x28a <__fixunssfdi>
    44c0:	a2 2e       	mov	r10, r18
    44c2:	b3 2e       	mov	r11, r19
    44c4:	c4 2e       	mov	r12, r20
    44c6:	d5 2e       	mov	r13, r21
    44c8:	e6 2e       	mov	r14, r22
    44ca:	f7 2e       	mov	r15, r23
    44cc:	08 2f       	mov	r16, r24
    44ce:	19 2f       	mov	r17, r25
    44d0:	d6 01       	movw	r26, r12
    44d2:	c5 01       	movw	r24, r10
    44d4:	bc 01       	movw	r22, r24
    44d6:	cd 01       	movw	r24, r26
    44d8:	0e 94 bf 17 	call	0x2f7e	; 0x2f7e <__portable_avr_delay_cycles>
    44dc:	89 81       	ldd	r24, Y+1	; 0x01
    44de:	8f 5f       	subi	r24, 0xFF	; 255
    44e0:	89 83       	std	Y+1, r24	; 0x01
    44e2:	8a 81       	ldd	r24, Y+2	; 0x02
    44e4:	9b 81       	ldd	r25, Y+3	; 0x03
    44e6:	01 96       	adiw	r24, 0x01	; 1
    44e8:	fc 01       	movw	r30, r24
    44ea:	90 81       	ld	r25, Z
    44ec:	89 81       	ldd	r24, Y+1	; 0x01
    44ee:	89 17       	cp	r24, r25
    44f0:	08 f4       	brcc	.+2      	; 0x44f4 <TIC_transmit+0x17e>
    44f2:	9d cf       	rjmp	.-198    	; 0x442e <TIC_transmit+0xb8>
    44f4:	23 96       	adiw	r28, 0x03	; 3
    44f6:	cd bf       	out	0x3d, r28	; 61
    44f8:	de bf       	out	0x3e, r29	; 62
    44fa:	df 91       	pop	r29
    44fc:	cf 91       	pop	r28
    44fe:	1f 91       	pop	r17
    4500:	0f 91       	pop	r16
    4502:	ff 90       	pop	r15
    4504:	ef 90       	pop	r14
    4506:	df 90       	pop	r13
    4508:	cf 90       	pop	r12
    450a:	bf 90       	pop	r11
    450c:	af 90       	pop	r10
    450e:	08 95       	ret

00004510 <MC_reset>:
}
void MC_reset(void)
{
    4510:	cf 93       	push	r28
    4512:	df 93       	push	r29
    4514:	1f 92       	push	r1
    4516:	cd b7       	in	r28, 0x3d	; 61
    4518:	de b7       	in	r29, 0x3e	; 62
	//:  
	//:        ,  
	cpu_irq_disable();
    451a:	f8 94       	cli
	uint8_t data[] = {COMMAND_MC_reset};
    451c:	84 e0       	ldi	r24, 0x04	; 4
    451e:	89 83       	std	Y+1, r24	; 0x01
	transmit(data,1);
    4520:	61 e0       	ldi	r22, 0x01	; 1
    4522:	ce 01       	movw	r24, r28
    4524:	01 96       	adiw	r24, 0x01	; 1
    4526:	e9 d9       	rcall	.-3118   	; 0x38fa <transmit>
	
	RST.CTRL = 1;
    4528:	88 e7       	ldi	r24, 0x78	; 120
    452a:	90 e0       	ldi	r25, 0x00	; 0
    452c:	21 e0       	ldi	r18, 0x01	; 1
    452e:	fc 01       	movw	r30, r24
    4530:	21 83       	std	Z+1, r18	; 0x01
}
    4532:	0f 90       	pop	r0
    4534:	df 91       	pop	r29
    4536:	cf 91       	pop	r28
    4538:	08 95       	ret

0000453a <EVSYS_SetEventSource>:
bool EVSYS_SetEventSource( uint8_t eventChannel, EVSYS_CHMUX_t eventSource )
{
    453a:	cf 93       	push	r28
    453c:	df 93       	push	r29
    453e:	cd b7       	in	r28, 0x3d	; 61
    4540:	de b7       	in	r29, 0x3e	; 62
    4542:	25 97       	sbiw	r28, 0x05	; 5
    4544:	cd bf       	out	0x3d, r28	; 61
    4546:	de bf       	out	0x3e, r29	; 62
    4548:	8b 83       	std	Y+3, r24	; 0x03
    454a:	6c 83       	std	Y+4, r22	; 0x04
    454c:	7d 83       	std	Y+5, r23	; 0x05
	volatile uint8_t * chMux;

	/*  Check if channel is valid and set the pointer offset for the selected
	 *  channel and assign the eventSource value.
	 */
	if (eventChannel < 8) {
    454e:	8b 81       	ldd	r24, Y+3	; 0x03
    4550:	88 30       	cpi	r24, 0x08	; 8
    4552:	70 f4       	brcc	.+28     	; 0x4570 <EVSYS_SetEventSource+0x36>
		chMux = &EVSYS.CH0MUX + eventChannel;
    4554:	8b 81       	ldd	r24, Y+3	; 0x03
    4556:	88 2f       	mov	r24, r24
    4558:	90 e0       	ldi	r25, 0x00	; 0
    455a:	80 58       	subi	r24, 0x80	; 128
    455c:	9e 4f       	sbci	r25, 0xFE	; 254
    455e:	89 83       	std	Y+1, r24	; 0x01
    4560:	9a 83       	std	Y+2, r25	; 0x02
		*chMux = eventSource;
    4562:	2c 81       	ldd	r18, Y+4	; 0x04
    4564:	89 81       	ldd	r24, Y+1	; 0x01
    4566:	9a 81       	ldd	r25, Y+2	; 0x02
    4568:	fc 01       	movw	r30, r24
    456a:	20 83       	st	Z, r18

		return true;
    456c:	81 e0       	ldi	r24, 0x01	; 1
    456e:	01 c0       	rjmp	.+2      	; 0x4572 <EVSYS_SetEventSource+0x38>
	} else {
		return false;
    4570:	80 e0       	ldi	r24, 0x00	; 0
	}
}
    4572:	25 96       	adiw	r28, 0x05	; 5
    4574:	cd bf       	out	0x3d, r28	; 61
    4576:	de bf       	out	0x3e, r29	; 62
    4578:	df 91       	pop	r29
    457a:	cf 91       	pop	r28
    457c:	08 95       	ret

0000457e <EVSYS_SetEventChannelFilter>:
bool EVSYS_SetEventChannelFilter( uint8_t eventChannel,EVSYS_DIGFILT_t filterCoefficient )
{
    457e:	cf 93       	push	r28
    4580:	df 93       	push	r29
    4582:	cd b7       	in	r28, 0x3d	; 61
    4584:	de b7       	in	r29, 0x3e	; 62
    4586:	25 97       	sbiw	r28, 0x05	; 5
    4588:	cd bf       	out	0x3d, r28	; 61
    458a:	de bf       	out	0x3e, r29	; 62
    458c:	8b 83       	std	Y+3, r24	; 0x03
    458e:	6c 83       	std	Y+4, r22	; 0x04
    4590:	7d 83       	std	Y+5, r23	; 0x05
	/*  Check if channel is valid and set the pointer offset for the selected
	 *  channel and assign the configuration value.
	 */
	if (eventChannel < 8) {
    4592:	8b 81       	ldd	r24, Y+3	; 0x03
    4594:	88 30       	cpi	r24, 0x08	; 8
    4596:	70 f4       	brcc	.+28     	; 0x45b4 <EVSYS_SetEventChannelFilter+0x36>

		volatile uint8_t * chCtrl;
		chCtrl = &EVSYS.CH0CTRL + eventChannel;
    4598:	8b 81       	ldd	r24, Y+3	; 0x03
    459a:	88 2f       	mov	r24, r24
    459c:	90 e0       	ldi	r25, 0x00	; 0
    459e:	88 57       	subi	r24, 0x78	; 120
    45a0:	9e 4f       	sbci	r25, 0xFE	; 254
    45a2:	89 83       	std	Y+1, r24	; 0x01
    45a4:	9a 83       	std	Y+2, r25	; 0x02
		*chCtrl = filterCoefficient;
    45a6:	2c 81       	ldd	r18, Y+4	; 0x04
    45a8:	89 81       	ldd	r24, Y+1	; 0x01
    45aa:	9a 81       	ldd	r25, Y+2	; 0x02
    45ac:	fc 01       	movw	r30, r24
    45ae:	20 83       	st	Z, r18

		return true;
    45b0:	81 e0       	ldi	r24, 0x01	; 1
    45b2:	01 c0       	rjmp	.+2      	; 0x45b6 <EVSYS_SetEventChannelFilter+0x38>
	} else {
		return false;
    45b4:	80 e0       	ldi	r24, 0x00	; 0
	}
}
    45b6:	25 96       	adiw	r28, 0x05	; 5
    45b8:	cd bf       	out	0x3d, r28	; 61
    45ba:	de bf       	out	0x3e, r29	; 62
    45bc:	df 91       	pop	r29
    45be:	cf 91       	pop	r28
    45c0:	08 95       	ret

000045c2 <main>:
//------------------------------------- -------------------------------------------
int main(void)
{
    45c2:	2f 92       	push	r2
    45c4:	3f 92       	push	r3
    45c6:	4f 92       	push	r4
    45c8:	5f 92       	push	r5
    45ca:	6f 92       	push	r6
    45cc:	7f 92       	push	r7
    45ce:	8f 92       	push	r8
    45d0:	9f 92       	push	r9
    45d2:	af 92       	push	r10
    45d4:	bf 92       	push	r11
    45d6:	cf 92       	push	r12
    45d8:	df 92       	push	r13
    45da:	ef 92       	push	r14
    45dc:	ff 92       	push	r15
    45de:	0f 93       	push	r16
    45e0:	1f 93       	push	r17
    45e2:	cf 93       	push	r28
    45e4:	df 93       	push	r29
    45e6:	cd b7       	in	r28, 0x3d	; 61
    45e8:	de b7       	in	r29, 0x3e	; 62
    45ea:	c5 51       	subi	r28, 0x15	; 21
    45ec:	d1 40       	sbci	r29, 0x01	; 1
    45ee:	cd bf       	out	0x3d, r28	; 61
    45f0:	de bf       	out	0x3e, r29	; 62
	board_init();						// 
    45f2:	0e 94 bc 38 	call	0x7178	; 0x7178 <board_init>
	SYSCLK_init;						//  (32)
    45f6:	82 e0       	ldi	r24, 0x02	; 2
    45f8:	0e 94 3c 17 	call	0x2e78	; 0x2e78 <osc_enable>
    45fc:	82 e0       	ldi	r24, 0x02	; 2
    45fe:	0e 94 62 17 	call	0x2ec4	; 0x2ec4 <osc_wait_ready>
    4602:	61 e0       	ldi	r22, 0x01	; 1
    4604:	80 e4       	ldi	r24, 0x40	; 64
    4606:	90 e0       	ldi	r25, 0x00	; 0
    4608:	0e 94 1a 0b 	call	0x1634	; 0x1634 <ccp_write_io>
    460c:	81 e0       	ldi	r24, 0x01	; 1
    460e:	0e 94 21 17 	call	0x2e42	; 0x2e42 <osc_disable>
	pmic_init();						//  
    4612:	0e 94 56 18 	call	0x30ac	; 0x30ac <pmic_init>
	SPI_init;							//  SPI
    4616:	80 ec       	ldi	r24, 0xC0	; 192
    4618:	98 e0       	ldi	r25, 0x08	; 8
    461a:	0e 94 8f 0a 	call	0x151e	; 0x151e <spi_master_init>
    461e:	80 ec       	ldi	r24, 0xC0	; 192
    4620:	98 e0       	ldi	r25, 0x08	; 8
    4622:	0e 94 62 18 	call	0x30c4	; 0x30c4 <spi_enable>
	RTC_init;							//   
    4626:	0e 94 5f 0b 	call	0x16be	; 0x16be <rtc_init>
    462a:	80 e4       	ldi	r24, 0x40	; 64
    462c:	90 e0       	ldi	r25, 0x00	; 0
    462e:	2d e0       	ldi	r18, 0x0D	; 13
    4630:	fc 01       	movw	r30, r24
    4632:	23 83       	std	Z+3, r18	; 0x03
	Counters_init;						//  
    4634:	80 e4       	ldi	r24, 0x40	; 64
    4636:	99 e0       	ldi	r25, 0x09	; 9
    4638:	0e 94 dc 11 	call	0x23b8	; 0x23b8 <tc_enable>
    463c:	67 ef       	ldi	r22, 0xF7	; 247
    463e:	7a e1       	ldi	r23, 0x1A	; 26
    4640:	80 e4       	ldi	r24, 0x40	; 64
    4642:	99 e0       	ldi	r25, 0x09	; 9
    4644:	0e 94 49 12 	call	0x2492	; 0x2492 <tc_set_overflow_interrupt_callback>
    4648:	60 e0       	ldi	r22, 0x00	; 0
    464a:	70 e0       	ldi	r23, 0x00	; 0
    464c:	80 e4       	ldi	r24, 0x40	; 64
    464e:	99 e0       	ldi	r25, 0x09	; 9
    4650:	0e 94 de 18 	call	0x31bc	; 0x31bc <tc_set_wgm>
    4654:	61 e0       	ldi	r22, 0x01	; 1
    4656:	70 e0       	ldi	r23, 0x00	; 0
    4658:	80 e4       	ldi	r24, 0x40	; 64
    465a:	99 e0       	ldi	r25, 0x09	; 9
    465c:	0e 94 9c 18 	call	0x3138	; 0x3138 <tc_set_overflow_interrupt_level>
	USART_COMP_init;					// USART  
    4660:	6a e0       	ldi	r22, 0x0A	; 10
    4662:	70 e2       	ldi	r23, 0x20	; 32
    4664:	80 ea       	ldi	r24, 0xA0	; 160
    4666:	9a e0       	ldi	r25, 0x0A	; 10
    4668:	0e 94 a5 14 	call	0x294a	; 0x294a <usart_init_rs232>
    466c:	62 e0       	ldi	r22, 0x02	; 2
    466e:	70 e0       	ldi	r23, 0x00	; 0
    4670:	80 ea       	ldi	r24, 0xA0	; 160
    4672:	9a e0       	ldi	r25, 0x0A	; 10
    4674:	0e 94 fb 18 	call	0x31f6	; 0x31f6 <usart_set_rx_interrupt_level>
	//  
	PORTD.PIN5CTRL = PORT_ISC_RISING_gc;
    4678:	80 e6       	ldi	r24, 0x60	; 96
    467a:	96 e0       	ldi	r25, 0x06	; 6
    467c:	21 e0       	ldi	r18, 0x01	; 1
    467e:	fc 01       	movw	r30, r24
    4680:	25 8b       	std	Z+21, r18	; 0x15
	//PORTD.DIRCLR = 0x01;
	EVSYS_SetEventSource( 0, EVSYS_CHMUX_PORTD_PIN5_gc );
    4682:	6d e6       	ldi	r22, 0x6D	; 109
    4684:	70 e0       	ldi	r23, 0x00	; 0
    4686:	80 e0       	ldi	r24, 0x00	; 0
    4688:	58 df       	rcall	.-336    	; 0x453a <EVSYS_SetEventSource>
	EVSYS_SetEventChannelFilter( 0, EVSYS_DIGFILT_3SAMPLES_gc );
    468a:	62 e0       	ldi	r22, 0x02	; 2
    468c:	70 e0       	ldi	r23, 0x00	; 0
    468e:	80 e0       	ldi	r24, 0x00	; 0
    4690:	76 df       	rcall	.-276    	; 0x457e <EVSYS_SetEventChannelFilter>
	//  
	EVSYS_SetEventSource(1, EVSYS_CHMUX_TCD0_OVF_gc);
    4692:	60 ed       	ldi	r22, 0xD0	; 208
    4694:	70 e0       	ldi	r23, 0x00	; 0
    4696:	81 e0       	ldi	r24, 0x01	; 1
    4698:	50 df       	rcall	.-352    	; 0x453a <EVSYS_SetEventSource>
	EVSYS_SetEventChannelFilter( 1, EVSYS_DIGFILT_1SAMPLE_gc );
    469a:	60 e0       	ldi	r22, 0x00	; 0
    469c:	70 e0       	ldi	r23, 0x00	; 0
    469e:	81 e0       	ldi	r24, 0x01	; 1
    46a0:	6e df       	rcall	.-292    	; 0x457e <EVSYS_SetEventChannelFilter>
	//   
	for (uint16_t i = 1; i <129 ; i += i)
    46a2:	81 e0       	ldi	r24, 0x01	; 1
    46a4:	90 e0       	ldi	r25, 0x00	; 0
    46a6:	89 83       	std	Y+1, r24	; 0x01
    46a8:	9a 83       	std	Y+2, r25	; 0x02
    46aa:	31 c1       	rjmp	.+610    	; 0x490e <main+0x34c>
	{
		delay_ms(50);
    46ac:	0e 94 b3 17 	call	0x2f66	; 0x2f66 <sysclk_get_cpu_hz>
    46b0:	dc 01       	movw	r26, r24
    46b2:	cb 01       	movw	r24, r22
    46b4:	9c 01       	movw	r18, r24
    46b6:	ad 01       	movw	r20, r26
    46b8:	60 e0       	ldi	r22, 0x00	; 0
    46ba:	70 e0       	ldi	r23, 0x00	; 0
    46bc:	cb 01       	movw	r24, r22
    46be:	82 2e       	mov	r8, r18
    46c0:	93 2e       	mov	r9, r19
    46c2:	a4 2e       	mov	r10, r20
    46c4:	b5 2e       	mov	r11, r21
    46c6:	c6 2e       	mov	r12, r22
    46c8:	d7 2e       	mov	r13, r23
    46ca:	e8 2e       	mov	r14, r24
    46cc:	f9 2e       	mov	r15, r25
    46ce:	28 2d       	mov	r18, r8
    46d0:	39 2d       	mov	r19, r9
    46d2:	4a 2d       	mov	r20, r10
    46d4:	5b 2d       	mov	r21, r11
    46d6:	6c 2d       	mov	r22, r12
    46d8:	7d 2d       	mov	r23, r13
    46da:	8e 2d       	mov	r24, r14
    46dc:	9f 2d       	mov	r25, r15
    46de:	01 e0       	ldi	r16, 0x01	; 1
    46e0:	0e 94 89 39 	call	0x7312	; 0x7312 <__ashldi3>
    46e4:	27 96       	adiw	r28, 0x07	; 7
    46e6:	2f af       	std	Y+63, r18	; 0x3f
    46e8:	27 97       	sbiw	r28, 0x07	; 7
    46ea:	28 96       	adiw	r28, 0x08	; 8
    46ec:	3f af       	std	Y+63, r19	; 0x3f
    46ee:	28 97       	sbiw	r28, 0x08	; 8
    46f0:	29 96       	adiw	r28, 0x09	; 9
    46f2:	4f af       	std	Y+63, r20	; 0x3f
    46f4:	29 97       	sbiw	r28, 0x09	; 9
    46f6:	2a 96       	adiw	r28, 0x0a	; 10
    46f8:	5f af       	std	Y+63, r21	; 0x3f
    46fa:	2a 97       	sbiw	r28, 0x0a	; 10
    46fc:	2b 96       	adiw	r28, 0x0b	; 11
    46fe:	6f af       	std	Y+63, r22	; 0x3f
    4700:	2b 97       	sbiw	r28, 0x0b	; 11
    4702:	2c 96       	adiw	r28, 0x0c	; 12
    4704:	7f af       	std	Y+63, r23	; 0x3f
    4706:	2c 97       	sbiw	r28, 0x0c	; 12
    4708:	2d 96       	adiw	r28, 0x0d	; 13
    470a:	8f af       	std	Y+63, r24	; 0x3f
    470c:	2d 97       	sbiw	r28, 0x0d	; 13
    470e:	2e 96       	adiw	r28, 0x0e	; 14
    4710:	9f af       	std	Y+63, r25	; 0x3f
    4712:	2e 97       	sbiw	r28, 0x0e	; 14
    4714:	27 96       	adiw	r28, 0x07	; 7
    4716:	8f ac       	ldd	r8, Y+63	; 0x3f
    4718:	27 97       	sbiw	r28, 0x07	; 7
    471a:	28 96       	adiw	r28, 0x08	; 8
    471c:	9f ac       	ldd	r9, Y+63	; 0x3f
    471e:	28 97       	sbiw	r28, 0x08	; 8
    4720:	29 96       	adiw	r28, 0x09	; 9
    4722:	af ac       	ldd	r10, Y+63	; 0x3f
    4724:	29 97       	sbiw	r28, 0x09	; 9
    4726:	2a 96       	adiw	r28, 0x0a	; 10
    4728:	bf ac       	ldd	r11, Y+63	; 0x3f
    472a:	2a 97       	sbiw	r28, 0x0a	; 10
    472c:	2b 96       	adiw	r28, 0x0b	; 11
    472e:	cf ac       	ldd	r12, Y+63	; 0x3f
    4730:	2b 97       	sbiw	r28, 0x0b	; 11
    4732:	2c 96       	adiw	r28, 0x0c	; 12
    4734:	df ac       	ldd	r13, Y+63	; 0x3f
    4736:	2c 97       	sbiw	r28, 0x0c	; 12
    4738:	2d 96       	adiw	r28, 0x0d	; 13
    473a:	ef ac       	ldd	r14, Y+63	; 0x3f
    473c:	2d 97       	sbiw	r28, 0x0d	; 13
    473e:	2e 96       	adiw	r28, 0x0e	; 14
    4740:	ff ac       	ldd	r15, Y+63	; 0x3f
    4742:	2e 97       	sbiw	r28, 0x0e	; 14
    4744:	28 2d       	mov	r18, r8
    4746:	39 2d       	mov	r19, r9
    4748:	4a 2d       	mov	r20, r10
    474a:	5b 2d       	mov	r21, r11
    474c:	6c 2d       	mov	r22, r12
    474e:	7d 2d       	mov	r23, r13
    4750:	8e 2d       	mov	r24, r14
    4752:	9f 2d       	mov	r25, r15
    4754:	02 e0       	ldi	r16, 0x02	; 2
    4756:	0e 94 89 39 	call	0x7312	; 0x7312 <__ashldi3>
    475a:	2f 96       	adiw	r28, 0x0f	; 15
    475c:	2f af       	std	Y+63, r18	; 0x3f
    475e:	2f 97       	sbiw	r28, 0x0f	; 15
    4760:	60 96       	adiw	r28, 0x10	; 16
    4762:	3f af       	std	Y+63, r19	; 0x3f
    4764:	60 97       	sbiw	r28, 0x10	; 16
    4766:	61 96       	adiw	r28, 0x11	; 17
    4768:	4f af       	std	Y+63, r20	; 0x3f
    476a:	61 97       	sbiw	r28, 0x11	; 17
    476c:	62 96       	adiw	r28, 0x12	; 18
    476e:	5f af       	std	Y+63, r21	; 0x3f
    4770:	62 97       	sbiw	r28, 0x12	; 18
    4772:	63 96       	adiw	r28, 0x13	; 19
    4774:	6f af       	std	Y+63, r22	; 0x3f
    4776:	63 97       	sbiw	r28, 0x13	; 19
    4778:	64 96       	adiw	r28, 0x14	; 20
    477a:	7f af       	std	Y+63, r23	; 0x3f
    477c:	64 97       	sbiw	r28, 0x14	; 20
    477e:	65 96       	adiw	r28, 0x15	; 21
    4780:	8f af       	std	Y+63, r24	; 0x3f
    4782:	65 97       	sbiw	r28, 0x15	; 21
    4784:	66 96       	adiw	r28, 0x16	; 22
    4786:	9f af       	std	Y+63, r25	; 0x3f
    4788:	66 97       	sbiw	r28, 0x16	; 22
    478a:	28 2d       	mov	r18, r8
    478c:	39 2d       	mov	r19, r9
    478e:	4a 2d       	mov	r20, r10
    4790:	5b 2d       	mov	r21, r11
    4792:	6c 2d       	mov	r22, r12
    4794:	7d 2d       	mov	r23, r13
    4796:	8e 2d       	mov	r24, r14
    4798:	9f 2d       	mov	r25, r15
    479a:	2f 96       	adiw	r28, 0x0f	; 15
    479c:	af ac       	ldd	r10, Y+63	; 0x3f
    479e:	2f 97       	sbiw	r28, 0x0f	; 15
    47a0:	60 96       	adiw	r28, 0x10	; 16
    47a2:	bf ac       	ldd	r11, Y+63	; 0x3f
    47a4:	60 97       	sbiw	r28, 0x10	; 16
    47a6:	61 96       	adiw	r28, 0x11	; 17
    47a8:	cf ac       	ldd	r12, Y+63	; 0x3f
    47aa:	61 97       	sbiw	r28, 0x11	; 17
    47ac:	62 96       	adiw	r28, 0x12	; 18
    47ae:	df ac       	ldd	r13, Y+63	; 0x3f
    47b0:	62 97       	sbiw	r28, 0x12	; 18
    47b2:	63 96       	adiw	r28, 0x13	; 19
    47b4:	ef ac       	ldd	r14, Y+63	; 0x3f
    47b6:	63 97       	sbiw	r28, 0x13	; 19
    47b8:	64 96       	adiw	r28, 0x14	; 20
    47ba:	ff ac       	ldd	r15, Y+63	; 0x3f
    47bc:	64 97       	sbiw	r28, 0x14	; 20
    47be:	65 96       	adiw	r28, 0x15	; 21
    47c0:	0f ad       	ldd	r16, Y+63	; 0x3f
    47c2:	65 97       	sbiw	r28, 0x15	; 21
    47c4:	66 96       	adiw	r28, 0x16	; 22
    47c6:	1f ad       	ldd	r17, Y+63	; 0x3f
    47c8:	66 97       	sbiw	r28, 0x16	; 22
    47ca:	0e 94 98 39 	call	0x7330	; 0x7330 <__adddi3>
    47ce:	82 2e       	mov	r8, r18
    47d0:	93 2e       	mov	r9, r19
    47d2:	a4 2e       	mov	r10, r20
    47d4:	b5 2e       	mov	r11, r21
    47d6:	c6 2e       	mov	r12, r22
    47d8:	d7 2e       	mov	r13, r23
    47da:	e8 2e       	mov	r14, r24
    47dc:	f9 2e       	mov	r15, r25
    47de:	28 2d       	mov	r18, r8
    47e0:	39 2d       	mov	r19, r9
    47e2:	4a 2d       	mov	r20, r10
    47e4:	5b 2d       	mov	r21, r11
    47e6:	6c 2d       	mov	r22, r12
    47e8:	7d 2d       	mov	r23, r13
    47ea:	8e 2d       	mov	r24, r14
    47ec:	9f 2d       	mov	r25, r15
    47ee:	02 e0       	ldi	r16, 0x02	; 2
    47f0:	0e 94 89 39 	call	0x7312	; 0x7312 <__ashldi3>
    47f4:	67 96       	adiw	r28, 0x17	; 23
    47f6:	2f af       	std	Y+63, r18	; 0x3f
    47f8:	67 97       	sbiw	r28, 0x17	; 23
    47fa:	68 96       	adiw	r28, 0x18	; 24
    47fc:	3f af       	std	Y+63, r19	; 0x3f
    47fe:	68 97       	sbiw	r28, 0x18	; 24
    4800:	69 96       	adiw	r28, 0x19	; 25
    4802:	4f af       	std	Y+63, r20	; 0x3f
    4804:	69 97       	sbiw	r28, 0x19	; 25
    4806:	6a 96       	adiw	r28, 0x1a	; 26
    4808:	5f af       	std	Y+63, r21	; 0x3f
    480a:	6a 97       	sbiw	r28, 0x1a	; 26
    480c:	6b 96       	adiw	r28, 0x1b	; 27
    480e:	6f af       	std	Y+63, r22	; 0x3f
    4810:	6b 97       	sbiw	r28, 0x1b	; 27
    4812:	6c 96       	adiw	r28, 0x1c	; 28
    4814:	7f af       	std	Y+63, r23	; 0x3f
    4816:	6c 97       	sbiw	r28, 0x1c	; 28
    4818:	6d 96       	adiw	r28, 0x1d	; 29
    481a:	8f af       	std	Y+63, r24	; 0x3f
    481c:	6d 97       	sbiw	r28, 0x1d	; 29
    481e:	6e 96       	adiw	r28, 0x1e	; 30
    4820:	9f af       	std	Y+63, r25	; 0x3f
    4822:	6e 97       	sbiw	r28, 0x1e	; 30
    4824:	28 2d       	mov	r18, r8
    4826:	39 2d       	mov	r19, r9
    4828:	4a 2d       	mov	r20, r10
    482a:	5b 2d       	mov	r21, r11
    482c:	6c 2d       	mov	r22, r12
    482e:	7d 2d       	mov	r23, r13
    4830:	8e 2d       	mov	r24, r14
    4832:	9f 2d       	mov	r25, r15
    4834:	67 96       	adiw	r28, 0x17	; 23
    4836:	af ac       	ldd	r10, Y+63	; 0x3f
    4838:	67 97       	sbiw	r28, 0x17	; 23
    483a:	68 96       	adiw	r28, 0x18	; 24
    483c:	bf ac       	ldd	r11, Y+63	; 0x3f
    483e:	68 97       	sbiw	r28, 0x18	; 24
    4840:	69 96       	adiw	r28, 0x19	; 25
    4842:	cf ac       	ldd	r12, Y+63	; 0x3f
    4844:	69 97       	sbiw	r28, 0x19	; 25
    4846:	6a 96       	adiw	r28, 0x1a	; 26
    4848:	df ac       	ldd	r13, Y+63	; 0x3f
    484a:	6a 97       	sbiw	r28, 0x1a	; 26
    484c:	6b 96       	adiw	r28, 0x1b	; 27
    484e:	ef ac       	ldd	r14, Y+63	; 0x3f
    4850:	6b 97       	sbiw	r28, 0x1b	; 27
    4852:	6c 96       	adiw	r28, 0x1c	; 28
    4854:	ff ac       	ldd	r15, Y+63	; 0x3f
    4856:	6c 97       	sbiw	r28, 0x1c	; 28
    4858:	6d 96       	adiw	r28, 0x1d	; 29
    485a:	0f ad       	ldd	r16, Y+63	; 0x3f
    485c:	6d 97       	sbiw	r28, 0x1d	; 29
    485e:	6e 96       	adiw	r28, 0x1e	; 30
    4860:	1f ad       	ldd	r17, Y+63	; 0x3f
    4862:	6e 97       	sbiw	r28, 0x1e	; 30
    4864:	0e 94 98 39 	call	0x7330	; 0x7330 <__adddi3>
    4868:	a2 2e       	mov	r10, r18
    486a:	b3 2e       	mov	r11, r19
    486c:	c4 2e       	mov	r12, r20
    486e:	d5 2e       	mov	r13, r21
    4870:	e6 2e       	mov	r14, r22
    4872:	f7 2e       	mov	r15, r23
    4874:	08 2f       	mov	r16, r24
    4876:	19 2f       	mov	r17, r25
    4878:	2a 2d       	mov	r18, r10
    487a:	3b 2d       	mov	r19, r11
    487c:	4c 2d       	mov	r20, r12
    487e:	5d 2d       	mov	r21, r13
    4880:	6e 2d       	mov	r22, r14
    4882:	7f 2d       	mov	r23, r15
    4884:	80 2f       	mov	r24, r16
    4886:	91 2f       	mov	r25, r17
    4888:	29 51       	subi	r18, 0x19	; 25
    488a:	3c 4f       	sbci	r19, 0xFC	; 252
    488c:	4f 4f       	sbci	r20, 0xFF	; 255
    488e:	5f 4f       	sbci	r21, 0xFF	; 255
    4890:	6f 4f       	sbci	r22, 0xFF	; 255
    4892:	7f 4f       	sbci	r23, 0xFF	; 255
    4894:	8f 4f       	sbci	r24, 0xFF	; 255
    4896:	9f 4f       	sbci	r25, 0xFF	; 255
    4898:	a2 2e       	mov	r10, r18
    489a:	b3 2e       	mov	r11, r19
    489c:	c4 2e       	mov	r12, r20
    489e:	d5 2e       	mov	r13, r21
    48a0:	e6 2e       	mov	r14, r22
    48a2:	f7 2e       	mov	r15, r23
    48a4:	08 2f       	mov	r16, r24
    48a6:	19 2f       	mov	r17, r25
    48a8:	2a 2d       	mov	r18, r10
    48aa:	3b 2d       	mov	r19, r11
    48ac:	4c 2d       	mov	r20, r12
    48ae:	5d 2d       	mov	r21, r13
    48b0:	6e 2d       	mov	r22, r14
    48b2:	7f 2d       	mov	r23, r15
    48b4:	80 2f       	mov	r24, r16
    48b6:	91 2f       	mov	r25, r17
    48b8:	0e 94 f6 01 	call	0x3ec	; 0x3ec <__floatundisf>
    48bc:	dc 01       	movw	r26, r24
    48be:	cb 01       	movw	r24, r22
    48c0:	20 e0       	ldi	r18, 0x00	; 0
    48c2:	30 e8       	ldi	r19, 0x80	; 128
    48c4:	4b eb       	ldi	r20, 0xBB	; 187
    48c6:	55 e4       	ldi	r21, 0x45	; 69
    48c8:	bc 01       	movw	r22, r24
    48ca:	cd 01       	movw	r24, r26
    48cc:	0e 94 71 03 	call	0x6e2	; 0x6e2 <__divsf3>
    48d0:	dc 01       	movw	r26, r24
    48d2:	cb 01       	movw	r24, r22
    48d4:	bc 01       	movw	r22, r24
    48d6:	cd 01       	movw	r24, r26
    48d8:	0e 94 45 01 	call	0x28a	; 0x28a <__fixunssfdi>
    48dc:	a2 2e       	mov	r10, r18
    48de:	b3 2e       	mov	r11, r19
    48e0:	c4 2e       	mov	r12, r20
    48e2:	d5 2e       	mov	r13, r21
    48e4:	e6 2e       	mov	r14, r22
    48e6:	f7 2e       	mov	r15, r23
    48e8:	08 2f       	mov	r16, r24
    48ea:	19 2f       	mov	r17, r25
    48ec:	d6 01       	movw	r26, r12
    48ee:	c5 01       	movw	r24, r10
    48f0:	bc 01       	movw	r22, r24
    48f2:	cd 01       	movw	r24, r26
    48f4:	0e 94 bf 17 	call	0x2f7e	; 0x2f7e <__portable_avr_delay_cycles>
		showMeByte(i);
    48f8:	89 81       	ldd	r24, Y+1	; 0x01
    48fa:	0e 94 66 1b 	call	0x36cc	; 0x36cc <showMeByte>
	EVSYS_SetEventChannelFilter( 0, EVSYS_DIGFILT_3SAMPLES_gc );
	//  
	EVSYS_SetEventSource(1, EVSYS_CHMUX_TCD0_OVF_gc);
	EVSYS_SetEventChannelFilter( 1, EVSYS_DIGFILT_1SAMPLE_gc );
	//   
	for (uint16_t i = 1; i <129 ; i += i)
    48fe:	29 81       	ldd	r18, Y+1	; 0x01
    4900:	3a 81       	ldd	r19, Y+2	; 0x02
    4902:	89 81       	ldd	r24, Y+1	; 0x01
    4904:	9a 81       	ldd	r25, Y+2	; 0x02
    4906:	82 0f       	add	r24, r18
    4908:	93 1f       	adc	r25, r19
    490a:	89 83       	std	Y+1, r24	; 0x01
    490c:	9a 83       	std	Y+2, r25	; 0x02
    490e:	89 81       	ldd	r24, Y+1	; 0x01
    4910:	9a 81       	ldd	r25, Y+2	; 0x02
    4912:	81 38       	cpi	r24, 0x81	; 129
    4914:	91 05       	cpc	r25, r1
    4916:	08 f4       	brcc	.+2      	; 0x491a <main+0x358>
    4918:	c9 ce       	rjmp	.-622    	; 0x46ac <main+0xea>
	{
		delay_ms(50);
		showMeByte(i);
	}
	for (uint16_t i = 128; i >1 ; i -= i/2)
    491a:	80 e8       	ldi	r24, 0x80	; 128
    491c:	90 e0       	ldi	r25, 0x00	; 0
    491e:	8b 83       	std	Y+3, r24	; 0x03
    4920:	9c 83       	std	Y+4, r25	; 0x04
    4922:	35 c1       	rjmp	.+618    	; 0x4b8e <main+0x5cc>
	{
		delay_ms(50);
    4924:	0e 94 b3 17 	call	0x2f66	; 0x2f66 <sysclk_get_cpu_hz>
    4928:	dc 01       	movw	r26, r24
    492a:	cb 01       	movw	r24, r22
    492c:	9c 01       	movw	r18, r24
    492e:	ad 01       	movw	r20, r26
    4930:	60 e0       	ldi	r22, 0x00	; 0
    4932:	70 e0       	ldi	r23, 0x00	; 0
    4934:	cb 01       	movw	r24, r22
    4936:	82 2e       	mov	r8, r18
    4938:	93 2e       	mov	r9, r19
    493a:	a4 2e       	mov	r10, r20
    493c:	b5 2e       	mov	r11, r21
    493e:	c6 2e       	mov	r12, r22
    4940:	d7 2e       	mov	r13, r23
    4942:	e8 2e       	mov	r14, r24
    4944:	f9 2e       	mov	r15, r25
    4946:	28 2d       	mov	r18, r8
    4948:	39 2d       	mov	r19, r9
    494a:	4a 2d       	mov	r20, r10
    494c:	5b 2d       	mov	r21, r11
    494e:	6c 2d       	mov	r22, r12
    4950:	7d 2d       	mov	r23, r13
    4952:	8e 2d       	mov	r24, r14
    4954:	9f 2d       	mov	r25, r15
    4956:	01 e0       	ldi	r16, 0x01	; 1
    4958:	0e 94 89 39 	call	0x7312	; 0x7312 <__ashldi3>
    495c:	6f 96       	adiw	r28, 0x1f	; 31
    495e:	2f af       	std	Y+63, r18	; 0x3f
    4960:	6f 97       	sbiw	r28, 0x1f	; 31
    4962:	a0 96       	adiw	r28, 0x20	; 32
    4964:	3f af       	std	Y+63, r19	; 0x3f
    4966:	a0 97       	sbiw	r28, 0x20	; 32
    4968:	a1 96       	adiw	r28, 0x21	; 33
    496a:	4f af       	std	Y+63, r20	; 0x3f
    496c:	a1 97       	sbiw	r28, 0x21	; 33
    496e:	a2 96       	adiw	r28, 0x22	; 34
    4970:	5f af       	std	Y+63, r21	; 0x3f
    4972:	a2 97       	sbiw	r28, 0x22	; 34
    4974:	a3 96       	adiw	r28, 0x23	; 35
    4976:	6f af       	std	Y+63, r22	; 0x3f
    4978:	a3 97       	sbiw	r28, 0x23	; 35
    497a:	a4 96       	adiw	r28, 0x24	; 36
    497c:	7f af       	std	Y+63, r23	; 0x3f
    497e:	a4 97       	sbiw	r28, 0x24	; 36
    4980:	a5 96       	adiw	r28, 0x25	; 37
    4982:	8f af       	std	Y+63, r24	; 0x3f
    4984:	a5 97       	sbiw	r28, 0x25	; 37
    4986:	a6 96       	adiw	r28, 0x26	; 38
    4988:	9f af       	std	Y+63, r25	; 0x3f
    498a:	a6 97       	sbiw	r28, 0x26	; 38
    498c:	6f 96       	adiw	r28, 0x1f	; 31
    498e:	8f ac       	ldd	r8, Y+63	; 0x3f
    4990:	6f 97       	sbiw	r28, 0x1f	; 31
    4992:	a0 96       	adiw	r28, 0x20	; 32
    4994:	9f ac       	ldd	r9, Y+63	; 0x3f
    4996:	a0 97       	sbiw	r28, 0x20	; 32
    4998:	a1 96       	adiw	r28, 0x21	; 33
    499a:	af ac       	ldd	r10, Y+63	; 0x3f
    499c:	a1 97       	sbiw	r28, 0x21	; 33
    499e:	a2 96       	adiw	r28, 0x22	; 34
    49a0:	bf ac       	ldd	r11, Y+63	; 0x3f
    49a2:	a2 97       	sbiw	r28, 0x22	; 34
    49a4:	a3 96       	adiw	r28, 0x23	; 35
    49a6:	cf ac       	ldd	r12, Y+63	; 0x3f
    49a8:	a3 97       	sbiw	r28, 0x23	; 35
    49aa:	a4 96       	adiw	r28, 0x24	; 36
    49ac:	df ac       	ldd	r13, Y+63	; 0x3f
    49ae:	a4 97       	sbiw	r28, 0x24	; 36
    49b0:	a5 96       	adiw	r28, 0x25	; 37
    49b2:	ef ac       	ldd	r14, Y+63	; 0x3f
    49b4:	a5 97       	sbiw	r28, 0x25	; 37
    49b6:	a6 96       	adiw	r28, 0x26	; 38
    49b8:	ff ac       	ldd	r15, Y+63	; 0x3f
    49ba:	a6 97       	sbiw	r28, 0x26	; 38
    49bc:	28 2d       	mov	r18, r8
    49be:	39 2d       	mov	r19, r9
    49c0:	4a 2d       	mov	r20, r10
    49c2:	5b 2d       	mov	r21, r11
    49c4:	6c 2d       	mov	r22, r12
    49c6:	7d 2d       	mov	r23, r13
    49c8:	8e 2d       	mov	r24, r14
    49ca:	9f 2d       	mov	r25, r15
    49cc:	02 e0       	ldi	r16, 0x02	; 2
    49ce:	0e 94 89 39 	call	0x7312	; 0x7312 <__ashldi3>
    49d2:	a7 96       	adiw	r28, 0x27	; 39
    49d4:	2f af       	std	Y+63, r18	; 0x3f
    49d6:	a7 97       	sbiw	r28, 0x27	; 39
    49d8:	a8 96       	adiw	r28, 0x28	; 40
    49da:	3f af       	std	Y+63, r19	; 0x3f
    49dc:	a8 97       	sbiw	r28, 0x28	; 40
    49de:	a9 96       	adiw	r28, 0x29	; 41
    49e0:	4f af       	std	Y+63, r20	; 0x3f
    49e2:	a9 97       	sbiw	r28, 0x29	; 41
    49e4:	aa 96       	adiw	r28, 0x2a	; 42
    49e6:	5f af       	std	Y+63, r21	; 0x3f
    49e8:	aa 97       	sbiw	r28, 0x2a	; 42
    49ea:	ab 96       	adiw	r28, 0x2b	; 43
    49ec:	6f af       	std	Y+63, r22	; 0x3f
    49ee:	ab 97       	sbiw	r28, 0x2b	; 43
    49f0:	ac 96       	adiw	r28, 0x2c	; 44
    49f2:	7f af       	std	Y+63, r23	; 0x3f
    49f4:	ac 97       	sbiw	r28, 0x2c	; 44
    49f6:	ad 96       	adiw	r28, 0x2d	; 45
    49f8:	8f af       	std	Y+63, r24	; 0x3f
    49fa:	ad 97       	sbiw	r28, 0x2d	; 45
    49fc:	ae 96       	adiw	r28, 0x2e	; 46
    49fe:	9f af       	std	Y+63, r25	; 0x3f
    4a00:	ae 97       	sbiw	r28, 0x2e	; 46
    4a02:	28 2d       	mov	r18, r8
    4a04:	39 2d       	mov	r19, r9
    4a06:	4a 2d       	mov	r20, r10
    4a08:	5b 2d       	mov	r21, r11
    4a0a:	6c 2d       	mov	r22, r12
    4a0c:	7d 2d       	mov	r23, r13
    4a0e:	8e 2d       	mov	r24, r14
    4a10:	9f 2d       	mov	r25, r15
    4a12:	a7 96       	adiw	r28, 0x27	; 39
    4a14:	af ac       	ldd	r10, Y+63	; 0x3f
    4a16:	a7 97       	sbiw	r28, 0x27	; 39
    4a18:	a8 96       	adiw	r28, 0x28	; 40
    4a1a:	bf ac       	ldd	r11, Y+63	; 0x3f
    4a1c:	a8 97       	sbiw	r28, 0x28	; 40
    4a1e:	a9 96       	adiw	r28, 0x29	; 41
    4a20:	cf ac       	ldd	r12, Y+63	; 0x3f
    4a22:	a9 97       	sbiw	r28, 0x29	; 41
    4a24:	aa 96       	adiw	r28, 0x2a	; 42
    4a26:	df ac       	ldd	r13, Y+63	; 0x3f
    4a28:	aa 97       	sbiw	r28, 0x2a	; 42
    4a2a:	ab 96       	adiw	r28, 0x2b	; 43
    4a2c:	ef ac       	ldd	r14, Y+63	; 0x3f
    4a2e:	ab 97       	sbiw	r28, 0x2b	; 43
    4a30:	ac 96       	adiw	r28, 0x2c	; 44
    4a32:	ff ac       	ldd	r15, Y+63	; 0x3f
    4a34:	ac 97       	sbiw	r28, 0x2c	; 44
    4a36:	ad 96       	adiw	r28, 0x2d	; 45
    4a38:	0f ad       	ldd	r16, Y+63	; 0x3f
    4a3a:	ad 97       	sbiw	r28, 0x2d	; 45
    4a3c:	ae 96       	adiw	r28, 0x2e	; 46
    4a3e:	1f ad       	ldd	r17, Y+63	; 0x3f
    4a40:	ae 97       	sbiw	r28, 0x2e	; 46
    4a42:	0e 94 98 39 	call	0x7330	; 0x7330 <__adddi3>
    4a46:	82 2e       	mov	r8, r18
    4a48:	93 2e       	mov	r9, r19
    4a4a:	a4 2e       	mov	r10, r20
    4a4c:	b5 2e       	mov	r11, r21
    4a4e:	c6 2e       	mov	r12, r22
    4a50:	d7 2e       	mov	r13, r23
    4a52:	e8 2e       	mov	r14, r24
    4a54:	f9 2e       	mov	r15, r25
    4a56:	28 2d       	mov	r18, r8
    4a58:	39 2d       	mov	r19, r9
    4a5a:	4a 2d       	mov	r20, r10
    4a5c:	5b 2d       	mov	r21, r11
    4a5e:	6c 2d       	mov	r22, r12
    4a60:	7d 2d       	mov	r23, r13
    4a62:	8e 2d       	mov	r24, r14
    4a64:	9f 2d       	mov	r25, r15
    4a66:	02 e0       	ldi	r16, 0x02	; 2
    4a68:	0e 94 89 39 	call	0x7312	; 0x7312 <__ashldi3>
    4a6c:	af 96       	adiw	r28, 0x2f	; 47
    4a6e:	2f af       	std	Y+63, r18	; 0x3f
    4a70:	af 97       	sbiw	r28, 0x2f	; 47
    4a72:	e0 96       	adiw	r28, 0x30	; 48
    4a74:	3f af       	std	Y+63, r19	; 0x3f
    4a76:	e0 97       	sbiw	r28, 0x30	; 48
    4a78:	e1 96       	adiw	r28, 0x31	; 49
    4a7a:	4f af       	std	Y+63, r20	; 0x3f
    4a7c:	e1 97       	sbiw	r28, 0x31	; 49
    4a7e:	e2 96       	adiw	r28, 0x32	; 50
    4a80:	5f af       	std	Y+63, r21	; 0x3f
    4a82:	e2 97       	sbiw	r28, 0x32	; 50
    4a84:	e3 96       	adiw	r28, 0x33	; 51
    4a86:	6f af       	std	Y+63, r22	; 0x3f
    4a88:	e3 97       	sbiw	r28, 0x33	; 51
    4a8a:	e4 96       	adiw	r28, 0x34	; 52
    4a8c:	7f af       	std	Y+63, r23	; 0x3f
    4a8e:	e4 97       	sbiw	r28, 0x34	; 52
    4a90:	e5 96       	adiw	r28, 0x35	; 53
    4a92:	8f af       	std	Y+63, r24	; 0x3f
    4a94:	e5 97       	sbiw	r28, 0x35	; 53
    4a96:	e6 96       	adiw	r28, 0x36	; 54
    4a98:	9f af       	std	Y+63, r25	; 0x3f
    4a9a:	e6 97       	sbiw	r28, 0x36	; 54
    4a9c:	28 2d       	mov	r18, r8
    4a9e:	39 2d       	mov	r19, r9
    4aa0:	4a 2d       	mov	r20, r10
    4aa2:	5b 2d       	mov	r21, r11
    4aa4:	6c 2d       	mov	r22, r12
    4aa6:	7d 2d       	mov	r23, r13
    4aa8:	8e 2d       	mov	r24, r14
    4aaa:	9f 2d       	mov	r25, r15
    4aac:	af 96       	adiw	r28, 0x2f	; 47
    4aae:	af ac       	ldd	r10, Y+63	; 0x3f
    4ab0:	af 97       	sbiw	r28, 0x2f	; 47
    4ab2:	e0 96       	adiw	r28, 0x30	; 48
    4ab4:	bf ac       	ldd	r11, Y+63	; 0x3f
    4ab6:	e0 97       	sbiw	r28, 0x30	; 48
    4ab8:	e1 96       	adiw	r28, 0x31	; 49
    4aba:	cf ac       	ldd	r12, Y+63	; 0x3f
    4abc:	e1 97       	sbiw	r28, 0x31	; 49
    4abe:	e2 96       	adiw	r28, 0x32	; 50
    4ac0:	df ac       	ldd	r13, Y+63	; 0x3f
    4ac2:	e2 97       	sbiw	r28, 0x32	; 50
    4ac4:	e3 96       	adiw	r28, 0x33	; 51
    4ac6:	ef ac       	ldd	r14, Y+63	; 0x3f
    4ac8:	e3 97       	sbiw	r28, 0x33	; 51
    4aca:	e4 96       	adiw	r28, 0x34	; 52
    4acc:	ff ac       	ldd	r15, Y+63	; 0x3f
    4ace:	e4 97       	sbiw	r28, 0x34	; 52
    4ad0:	e5 96       	adiw	r28, 0x35	; 53
    4ad2:	0f ad       	ldd	r16, Y+63	; 0x3f
    4ad4:	e5 97       	sbiw	r28, 0x35	; 53
    4ad6:	e6 96       	adiw	r28, 0x36	; 54
    4ad8:	1f ad       	ldd	r17, Y+63	; 0x3f
    4ada:	e6 97       	sbiw	r28, 0x36	; 54
    4adc:	0e 94 98 39 	call	0x7330	; 0x7330 <__adddi3>
    4ae0:	a2 2e       	mov	r10, r18
    4ae2:	b3 2e       	mov	r11, r19
    4ae4:	c4 2e       	mov	r12, r20
    4ae6:	d5 2e       	mov	r13, r21
    4ae8:	e6 2e       	mov	r14, r22
    4aea:	f7 2e       	mov	r15, r23
    4aec:	08 2f       	mov	r16, r24
    4aee:	19 2f       	mov	r17, r25
    4af0:	2a 2d       	mov	r18, r10
    4af2:	3b 2d       	mov	r19, r11
    4af4:	4c 2d       	mov	r20, r12
    4af6:	5d 2d       	mov	r21, r13
    4af8:	6e 2d       	mov	r22, r14
    4afa:	7f 2d       	mov	r23, r15
    4afc:	80 2f       	mov	r24, r16
    4afe:	91 2f       	mov	r25, r17
    4b00:	29 51       	subi	r18, 0x19	; 25
    4b02:	3c 4f       	sbci	r19, 0xFC	; 252
    4b04:	4f 4f       	sbci	r20, 0xFF	; 255
    4b06:	5f 4f       	sbci	r21, 0xFF	; 255
    4b08:	6f 4f       	sbci	r22, 0xFF	; 255
    4b0a:	7f 4f       	sbci	r23, 0xFF	; 255
    4b0c:	8f 4f       	sbci	r24, 0xFF	; 255
    4b0e:	9f 4f       	sbci	r25, 0xFF	; 255
    4b10:	a2 2e       	mov	r10, r18
    4b12:	b3 2e       	mov	r11, r19
    4b14:	c4 2e       	mov	r12, r20
    4b16:	d5 2e       	mov	r13, r21
    4b18:	e6 2e       	mov	r14, r22
    4b1a:	f7 2e       	mov	r15, r23
    4b1c:	08 2f       	mov	r16, r24
    4b1e:	19 2f       	mov	r17, r25
    4b20:	2a 2d       	mov	r18, r10
    4b22:	3b 2d       	mov	r19, r11
    4b24:	4c 2d       	mov	r20, r12
    4b26:	5d 2d       	mov	r21, r13
    4b28:	6e 2d       	mov	r22, r14
    4b2a:	7f 2d       	mov	r23, r15
    4b2c:	80 2f       	mov	r24, r16
    4b2e:	91 2f       	mov	r25, r17
    4b30:	0e 94 f6 01 	call	0x3ec	; 0x3ec <__floatundisf>
    4b34:	dc 01       	movw	r26, r24
    4b36:	cb 01       	movw	r24, r22
    4b38:	20 e0       	ldi	r18, 0x00	; 0
    4b3a:	30 e8       	ldi	r19, 0x80	; 128
    4b3c:	4b eb       	ldi	r20, 0xBB	; 187
    4b3e:	55 e4       	ldi	r21, 0x45	; 69
    4b40:	bc 01       	movw	r22, r24
    4b42:	cd 01       	movw	r24, r26
    4b44:	0e 94 71 03 	call	0x6e2	; 0x6e2 <__divsf3>
    4b48:	dc 01       	movw	r26, r24
    4b4a:	cb 01       	movw	r24, r22
    4b4c:	bc 01       	movw	r22, r24
    4b4e:	cd 01       	movw	r24, r26
    4b50:	0e 94 45 01 	call	0x28a	; 0x28a <__fixunssfdi>
    4b54:	a2 2e       	mov	r10, r18
    4b56:	b3 2e       	mov	r11, r19
    4b58:	c4 2e       	mov	r12, r20
    4b5a:	d5 2e       	mov	r13, r21
    4b5c:	e6 2e       	mov	r14, r22
    4b5e:	f7 2e       	mov	r15, r23
    4b60:	08 2f       	mov	r16, r24
    4b62:	19 2f       	mov	r17, r25
    4b64:	d6 01       	movw	r26, r12
    4b66:	c5 01       	movw	r24, r10
    4b68:	bc 01       	movw	r22, r24
    4b6a:	cd 01       	movw	r24, r26
    4b6c:	0e 94 bf 17 	call	0x2f7e	; 0x2f7e <__portable_avr_delay_cycles>
		showMeByte(i);
    4b70:	8b 81       	ldd	r24, Y+3	; 0x03
    4b72:	0e 94 66 1b 	call	0x36cc	; 0x36cc <showMeByte>
	for (uint16_t i = 1; i <129 ; i += i)
	{
		delay_ms(50);
		showMeByte(i);
	}
	for (uint16_t i = 128; i >1 ; i -= i/2)
    4b76:	8b 81       	ldd	r24, Y+3	; 0x03
    4b78:	9c 81       	ldd	r25, Y+4	; 0x04
    4b7a:	96 95       	lsr	r25
    4b7c:	87 95       	ror	r24
    4b7e:	2b 81       	ldd	r18, Y+3	; 0x03
    4b80:	3c 81       	ldd	r19, Y+4	; 0x04
    4b82:	89 01       	movw	r16, r18
    4b84:	08 1b       	sub	r16, r24
    4b86:	19 0b       	sbc	r17, r25
    4b88:	c8 01       	movw	r24, r16
    4b8a:	8b 83       	std	Y+3, r24	; 0x03
    4b8c:	9c 83       	std	Y+4, r25	; 0x04
    4b8e:	8b 81       	ldd	r24, Y+3	; 0x03
    4b90:	9c 81       	ldd	r25, Y+4	; 0x04
    4b92:	82 30       	cpi	r24, 0x02	; 2
    4b94:	91 05       	cpc	r25, r1
    4b96:	08 f0       	brcs	.+2      	; 0x4b9a <main+0x5d8>
    4b98:	c5 ce       	rjmp	.-630    	; 0x4924 <main+0x362>
	{
		delay_ms(50);
		showMeByte(i);
	}
	delay_ms(50);
    4b9a:	0e 94 b3 17 	call	0x2f66	; 0x2f66 <sysclk_get_cpu_hz>
    4b9e:	dc 01       	movw	r26, r24
    4ba0:	cb 01       	movw	r24, r22
    4ba2:	9c 01       	movw	r18, r24
    4ba4:	ad 01       	movw	r20, r26
    4ba6:	60 e0       	ldi	r22, 0x00	; 0
    4ba8:	70 e0       	ldi	r23, 0x00	; 0
    4baa:	cb 01       	movw	r24, r22
    4bac:	82 2e       	mov	r8, r18
    4bae:	93 2e       	mov	r9, r19
    4bb0:	a4 2e       	mov	r10, r20
    4bb2:	b5 2e       	mov	r11, r21
    4bb4:	c6 2e       	mov	r12, r22
    4bb6:	d7 2e       	mov	r13, r23
    4bb8:	e8 2e       	mov	r14, r24
    4bba:	f9 2e       	mov	r15, r25
    4bbc:	28 2d       	mov	r18, r8
    4bbe:	39 2d       	mov	r19, r9
    4bc0:	4a 2d       	mov	r20, r10
    4bc2:	5b 2d       	mov	r21, r11
    4bc4:	6c 2d       	mov	r22, r12
    4bc6:	7d 2d       	mov	r23, r13
    4bc8:	8e 2d       	mov	r24, r14
    4bca:	9f 2d       	mov	r25, r15
    4bcc:	01 e0       	ldi	r16, 0x01	; 1
    4bce:	0e 94 89 39 	call	0x7312	; 0x7312 <__ashldi3>
    4bd2:	e7 96       	adiw	r28, 0x37	; 55
    4bd4:	2f af       	std	Y+63, r18	; 0x3f
    4bd6:	e7 97       	sbiw	r28, 0x37	; 55
    4bd8:	e8 96       	adiw	r28, 0x38	; 56
    4bda:	3f af       	std	Y+63, r19	; 0x3f
    4bdc:	e8 97       	sbiw	r28, 0x38	; 56
    4bde:	e9 96       	adiw	r28, 0x39	; 57
    4be0:	4f af       	std	Y+63, r20	; 0x3f
    4be2:	e9 97       	sbiw	r28, 0x39	; 57
    4be4:	ea 96       	adiw	r28, 0x3a	; 58
    4be6:	5f af       	std	Y+63, r21	; 0x3f
    4be8:	ea 97       	sbiw	r28, 0x3a	; 58
    4bea:	eb 96       	adiw	r28, 0x3b	; 59
    4bec:	6f af       	std	Y+63, r22	; 0x3f
    4bee:	eb 97       	sbiw	r28, 0x3b	; 59
    4bf0:	ec 96       	adiw	r28, 0x3c	; 60
    4bf2:	7f af       	std	Y+63, r23	; 0x3f
    4bf4:	ec 97       	sbiw	r28, 0x3c	; 60
    4bf6:	ed 96       	adiw	r28, 0x3d	; 61
    4bf8:	8f af       	std	Y+63, r24	; 0x3f
    4bfa:	ed 97       	sbiw	r28, 0x3d	; 61
    4bfc:	ee 96       	adiw	r28, 0x3e	; 62
    4bfe:	9f af       	std	Y+63, r25	; 0x3f
    4c00:	ee 97       	sbiw	r28, 0x3e	; 62
    4c02:	e7 96       	adiw	r28, 0x37	; 55
    4c04:	8f ac       	ldd	r8, Y+63	; 0x3f
    4c06:	e7 97       	sbiw	r28, 0x37	; 55
    4c08:	e8 96       	adiw	r28, 0x38	; 56
    4c0a:	9f ac       	ldd	r9, Y+63	; 0x3f
    4c0c:	e8 97       	sbiw	r28, 0x38	; 56
    4c0e:	e9 96       	adiw	r28, 0x39	; 57
    4c10:	af ac       	ldd	r10, Y+63	; 0x3f
    4c12:	e9 97       	sbiw	r28, 0x39	; 57
    4c14:	ea 96       	adiw	r28, 0x3a	; 58
    4c16:	bf ac       	ldd	r11, Y+63	; 0x3f
    4c18:	ea 97       	sbiw	r28, 0x3a	; 58
    4c1a:	eb 96       	adiw	r28, 0x3b	; 59
    4c1c:	cf ac       	ldd	r12, Y+63	; 0x3f
    4c1e:	eb 97       	sbiw	r28, 0x3b	; 59
    4c20:	ec 96       	adiw	r28, 0x3c	; 60
    4c22:	df ac       	ldd	r13, Y+63	; 0x3f
    4c24:	ec 97       	sbiw	r28, 0x3c	; 60
    4c26:	ed 96       	adiw	r28, 0x3d	; 61
    4c28:	ef ac       	ldd	r14, Y+63	; 0x3f
    4c2a:	ed 97       	sbiw	r28, 0x3d	; 61
    4c2c:	ee 96       	adiw	r28, 0x3e	; 62
    4c2e:	ff ac       	ldd	r15, Y+63	; 0x3f
    4c30:	ee 97       	sbiw	r28, 0x3e	; 62
    4c32:	28 2d       	mov	r18, r8
    4c34:	39 2d       	mov	r19, r9
    4c36:	4a 2d       	mov	r20, r10
    4c38:	5b 2d       	mov	r21, r11
    4c3a:	6c 2d       	mov	r22, r12
    4c3c:	7d 2d       	mov	r23, r13
    4c3e:	8e 2d       	mov	r24, r14
    4c40:	9f 2d       	mov	r25, r15
    4c42:	02 e0       	ldi	r16, 0x02	; 2
    4c44:	0e 94 89 39 	call	0x7312	; 0x7312 <__ashldi3>
    4c48:	ef 96       	adiw	r28, 0x3f	; 63
    4c4a:	2f af       	std	Y+63, r18	; 0x3f
    4c4c:	ef 97       	sbiw	r28, 0x3f	; 63
    4c4e:	c1 58       	subi	r28, 0x81	; 129
    4c50:	df 4f       	sbci	r29, 0xFF	; 255
    4c52:	38 83       	st	Y, r19
    4c54:	cf 57       	subi	r28, 0x7F	; 127
    4c56:	d0 40       	sbci	r29, 0x00	; 0
    4c58:	c0 58       	subi	r28, 0x80	; 128
    4c5a:	df 4f       	sbci	r29, 0xFF	; 255
    4c5c:	48 83       	st	Y, r20
    4c5e:	c0 58       	subi	r28, 0x80	; 128
    4c60:	d0 40       	sbci	r29, 0x00	; 0
    4c62:	cf 57       	subi	r28, 0x7F	; 127
    4c64:	df 4f       	sbci	r29, 0xFF	; 255
    4c66:	58 83       	st	Y, r21
    4c68:	c1 58       	subi	r28, 0x81	; 129
    4c6a:	d0 40       	sbci	r29, 0x00	; 0
    4c6c:	ce 57       	subi	r28, 0x7E	; 126
    4c6e:	df 4f       	sbci	r29, 0xFF	; 255
    4c70:	68 83       	st	Y, r22
    4c72:	c2 58       	subi	r28, 0x82	; 130
    4c74:	d0 40       	sbci	r29, 0x00	; 0
    4c76:	cd 57       	subi	r28, 0x7D	; 125
    4c78:	df 4f       	sbci	r29, 0xFF	; 255
    4c7a:	78 83       	st	Y, r23
    4c7c:	c3 58       	subi	r28, 0x83	; 131
    4c7e:	d0 40       	sbci	r29, 0x00	; 0
    4c80:	cc 57       	subi	r28, 0x7C	; 124
    4c82:	df 4f       	sbci	r29, 0xFF	; 255
    4c84:	88 83       	st	Y, r24
    4c86:	c4 58       	subi	r28, 0x84	; 132
    4c88:	d0 40       	sbci	r29, 0x00	; 0
    4c8a:	cb 57       	subi	r28, 0x7B	; 123
    4c8c:	df 4f       	sbci	r29, 0xFF	; 255
    4c8e:	98 83       	st	Y, r25
    4c90:	c5 58       	subi	r28, 0x85	; 133
    4c92:	d0 40       	sbci	r29, 0x00	; 0
    4c94:	28 2d       	mov	r18, r8
    4c96:	39 2d       	mov	r19, r9
    4c98:	4a 2d       	mov	r20, r10
    4c9a:	5b 2d       	mov	r21, r11
    4c9c:	6c 2d       	mov	r22, r12
    4c9e:	7d 2d       	mov	r23, r13
    4ca0:	8e 2d       	mov	r24, r14
    4ca2:	9f 2d       	mov	r25, r15
    4ca4:	ef 96       	adiw	r28, 0x3f	; 63
    4ca6:	af ac       	ldd	r10, Y+63	; 0x3f
    4ca8:	ef 97       	sbiw	r28, 0x3f	; 63
    4caa:	c1 58       	subi	r28, 0x81	; 129
    4cac:	df 4f       	sbci	r29, 0xFF	; 255
    4cae:	b8 80       	ld	r11, Y
    4cb0:	cf 57       	subi	r28, 0x7F	; 127
    4cb2:	d0 40       	sbci	r29, 0x00	; 0
    4cb4:	c0 58       	subi	r28, 0x80	; 128
    4cb6:	df 4f       	sbci	r29, 0xFF	; 255
    4cb8:	c8 80       	ld	r12, Y
    4cba:	c0 58       	subi	r28, 0x80	; 128
    4cbc:	d0 40       	sbci	r29, 0x00	; 0
    4cbe:	cf 57       	subi	r28, 0x7F	; 127
    4cc0:	df 4f       	sbci	r29, 0xFF	; 255
    4cc2:	d8 80       	ld	r13, Y
    4cc4:	c1 58       	subi	r28, 0x81	; 129
    4cc6:	d0 40       	sbci	r29, 0x00	; 0
    4cc8:	ce 57       	subi	r28, 0x7E	; 126
    4cca:	df 4f       	sbci	r29, 0xFF	; 255
    4ccc:	e8 80       	ld	r14, Y
    4cce:	c2 58       	subi	r28, 0x82	; 130
    4cd0:	d0 40       	sbci	r29, 0x00	; 0
    4cd2:	cd 57       	subi	r28, 0x7D	; 125
    4cd4:	df 4f       	sbci	r29, 0xFF	; 255
    4cd6:	f8 80       	ld	r15, Y
    4cd8:	c3 58       	subi	r28, 0x83	; 131
    4cda:	d0 40       	sbci	r29, 0x00	; 0
    4cdc:	cc 57       	subi	r28, 0x7C	; 124
    4cde:	df 4f       	sbci	r29, 0xFF	; 255
    4ce0:	08 81       	ld	r16, Y
    4ce2:	c4 58       	subi	r28, 0x84	; 132
    4ce4:	d0 40       	sbci	r29, 0x00	; 0
    4ce6:	cb 57       	subi	r28, 0x7B	; 123
    4ce8:	df 4f       	sbci	r29, 0xFF	; 255
    4cea:	18 81       	ld	r17, Y
    4cec:	c5 58       	subi	r28, 0x85	; 133
    4cee:	d0 40       	sbci	r29, 0x00	; 0
    4cf0:	0e 94 98 39 	call	0x7330	; 0x7330 <__adddi3>
    4cf4:	82 2e       	mov	r8, r18
    4cf6:	93 2e       	mov	r9, r19
    4cf8:	a4 2e       	mov	r10, r20
    4cfa:	b5 2e       	mov	r11, r21
    4cfc:	c6 2e       	mov	r12, r22
    4cfe:	d7 2e       	mov	r13, r23
    4d00:	e8 2e       	mov	r14, r24
    4d02:	f9 2e       	mov	r15, r25
    4d04:	28 2d       	mov	r18, r8
    4d06:	39 2d       	mov	r19, r9
    4d08:	4a 2d       	mov	r20, r10
    4d0a:	5b 2d       	mov	r21, r11
    4d0c:	6c 2d       	mov	r22, r12
    4d0e:	7d 2d       	mov	r23, r13
    4d10:	8e 2d       	mov	r24, r14
    4d12:	9f 2d       	mov	r25, r15
    4d14:	02 e0       	ldi	r16, 0x02	; 2
    4d16:	0e 94 89 39 	call	0x7312	; 0x7312 <__ashldi3>
    4d1a:	ca 57       	subi	r28, 0x7A	; 122
    4d1c:	df 4f       	sbci	r29, 0xFF	; 255
    4d1e:	28 83       	st	Y, r18
    4d20:	c6 58       	subi	r28, 0x86	; 134
    4d22:	d0 40       	sbci	r29, 0x00	; 0
    4d24:	c9 57       	subi	r28, 0x79	; 121
    4d26:	df 4f       	sbci	r29, 0xFF	; 255
    4d28:	38 83       	st	Y, r19
    4d2a:	c7 58       	subi	r28, 0x87	; 135
    4d2c:	d0 40       	sbci	r29, 0x00	; 0
    4d2e:	c8 57       	subi	r28, 0x78	; 120
    4d30:	df 4f       	sbci	r29, 0xFF	; 255
    4d32:	48 83       	st	Y, r20
    4d34:	c8 58       	subi	r28, 0x88	; 136
    4d36:	d0 40       	sbci	r29, 0x00	; 0
    4d38:	c7 57       	subi	r28, 0x77	; 119
    4d3a:	df 4f       	sbci	r29, 0xFF	; 255
    4d3c:	58 83       	st	Y, r21
    4d3e:	c9 58       	subi	r28, 0x89	; 137
    4d40:	d0 40       	sbci	r29, 0x00	; 0
    4d42:	c6 57       	subi	r28, 0x76	; 118
    4d44:	df 4f       	sbci	r29, 0xFF	; 255
    4d46:	68 83       	st	Y, r22
    4d48:	ca 58       	subi	r28, 0x8A	; 138
    4d4a:	d0 40       	sbci	r29, 0x00	; 0
    4d4c:	c5 57       	subi	r28, 0x75	; 117
    4d4e:	df 4f       	sbci	r29, 0xFF	; 255
    4d50:	78 83       	st	Y, r23
    4d52:	cb 58       	subi	r28, 0x8B	; 139
    4d54:	d0 40       	sbci	r29, 0x00	; 0
    4d56:	c4 57       	subi	r28, 0x74	; 116
    4d58:	df 4f       	sbci	r29, 0xFF	; 255
    4d5a:	88 83       	st	Y, r24
    4d5c:	cc 58       	subi	r28, 0x8C	; 140
    4d5e:	d0 40       	sbci	r29, 0x00	; 0
    4d60:	c3 57       	subi	r28, 0x73	; 115
    4d62:	df 4f       	sbci	r29, 0xFF	; 255
    4d64:	98 83       	st	Y, r25
    4d66:	cd 58       	subi	r28, 0x8D	; 141
    4d68:	d0 40       	sbci	r29, 0x00	; 0
    4d6a:	28 2d       	mov	r18, r8
    4d6c:	39 2d       	mov	r19, r9
    4d6e:	4a 2d       	mov	r20, r10
    4d70:	5b 2d       	mov	r21, r11
    4d72:	6c 2d       	mov	r22, r12
    4d74:	7d 2d       	mov	r23, r13
    4d76:	8e 2d       	mov	r24, r14
    4d78:	9f 2d       	mov	r25, r15
    4d7a:	ca 57       	subi	r28, 0x7A	; 122
    4d7c:	df 4f       	sbci	r29, 0xFF	; 255
    4d7e:	a8 80       	ld	r10, Y
    4d80:	c6 58       	subi	r28, 0x86	; 134
    4d82:	d0 40       	sbci	r29, 0x00	; 0
    4d84:	c9 57       	subi	r28, 0x79	; 121
    4d86:	df 4f       	sbci	r29, 0xFF	; 255
    4d88:	b8 80       	ld	r11, Y
    4d8a:	c7 58       	subi	r28, 0x87	; 135
    4d8c:	d0 40       	sbci	r29, 0x00	; 0
    4d8e:	c8 57       	subi	r28, 0x78	; 120
    4d90:	df 4f       	sbci	r29, 0xFF	; 255
    4d92:	c8 80       	ld	r12, Y
    4d94:	c8 58       	subi	r28, 0x88	; 136
    4d96:	d0 40       	sbci	r29, 0x00	; 0
    4d98:	c7 57       	subi	r28, 0x77	; 119
    4d9a:	df 4f       	sbci	r29, 0xFF	; 255
    4d9c:	d8 80       	ld	r13, Y
    4d9e:	c9 58       	subi	r28, 0x89	; 137
    4da0:	d0 40       	sbci	r29, 0x00	; 0
    4da2:	c6 57       	subi	r28, 0x76	; 118
    4da4:	df 4f       	sbci	r29, 0xFF	; 255
    4da6:	e8 80       	ld	r14, Y
    4da8:	ca 58       	subi	r28, 0x8A	; 138
    4daa:	d0 40       	sbci	r29, 0x00	; 0
    4dac:	c5 57       	subi	r28, 0x75	; 117
    4dae:	df 4f       	sbci	r29, 0xFF	; 255
    4db0:	f8 80       	ld	r15, Y
    4db2:	cb 58       	subi	r28, 0x8B	; 139
    4db4:	d0 40       	sbci	r29, 0x00	; 0
    4db6:	c4 57       	subi	r28, 0x74	; 116
    4db8:	df 4f       	sbci	r29, 0xFF	; 255
    4dba:	08 81       	ld	r16, Y
    4dbc:	cc 58       	subi	r28, 0x8C	; 140
    4dbe:	d0 40       	sbci	r29, 0x00	; 0
    4dc0:	c3 57       	subi	r28, 0x73	; 115
    4dc2:	df 4f       	sbci	r29, 0xFF	; 255
    4dc4:	18 81       	ld	r17, Y
    4dc6:	cd 58       	subi	r28, 0x8D	; 141
    4dc8:	d0 40       	sbci	r29, 0x00	; 0
    4dca:	0e 94 98 39 	call	0x7330	; 0x7330 <__adddi3>
    4dce:	a2 2e       	mov	r10, r18
    4dd0:	b3 2e       	mov	r11, r19
    4dd2:	c4 2e       	mov	r12, r20
    4dd4:	d5 2e       	mov	r13, r21
    4dd6:	e6 2e       	mov	r14, r22
    4dd8:	f7 2e       	mov	r15, r23
    4dda:	08 2f       	mov	r16, r24
    4ddc:	19 2f       	mov	r17, r25
    4dde:	2a 2d       	mov	r18, r10
    4de0:	3b 2d       	mov	r19, r11
    4de2:	4c 2d       	mov	r20, r12
    4de4:	5d 2d       	mov	r21, r13
    4de6:	6e 2d       	mov	r22, r14
    4de8:	7f 2d       	mov	r23, r15
    4dea:	80 2f       	mov	r24, r16
    4dec:	91 2f       	mov	r25, r17
    4dee:	29 51       	subi	r18, 0x19	; 25
    4df0:	3c 4f       	sbci	r19, 0xFC	; 252
    4df2:	4f 4f       	sbci	r20, 0xFF	; 255
    4df4:	5f 4f       	sbci	r21, 0xFF	; 255
    4df6:	6f 4f       	sbci	r22, 0xFF	; 255
    4df8:	7f 4f       	sbci	r23, 0xFF	; 255
    4dfa:	8f 4f       	sbci	r24, 0xFF	; 255
    4dfc:	9f 4f       	sbci	r25, 0xFF	; 255
    4dfe:	a2 2e       	mov	r10, r18
    4e00:	b3 2e       	mov	r11, r19
    4e02:	c4 2e       	mov	r12, r20
    4e04:	d5 2e       	mov	r13, r21
    4e06:	e6 2e       	mov	r14, r22
    4e08:	f7 2e       	mov	r15, r23
    4e0a:	08 2f       	mov	r16, r24
    4e0c:	19 2f       	mov	r17, r25
    4e0e:	2a 2d       	mov	r18, r10
    4e10:	3b 2d       	mov	r19, r11
    4e12:	4c 2d       	mov	r20, r12
    4e14:	5d 2d       	mov	r21, r13
    4e16:	6e 2d       	mov	r22, r14
    4e18:	7f 2d       	mov	r23, r15
    4e1a:	80 2f       	mov	r24, r16
    4e1c:	91 2f       	mov	r25, r17
    4e1e:	0e 94 f6 01 	call	0x3ec	; 0x3ec <__floatundisf>
    4e22:	dc 01       	movw	r26, r24
    4e24:	cb 01       	movw	r24, r22
    4e26:	20 e0       	ldi	r18, 0x00	; 0
    4e28:	30 e8       	ldi	r19, 0x80	; 128
    4e2a:	4b eb       	ldi	r20, 0xBB	; 187
    4e2c:	55 e4       	ldi	r21, 0x45	; 69
    4e2e:	bc 01       	movw	r22, r24
    4e30:	cd 01       	movw	r24, r26
    4e32:	0e 94 71 03 	call	0x6e2	; 0x6e2 <__divsf3>
    4e36:	dc 01       	movw	r26, r24
    4e38:	cb 01       	movw	r24, r22
    4e3a:	bc 01       	movw	r22, r24
    4e3c:	cd 01       	movw	r24, r26
    4e3e:	0e 94 45 01 	call	0x28a	; 0x28a <__fixunssfdi>
    4e42:	a2 2e       	mov	r10, r18
    4e44:	b3 2e       	mov	r11, r19
    4e46:	c4 2e       	mov	r12, r20
    4e48:	d5 2e       	mov	r13, r21
    4e4a:	e6 2e       	mov	r14, r22
    4e4c:	f7 2e       	mov	r15, r23
    4e4e:	08 2f       	mov	r16, r24
    4e50:	19 2f       	mov	r17, r25
    4e52:	d6 01       	movw	r26, r12
    4e54:	c5 01       	movw	r24, r10
    4e56:	bc 01       	movw	r22, r24
    4e58:	cd 01       	movw	r24, r26
    4e5a:	0e 94 bf 17 	call	0x2f7e	; 0x2f7e <__portable_avr_delay_cycles>
	showMeByte(2);
    4e5e:	82 e0       	ldi	r24, 0x02	; 2
    4e60:	0e 94 66 1b 	call	0x36cc	; 0x36cc <showMeByte>
	delay_ms(50);
    4e64:	0e 94 b3 17 	call	0x2f66	; 0x2f66 <sysclk_get_cpu_hz>
    4e68:	dc 01       	movw	r26, r24
    4e6a:	cb 01       	movw	r24, r22
    4e6c:	9c 01       	movw	r18, r24
    4e6e:	ad 01       	movw	r20, r26
    4e70:	60 e0       	ldi	r22, 0x00	; 0
    4e72:	70 e0       	ldi	r23, 0x00	; 0
    4e74:	cb 01       	movw	r24, r22
    4e76:	82 2e       	mov	r8, r18
    4e78:	93 2e       	mov	r9, r19
    4e7a:	a4 2e       	mov	r10, r20
    4e7c:	b5 2e       	mov	r11, r21
    4e7e:	c6 2e       	mov	r12, r22
    4e80:	d7 2e       	mov	r13, r23
    4e82:	e8 2e       	mov	r14, r24
    4e84:	f9 2e       	mov	r15, r25
    4e86:	28 2d       	mov	r18, r8
    4e88:	39 2d       	mov	r19, r9
    4e8a:	4a 2d       	mov	r20, r10
    4e8c:	5b 2d       	mov	r21, r11
    4e8e:	6c 2d       	mov	r22, r12
    4e90:	7d 2d       	mov	r23, r13
    4e92:	8e 2d       	mov	r24, r14
    4e94:	9f 2d       	mov	r25, r15
    4e96:	01 e0       	ldi	r16, 0x01	; 1
    4e98:	0e 94 89 39 	call	0x7312	; 0x7312 <__ashldi3>
    4e9c:	c2 57       	subi	r28, 0x72	; 114
    4e9e:	df 4f       	sbci	r29, 0xFF	; 255
    4ea0:	28 83       	st	Y, r18
    4ea2:	ce 58       	subi	r28, 0x8E	; 142
    4ea4:	d0 40       	sbci	r29, 0x00	; 0
    4ea6:	c1 57       	subi	r28, 0x71	; 113
    4ea8:	df 4f       	sbci	r29, 0xFF	; 255
    4eaa:	38 83       	st	Y, r19
    4eac:	cf 58       	subi	r28, 0x8F	; 143
    4eae:	d0 40       	sbci	r29, 0x00	; 0
    4eb0:	c0 57       	subi	r28, 0x70	; 112
    4eb2:	df 4f       	sbci	r29, 0xFF	; 255
    4eb4:	48 83       	st	Y, r20
    4eb6:	c0 59       	subi	r28, 0x90	; 144
    4eb8:	d0 40       	sbci	r29, 0x00	; 0
    4eba:	cf 56       	subi	r28, 0x6F	; 111
    4ebc:	df 4f       	sbci	r29, 0xFF	; 255
    4ebe:	58 83       	st	Y, r21
    4ec0:	c1 59       	subi	r28, 0x91	; 145
    4ec2:	d0 40       	sbci	r29, 0x00	; 0
    4ec4:	ce 56       	subi	r28, 0x6E	; 110
    4ec6:	df 4f       	sbci	r29, 0xFF	; 255
    4ec8:	68 83       	st	Y, r22
    4eca:	c2 59       	subi	r28, 0x92	; 146
    4ecc:	d0 40       	sbci	r29, 0x00	; 0
    4ece:	cd 56       	subi	r28, 0x6D	; 109
    4ed0:	df 4f       	sbci	r29, 0xFF	; 255
    4ed2:	78 83       	st	Y, r23
    4ed4:	c3 59       	subi	r28, 0x93	; 147
    4ed6:	d0 40       	sbci	r29, 0x00	; 0
    4ed8:	cc 56       	subi	r28, 0x6C	; 108
    4eda:	df 4f       	sbci	r29, 0xFF	; 255
    4edc:	88 83       	st	Y, r24
    4ede:	c4 59       	subi	r28, 0x94	; 148
    4ee0:	d0 40       	sbci	r29, 0x00	; 0
    4ee2:	cb 56       	subi	r28, 0x6B	; 107
    4ee4:	df 4f       	sbci	r29, 0xFF	; 255
    4ee6:	98 83       	st	Y, r25
    4ee8:	c5 59       	subi	r28, 0x95	; 149
    4eea:	d0 40       	sbci	r29, 0x00	; 0
    4eec:	c2 57       	subi	r28, 0x72	; 114
    4eee:	df 4f       	sbci	r29, 0xFF	; 255
    4ef0:	88 80       	ld	r8, Y
    4ef2:	ce 58       	subi	r28, 0x8E	; 142
    4ef4:	d0 40       	sbci	r29, 0x00	; 0
    4ef6:	c1 57       	subi	r28, 0x71	; 113
    4ef8:	df 4f       	sbci	r29, 0xFF	; 255
    4efa:	98 80       	ld	r9, Y
    4efc:	cf 58       	subi	r28, 0x8F	; 143
    4efe:	d0 40       	sbci	r29, 0x00	; 0
    4f00:	c0 57       	subi	r28, 0x70	; 112
    4f02:	df 4f       	sbci	r29, 0xFF	; 255
    4f04:	a8 80       	ld	r10, Y
    4f06:	c0 59       	subi	r28, 0x90	; 144
    4f08:	d0 40       	sbci	r29, 0x00	; 0
    4f0a:	cf 56       	subi	r28, 0x6F	; 111
    4f0c:	df 4f       	sbci	r29, 0xFF	; 255
    4f0e:	b8 80       	ld	r11, Y
    4f10:	c1 59       	subi	r28, 0x91	; 145
    4f12:	d0 40       	sbci	r29, 0x00	; 0
    4f14:	ce 56       	subi	r28, 0x6E	; 110
    4f16:	df 4f       	sbci	r29, 0xFF	; 255
    4f18:	c8 80       	ld	r12, Y
    4f1a:	c2 59       	subi	r28, 0x92	; 146
    4f1c:	d0 40       	sbci	r29, 0x00	; 0
    4f1e:	cd 56       	subi	r28, 0x6D	; 109
    4f20:	df 4f       	sbci	r29, 0xFF	; 255
    4f22:	d8 80       	ld	r13, Y
    4f24:	c3 59       	subi	r28, 0x93	; 147
    4f26:	d0 40       	sbci	r29, 0x00	; 0
    4f28:	cc 56       	subi	r28, 0x6C	; 108
    4f2a:	df 4f       	sbci	r29, 0xFF	; 255
    4f2c:	e8 80       	ld	r14, Y
    4f2e:	c4 59       	subi	r28, 0x94	; 148
    4f30:	d0 40       	sbci	r29, 0x00	; 0
    4f32:	cb 56       	subi	r28, 0x6B	; 107
    4f34:	df 4f       	sbci	r29, 0xFF	; 255
    4f36:	f8 80       	ld	r15, Y
    4f38:	c5 59       	subi	r28, 0x95	; 149
    4f3a:	d0 40       	sbci	r29, 0x00	; 0
    4f3c:	28 2d       	mov	r18, r8
    4f3e:	39 2d       	mov	r19, r9
    4f40:	4a 2d       	mov	r20, r10
    4f42:	5b 2d       	mov	r21, r11
    4f44:	6c 2d       	mov	r22, r12
    4f46:	7d 2d       	mov	r23, r13
    4f48:	8e 2d       	mov	r24, r14
    4f4a:	9f 2d       	mov	r25, r15
    4f4c:	02 e0       	ldi	r16, 0x02	; 2
    4f4e:	0e 94 89 39 	call	0x7312	; 0x7312 <__ashldi3>
    4f52:	ca 56       	subi	r28, 0x6A	; 106
    4f54:	df 4f       	sbci	r29, 0xFF	; 255
    4f56:	28 83       	st	Y, r18
    4f58:	c6 59       	subi	r28, 0x96	; 150
    4f5a:	d0 40       	sbci	r29, 0x00	; 0
    4f5c:	c9 56       	subi	r28, 0x69	; 105
    4f5e:	df 4f       	sbci	r29, 0xFF	; 255
    4f60:	38 83       	st	Y, r19
    4f62:	c7 59       	subi	r28, 0x97	; 151
    4f64:	d0 40       	sbci	r29, 0x00	; 0
    4f66:	c8 56       	subi	r28, 0x68	; 104
    4f68:	df 4f       	sbci	r29, 0xFF	; 255
    4f6a:	48 83       	st	Y, r20
    4f6c:	c8 59       	subi	r28, 0x98	; 152
    4f6e:	d0 40       	sbci	r29, 0x00	; 0
    4f70:	c7 56       	subi	r28, 0x67	; 103
    4f72:	df 4f       	sbci	r29, 0xFF	; 255
    4f74:	58 83       	st	Y, r21
    4f76:	c9 59       	subi	r28, 0x99	; 153
    4f78:	d0 40       	sbci	r29, 0x00	; 0
    4f7a:	c6 56       	subi	r28, 0x66	; 102
    4f7c:	df 4f       	sbci	r29, 0xFF	; 255
    4f7e:	68 83       	st	Y, r22
    4f80:	ca 59       	subi	r28, 0x9A	; 154
    4f82:	d0 40       	sbci	r29, 0x00	; 0
    4f84:	c5 56       	subi	r28, 0x65	; 101
    4f86:	df 4f       	sbci	r29, 0xFF	; 255
    4f88:	78 83       	st	Y, r23
    4f8a:	cb 59       	subi	r28, 0x9B	; 155
    4f8c:	d0 40       	sbci	r29, 0x00	; 0
    4f8e:	c4 56       	subi	r28, 0x64	; 100
    4f90:	df 4f       	sbci	r29, 0xFF	; 255
    4f92:	88 83       	st	Y, r24
    4f94:	cc 59       	subi	r28, 0x9C	; 156
    4f96:	d0 40       	sbci	r29, 0x00	; 0
    4f98:	c3 56       	subi	r28, 0x63	; 99
    4f9a:	df 4f       	sbci	r29, 0xFF	; 255
    4f9c:	98 83       	st	Y, r25
    4f9e:	cd 59       	subi	r28, 0x9D	; 157
    4fa0:	d0 40       	sbci	r29, 0x00	; 0
    4fa2:	28 2d       	mov	r18, r8
    4fa4:	39 2d       	mov	r19, r9
    4fa6:	4a 2d       	mov	r20, r10
    4fa8:	5b 2d       	mov	r21, r11
    4faa:	6c 2d       	mov	r22, r12
    4fac:	7d 2d       	mov	r23, r13
    4fae:	8e 2d       	mov	r24, r14
    4fb0:	9f 2d       	mov	r25, r15
    4fb2:	ca 56       	subi	r28, 0x6A	; 106
    4fb4:	df 4f       	sbci	r29, 0xFF	; 255
    4fb6:	a8 80       	ld	r10, Y
    4fb8:	c6 59       	subi	r28, 0x96	; 150
    4fba:	d0 40       	sbci	r29, 0x00	; 0
    4fbc:	c9 56       	subi	r28, 0x69	; 105
    4fbe:	df 4f       	sbci	r29, 0xFF	; 255
    4fc0:	b8 80       	ld	r11, Y
    4fc2:	c7 59       	subi	r28, 0x97	; 151
    4fc4:	d0 40       	sbci	r29, 0x00	; 0
    4fc6:	c8 56       	subi	r28, 0x68	; 104
    4fc8:	df 4f       	sbci	r29, 0xFF	; 255
    4fca:	c8 80       	ld	r12, Y
    4fcc:	c8 59       	subi	r28, 0x98	; 152
    4fce:	d0 40       	sbci	r29, 0x00	; 0
    4fd0:	c7 56       	subi	r28, 0x67	; 103
    4fd2:	df 4f       	sbci	r29, 0xFF	; 255
    4fd4:	d8 80       	ld	r13, Y
    4fd6:	c9 59       	subi	r28, 0x99	; 153
    4fd8:	d0 40       	sbci	r29, 0x00	; 0
    4fda:	c6 56       	subi	r28, 0x66	; 102
    4fdc:	df 4f       	sbci	r29, 0xFF	; 255
    4fde:	e8 80       	ld	r14, Y
    4fe0:	ca 59       	subi	r28, 0x9A	; 154
    4fe2:	d0 40       	sbci	r29, 0x00	; 0
    4fe4:	c5 56       	subi	r28, 0x65	; 101
    4fe6:	df 4f       	sbci	r29, 0xFF	; 255
    4fe8:	f8 80       	ld	r15, Y
    4fea:	cb 59       	subi	r28, 0x9B	; 155
    4fec:	d0 40       	sbci	r29, 0x00	; 0
    4fee:	c4 56       	subi	r28, 0x64	; 100
    4ff0:	df 4f       	sbci	r29, 0xFF	; 255
    4ff2:	08 81       	ld	r16, Y
    4ff4:	cc 59       	subi	r28, 0x9C	; 156
    4ff6:	d0 40       	sbci	r29, 0x00	; 0
    4ff8:	c3 56       	subi	r28, 0x63	; 99
    4ffa:	df 4f       	sbci	r29, 0xFF	; 255
    4ffc:	18 81       	ld	r17, Y
    4ffe:	cd 59       	subi	r28, 0x9D	; 157
    5000:	d0 40       	sbci	r29, 0x00	; 0
    5002:	0e 94 98 39 	call	0x7330	; 0x7330 <__adddi3>
    5006:	82 2e       	mov	r8, r18
    5008:	93 2e       	mov	r9, r19
    500a:	a4 2e       	mov	r10, r20
    500c:	b5 2e       	mov	r11, r21
    500e:	c6 2e       	mov	r12, r22
    5010:	d7 2e       	mov	r13, r23
    5012:	e8 2e       	mov	r14, r24
    5014:	f9 2e       	mov	r15, r25
    5016:	28 2d       	mov	r18, r8
    5018:	39 2d       	mov	r19, r9
    501a:	4a 2d       	mov	r20, r10
    501c:	5b 2d       	mov	r21, r11
    501e:	6c 2d       	mov	r22, r12
    5020:	7d 2d       	mov	r23, r13
    5022:	8e 2d       	mov	r24, r14
    5024:	9f 2d       	mov	r25, r15
    5026:	02 e0       	ldi	r16, 0x02	; 2
    5028:	0e 94 89 39 	call	0x7312	; 0x7312 <__ashldi3>
    502c:	c2 56       	subi	r28, 0x62	; 98
    502e:	df 4f       	sbci	r29, 0xFF	; 255
    5030:	28 83       	st	Y, r18
    5032:	ce 59       	subi	r28, 0x9E	; 158
    5034:	d0 40       	sbci	r29, 0x00	; 0
    5036:	c1 56       	subi	r28, 0x61	; 97
    5038:	df 4f       	sbci	r29, 0xFF	; 255
    503a:	38 83       	st	Y, r19
    503c:	cf 59       	subi	r28, 0x9F	; 159
    503e:	d0 40       	sbci	r29, 0x00	; 0
    5040:	c0 56       	subi	r28, 0x60	; 96
    5042:	df 4f       	sbci	r29, 0xFF	; 255
    5044:	48 83       	st	Y, r20
    5046:	c0 5a       	subi	r28, 0xA0	; 160
    5048:	d0 40       	sbci	r29, 0x00	; 0
    504a:	cf 55       	subi	r28, 0x5F	; 95
    504c:	df 4f       	sbci	r29, 0xFF	; 255
    504e:	58 83       	st	Y, r21
    5050:	c1 5a       	subi	r28, 0xA1	; 161
    5052:	d0 40       	sbci	r29, 0x00	; 0
    5054:	ce 55       	subi	r28, 0x5E	; 94
    5056:	df 4f       	sbci	r29, 0xFF	; 255
    5058:	68 83       	st	Y, r22
    505a:	c2 5a       	subi	r28, 0xA2	; 162
    505c:	d0 40       	sbci	r29, 0x00	; 0
    505e:	cd 55       	subi	r28, 0x5D	; 93
    5060:	df 4f       	sbci	r29, 0xFF	; 255
    5062:	78 83       	st	Y, r23
    5064:	c3 5a       	subi	r28, 0xA3	; 163
    5066:	d0 40       	sbci	r29, 0x00	; 0
    5068:	cc 55       	subi	r28, 0x5C	; 92
    506a:	df 4f       	sbci	r29, 0xFF	; 255
    506c:	88 83       	st	Y, r24
    506e:	c4 5a       	subi	r28, 0xA4	; 164
    5070:	d0 40       	sbci	r29, 0x00	; 0
    5072:	cb 55       	subi	r28, 0x5B	; 91
    5074:	df 4f       	sbci	r29, 0xFF	; 255
    5076:	98 83       	st	Y, r25
    5078:	c5 5a       	subi	r28, 0xA5	; 165
    507a:	d0 40       	sbci	r29, 0x00	; 0
    507c:	28 2d       	mov	r18, r8
    507e:	39 2d       	mov	r19, r9
    5080:	4a 2d       	mov	r20, r10
    5082:	5b 2d       	mov	r21, r11
    5084:	6c 2d       	mov	r22, r12
    5086:	7d 2d       	mov	r23, r13
    5088:	8e 2d       	mov	r24, r14
    508a:	9f 2d       	mov	r25, r15
    508c:	c2 56       	subi	r28, 0x62	; 98
    508e:	df 4f       	sbci	r29, 0xFF	; 255
    5090:	a8 80       	ld	r10, Y
    5092:	ce 59       	subi	r28, 0x9E	; 158
    5094:	d0 40       	sbci	r29, 0x00	; 0
    5096:	c1 56       	subi	r28, 0x61	; 97
    5098:	df 4f       	sbci	r29, 0xFF	; 255
    509a:	b8 80       	ld	r11, Y
    509c:	cf 59       	subi	r28, 0x9F	; 159
    509e:	d0 40       	sbci	r29, 0x00	; 0
    50a0:	c0 56       	subi	r28, 0x60	; 96
    50a2:	df 4f       	sbci	r29, 0xFF	; 255
    50a4:	c8 80       	ld	r12, Y
    50a6:	c0 5a       	subi	r28, 0xA0	; 160
    50a8:	d0 40       	sbci	r29, 0x00	; 0
    50aa:	cf 55       	subi	r28, 0x5F	; 95
    50ac:	df 4f       	sbci	r29, 0xFF	; 255
    50ae:	d8 80       	ld	r13, Y
    50b0:	c1 5a       	subi	r28, 0xA1	; 161
    50b2:	d0 40       	sbci	r29, 0x00	; 0
    50b4:	ce 55       	subi	r28, 0x5E	; 94
    50b6:	df 4f       	sbci	r29, 0xFF	; 255
    50b8:	e8 80       	ld	r14, Y
    50ba:	c2 5a       	subi	r28, 0xA2	; 162
    50bc:	d0 40       	sbci	r29, 0x00	; 0
    50be:	cd 55       	subi	r28, 0x5D	; 93
    50c0:	df 4f       	sbci	r29, 0xFF	; 255
    50c2:	f8 80       	ld	r15, Y
    50c4:	c3 5a       	subi	r28, 0xA3	; 163
    50c6:	d0 40       	sbci	r29, 0x00	; 0
    50c8:	cc 55       	subi	r28, 0x5C	; 92
    50ca:	df 4f       	sbci	r29, 0xFF	; 255
    50cc:	08 81       	ld	r16, Y
    50ce:	c4 5a       	subi	r28, 0xA4	; 164
    50d0:	d0 40       	sbci	r29, 0x00	; 0
    50d2:	cb 55       	subi	r28, 0x5B	; 91
    50d4:	df 4f       	sbci	r29, 0xFF	; 255
    50d6:	18 81       	ld	r17, Y
    50d8:	c5 5a       	subi	r28, 0xA5	; 165
    50da:	d0 40       	sbci	r29, 0x00	; 0
    50dc:	0e 94 98 39 	call	0x7330	; 0x7330 <__adddi3>
    50e0:	a2 2e       	mov	r10, r18
    50e2:	b3 2e       	mov	r11, r19
    50e4:	c4 2e       	mov	r12, r20
    50e6:	d5 2e       	mov	r13, r21
    50e8:	e6 2e       	mov	r14, r22
    50ea:	f7 2e       	mov	r15, r23
    50ec:	08 2f       	mov	r16, r24
    50ee:	19 2f       	mov	r17, r25
    50f0:	2a 2d       	mov	r18, r10
    50f2:	3b 2d       	mov	r19, r11
    50f4:	4c 2d       	mov	r20, r12
    50f6:	5d 2d       	mov	r21, r13
    50f8:	6e 2d       	mov	r22, r14
    50fa:	7f 2d       	mov	r23, r15
    50fc:	80 2f       	mov	r24, r16
    50fe:	91 2f       	mov	r25, r17
    5100:	29 51       	subi	r18, 0x19	; 25
    5102:	3c 4f       	sbci	r19, 0xFC	; 252
    5104:	4f 4f       	sbci	r20, 0xFF	; 255
    5106:	5f 4f       	sbci	r21, 0xFF	; 255
    5108:	6f 4f       	sbci	r22, 0xFF	; 255
    510a:	7f 4f       	sbci	r23, 0xFF	; 255
    510c:	8f 4f       	sbci	r24, 0xFF	; 255
    510e:	9f 4f       	sbci	r25, 0xFF	; 255
    5110:	a2 2e       	mov	r10, r18
    5112:	b3 2e       	mov	r11, r19
    5114:	c4 2e       	mov	r12, r20
    5116:	d5 2e       	mov	r13, r21
    5118:	e6 2e       	mov	r14, r22
    511a:	f7 2e       	mov	r15, r23
    511c:	08 2f       	mov	r16, r24
    511e:	19 2f       	mov	r17, r25
    5120:	2a 2d       	mov	r18, r10
    5122:	3b 2d       	mov	r19, r11
    5124:	4c 2d       	mov	r20, r12
    5126:	5d 2d       	mov	r21, r13
    5128:	6e 2d       	mov	r22, r14
    512a:	7f 2d       	mov	r23, r15
    512c:	80 2f       	mov	r24, r16
    512e:	91 2f       	mov	r25, r17
    5130:	0e 94 f6 01 	call	0x3ec	; 0x3ec <__floatundisf>
    5134:	dc 01       	movw	r26, r24
    5136:	cb 01       	movw	r24, r22
    5138:	20 e0       	ldi	r18, 0x00	; 0
    513a:	30 e8       	ldi	r19, 0x80	; 128
    513c:	4b eb       	ldi	r20, 0xBB	; 187
    513e:	55 e4       	ldi	r21, 0x45	; 69
    5140:	bc 01       	movw	r22, r24
    5142:	cd 01       	movw	r24, r26
    5144:	0e 94 71 03 	call	0x6e2	; 0x6e2 <__divsf3>
    5148:	dc 01       	movw	r26, r24
    514a:	cb 01       	movw	r24, r22
    514c:	bc 01       	movw	r22, r24
    514e:	cd 01       	movw	r24, r26
    5150:	0e 94 45 01 	call	0x28a	; 0x28a <__fixunssfdi>
    5154:	a2 2e       	mov	r10, r18
    5156:	b3 2e       	mov	r11, r19
    5158:	c4 2e       	mov	r12, r20
    515a:	d5 2e       	mov	r13, r21
    515c:	e6 2e       	mov	r14, r22
    515e:	f7 2e       	mov	r15, r23
    5160:	08 2f       	mov	r16, r24
    5162:	19 2f       	mov	r17, r25
    5164:	d6 01       	movw	r26, r12
    5166:	c5 01       	movw	r24, r10
    5168:	bc 01       	movw	r22, r24
    516a:	cd 01       	movw	r24, r26
    516c:	0e 94 bf 17 	call	0x2f7e	; 0x2f7e <__portable_avr_delay_cycles>
	showMeByte(1);
    5170:	81 e0       	ldi	r24, 0x01	; 1
    5172:	0e 94 66 1b 	call	0x36cc	; 0x36cc <showMeByte>
	delay_ms(50);
    5176:	0e 94 b3 17 	call	0x2f66	; 0x2f66 <sysclk_get_cpu_hz>
    517a:	dc 01       	movw	r26, r24
    517c:	cb 01       	movw	r24, r22
    517e:	9c 01       	movw	r18, r24
    5180:	ad 01       	movw	r20, r26
    5182:	60 e0       	ldi	r22, 0x00	; 0
    5184:	70 e0       	ldi	r23, 0x00	; 0
    5186:	cb 01       	movw	r24, r22
    5188:	82 2e       	mov	r8, r18
    518a:	93 2e       	mov	r9, r19
    518c:	a4 2e       	mov	r10, r20
    518e:	b5 2e       	mov	r11, r21
    5190:	c6 2e       	mov	r12, r22
    5192:	d7 2e       	mov	r13, r23
    5194:	e8 2e       	mov	r14, r24
    5196:	f9 2e       	mov	r15, r25
    5198:	28 2d       	mov	r18, r8
    519a:	39 2d       	mov	r19, r9
    519c:	4a 2d       	mov	r20, r10
    519e:	5b 2d       	mov	r21, r11
    51a0:	6c 2d       	mov	r22, r12
    51a2:	7d 2d       	mov	r23, r13
    51a4:	8e 2d       	mov	r24, r14
    51a6:	9f 2d       	mov	r25, r15
    51a8:	01 e0       	ldi	r16, 0x01	; 1
    51aa:	0e 94 89 39 	call	0x7312	; 0x7312 <__ashldi3>
    51ae:	ca 55       	subi	r28, 0x5A	; 90
    51b0:	df 4f       	sbci	r29, 0xFF	; 255
    51b2:	28 83       	st	Y, r18
    51b4:	c6 5a       	subi	r28, 0xA6	; 166
    51b6:	d0 40       	sbci	r29, 0x00	; 0
    51b8:	c9 55       	subi	r28, 0x59	; 89
    51ba:	df 4f       	sbci	r29, 0xFF	; 255
    51bc:	38 83       	st	Y, r19
    51be:	c7 5a       	subi	r28, 0xA7	; 167
    51c0:	d0 40       	sbci	r29, 0x00	; 0
    51c2:	c8 55       	subi	r28, 0x58	; 88
    51c4:	df 4f       	sbci	r29, 0xFF	; 255
    51c6:	48 83       	st	Y, r20
    51c8:	c8 5a       	subi	r28, 0xA8	; 168
    51ca:	d0 40       	sbci	r29, 0x00	; 0
    51cc:	c7 55       	subi	r28, 0x57	; 87
    51ce:	df 4f       	sbci	r29, 0xFF	; 255
    51d0:	58 83       	st	Y, r21
    51d2:	c9 5a       	subi	r28, 0xA9	; 169
    51d4:	d0 40       	sbci	r29, 0x00	; 0
    51d6:	c6 55       	subi	r28, 0x56	; 86
    51d8:	df 4f       	sbci	r29, 0xFF	; 255
    51da:	68 83       	st	Y, r22
    51dc:	ca 5a       	subi	r28, 0xAA	; 170
    51de:	d0 40       	sbci	r29, 0x00	; 0
    51e0:	c5 55       	subi	r28, 0x55	; 85
    51e2:	df 4f       	sbci	r29, 0xFF	; 255
    51e4:	78 83       	st	Y, r23
    51e6:	cb 5a       	subi	r28, 0xAB	; 171
    51e8:	d0 40       	sbci	r29, 0x00	; 0
    51ea:	c4 55       	subi	r28, 0x54	; 84
    51ec:	df 4f       	sbci	r29, 0xFF	; 255
    51ee:	88 83       	st	Y, r24
    51f0:	cc 5a       	subi	r28, 0xAC	; 172
    51f2:	d0 40       	sbci	r29, 0x00	; 0
    51f4:	c3 55       	subi	r28, 0x53	; 83
    51f6:	df 4f       	sbci	r29, 0xFF	; 255
    51f8:	98 83       	st	Y, r25
    51fa:	cd 5a       	subi	r28, 0xAD	; 173
    51fc:	d0 40       	sbci	r29, 0x00	; 0
    51fe:	ca 55       	subi	r28, 0x5A	; 90
    5200:	df 4f       	sbci	r29, 0xFF	; 255
    5202:	88 80       	ld	r8, Y
    5204:	c6 5a       	subi	r28, 0xA6	; 166
    5206:	d0 40       	sbci	r29, 0x00	; 0
    5208:	c9 55       	subi	r28, 0x59	; 89
    520a:	df 4f       	sbci	r29, 0xFF	; 255
    520c:	98 80       	ld	r9, Y
    520e:	c7 5a       	subi	r28, 0xA7	; 167
    5210:	d0 40       	sbci	r29, 0x00	; 0
    5212:	c8 55       	subi	r28, 0x58	; 88
    5214:	df 4f       	sbci	r29, 0xFF	; 255
    5216:	a8 80       	ld	r10, Y
    5218:	c8 5a       	subi	r28, 0xA8	; 168
    521a:	d0 40       	sbci	r29, 0x00	; 0
    521c:	c7 55       	subi	r28, 0x57	; 87
    521e:	df 4f       	sbci	r29, 0xFF	; 255
    5220:	b8 80       	ld	r11, Y
    5222:	c9 5a       	subi	r28, 0xA9	; 169
    5224:	d0 40       	sbci	r29, 0x00	; 0
    5226:	c6 55       	subi	r28, 0x56	; 86
    5228:	df 4f       	sbci	r29, 0xFF	; 255
    522a:	c8 80       	ld	r12, Y
    522c:	ca 5a       	subi	r28, 0xAA	; 170
    522e:	d0 40       	sbci	r29, 0x00	; 0
    5230:	c5 55       	subi	r28, 0x55	; 85
    5232:	df 4f       	sbci	r29, 0xFF	; 255
    5234:	d8 80       	ld	r13, Y
    5236:	cb 5a       	subi	r28, 0xAB	; 171
    5238:	d0 40       	sbci	r29, 0x00	; 0
    523a:	c4 55       	subi	r28, 0x54	; 84
    523c:	df 4f       	sbci	r29, 0xFF	; 255
    523e:	e8 80       	ld	r14, Y
    5240:	cc 5a       	subi	r28, 0xAC	; 172
    5242:	d0 40       	sbci	r29, 0x00	; 0
    5244:	c3 55       	subi	r28, 0x53	; 83
    5246:	df 4f       	sbci	r29, 0xFF	; 255
    5248:	f8 80       	ld	r15, Y
    524a:	cd 5a       	subi	r28, 0xAD	; 173
    524c:	d0 40       	sbci	r29, 0x00	; 0
    524e:	28 2d       	mov	r18, r8
    5250:	39 2d       	mov	r19, r9
    5252:	4a 2d       	mov	r20, r10
    5254:	5b 2d       	mov	r21, r11
    5256:	6c 2d       	mov	r22, r12
    5258:	7d 2d       	mov	r23, r13
    525a:	8e 2d       	mov	r24, r14
    525c:	9f 2d       	mov	r25, r15
    525e:	02 e0       	ldi	r16, 0x02	; 2
    5260:	0e 94 89 39 	call	0x7312	; 0x7312 <__ashldi3>
    5264:	c2 55       	subi	r28, 0x52	; 82
    5266:	df 4f       	sbci	r29, 0xFF	; 255
    5268:	28 83       	st	Y, r18
    526a:	ce 5a       	subi	r28, 0xAE	; 174
    526c:	d0 40       	sbci	r29, 0x00	; 0
    526e:	c1 55       	subi	r28, 0x51	; 81
    5270:	df 4f       	sbci	r29, 0xFF	; 255
    5272:	38 83       	st	Y, r19
    5274:	cf 5a       	subi	r28, 0xAF	; 175
    5276:	d0 40       	sbci	r29, 0x00	; 0
    5278:	c0 55       	subi	r28, 0x50	; 80
    527a:	df 4f       	sbci	r29, 0xFF	; 255
    527c:	48 83       	st	Y, r20
    527e:	c0 5b       	subi	r28, 0xB0	; 176
    5280:	d0 40       	sbci	r29, 0x00	; 0
    5282:	cf 54       	subi	r28, 0x4F	; 79
    5284:	df 4f       	sbci	r29, 0xFF	; 255
    5286:	58 83       	st	Y, r21
    5288:	c1 5b       	subi	r28, 0xB1	; 177
    528a:	d0 40       	sbci	r29, 0x00	; 0
    528c:	ce 54       	subi	r28, 0x4E	; 78
    528e:	df 4f       	sbci	r29, 0xFF	; 255
    5290:	68 83       	st	Y, r22
    5292:	c2 5b       	subi	r28, 0xB2	; 178
    5294:	d0 40       	sbci	r29, 0x00	; 0
    5296:	cd 54       	subi	r28, 0x4D	; 77
    5298:	df 4f       	sbci	r29, 0xFF	; 255
    529a:	78 83       	st	Y, r23
    529c:	c3 5b       	subi	r28, 0xB3	; 179
    529e:	d0 40       	sbci	r29, 0x00	; 0
    52a0:	cc 54       	subi	r28, 0x4C	; 76
    52a2:	df 4f       	sbci	r29, 0xFF	; 255
    52a4:	88 83       	st	Y, r24
    52a6:	c4 5b       	subi	r28, 0xB4	; 180
    52a8:	d0 40       	sbci	r29, 0x00	; 0
    52aa:	cb 54       	subi	r28, 0x4B	; 75
    52ac:	df 4f       	sbci	r29, 0xFF	; 255
    52ae:	98 83       	st	Y, r25
    52b0:	c5 5b       	subi	r28, 0xB5	; 181
    52b2:	d0 40       	sbci	r29, 0x00	; 0
    52b4:	28 2d       	mov	r18, r8
    52b6:	39 2d       	mov	r19, r9
    52b8:	4a 2d       	mov	r20, r10
    52ba:	5b 2d       	mov	r21, r11
    52bc:	6c 2d       	mov	r22, r12
    52be:	7d 2d       	mov	r23, r13
    52c0:	8e 2d       	mov	r24, r14
    52c2:	9f 2d       	mov	r25, r15
    52c4:	c2 55       	subi	r28, 0x52	; 82
    52c6:	df 4f       	sbci	r29, 0xFF	; 255
    52c8:	a8 80       	ld	r10, Y
    52ca:	ce 5a       	subi	r28, 0xAE	; 174
    52cc:	d0 40       	sbci	r29, 0x00	; 0
    52ce:	c1 55       	subi	r28, 0x51	; 81
    52d0:	df 4f       	sbci	r29, 0xFF	; 255
    52d2:	b8 80       	ld	r11, Y
    52d4:	cf 5a       	subi	r28, 0xAF	; 175
    52d6:	d0 40       	sbci	r29, 0x00	; 0
    52d8:	c0 55       	subi	r28, 0x50	; 80
    52da:	df 4f       	sbci	r29, 0xFF	; 255
    52dc:	c8 80       	ld	r12, Y
    52de:	c0 5b       	subi	r28, 0xB0	; 176
    52e0:	d0 40       	sbci	r29, 0x00	; 0
    52e2:	cf 54       	subi	r28, 0x4F	; 79
    52e4:	df 4f       	sbci	r29, 0xFF	; 255
    52e6:	d8 80       	ld	r13, Y
    52e8:	c1 5b       	subi	r28, 0xB1	; 177
    52ea:	d0 40       	sbci	r29, 0x00	; 0
    52ec:	ce 54       	subi	r28, 0x4E	; 78
    52ee:	df 4f       	sbci	r29, 0xFF	; 255
    52f0:	e8 80       	ld	r14, Y
    52f2:	c2 5b       	subi	r28, 0xB2	; 178
    52f4:	d0 40       	sbci	r29, 0x00	; 0
    52f6:	cd 54       	subi	r28, 0x4D	; 77
    52f8:	df 4f       	sbci	r29, 0xFF	; 255
    52fa:	f8 80       	ld	r15, Y
    52fc:	c3 5b       	subi	r28, 0xB3	; 179
    52fe:	d0 40       	sbci	r29, 0x00	; 0
    5300:	cc 54       	subi	r28, 0x4C	; 76
    5302:	df 4f       	sbci	r29, 0xFF	; 255
    5304:	08 81       	ld	r16, Y
    5306:	c4 5b       	subi	r28, 0xB4	; 180
    5308:	d0 40       	sbci	r29, 0x00	; 0
    530a:	cb 54       	subi	r28, 0x4B	; 75
    530c:	df 4f       	sbci	r29, 0xFF	; 255
    530e:	18 81       	ld	r17, Y
    5310:	c5 5b       	subi	r28, 0xB5	; 181
    5312:	d0 40       	sbci	r29, 0x00	; 0
    5314:	0e 94 98 39 	call	0x7330	; 0x7330 <__adddi3>
    5318:	82 2e       	mov	r8, r18
    531a:	93 2e       	mov	r9, r19
    531c:	a4 2e       	mov	r10, r20
    531e:	b5 2e       	mov	r11, r21
    5320:	c6 2e       	mov	r12, r22
    5322:	d7 2e       	mov	r13, r23
    5324:	e8 2e       	mov	r14, r24
    5326:	f9 2e       	mov	r15, r25
    5328:	28 2d       	mov	r18, r8
    532a:	39 2d       	mov	r19, r9
    532c:	4a 2d       	mov	r20, r10
    532e:	5b 2d       	mov	r21, r11
    5330:	6c 2d       	mov	r22, r12
    5332:	7d 2d       	mov	r23, r13
    5334:	8e 2d       	mov	r24, r14
    5336:	9f 2d       	mov	r25, r15
    5338:	02 e0       	ldi	r16, 0x02	; 2
    533a:	0e 94 89 39 	call	0x7312	; 0x7312 <__ashldi3>
    533e:	ca 54       	subi	r28, 0x4A	; 74
    5340:	df 4f       	sbci	r29, 0xFF	; 255
    5342:	28 83       	st	Y, r18
    5344:	c6 5b       	subi	r28, 0xB6	; 182
    5346:	d0 40       	sbci	r29, 0x00	; 0
    5348:	c9 54       	subi	r28, 0x49	; 73
    534a:	df 4f       	sbci	r29, 0xFF	; 255
    534c:	38 83       	st	Y, r19
    534e:	c7 5b       	subi	r28, 0xB7	; 183
    5350:	d0 40       	sbci	r29, 0x00	; 0
    5352:	c8 54       	subi	r28, 0x48	; 72
    5354:	df 4f       	sbci	r29, 0xFF	; 255
    5356:	48 83       	st	Y, r20
    5358:	c8 5b       	subi	r28, 0xB8	; 184
    535a:	d0 40       	sbci	r29, 0x00	; 0
    535c:	c7 54       	subi	r28, 0x47	; 71
    535e:	df 4f       	sbci	r29, 0xFF	; 255
    5360:	58 83       	st	Y, r21
    5362:	c9 5b       	subi	r28, 0xB9	; 185
    5364:	d0 40       	sbci	r29, 0x00	; 0
    5366:	c6 54       	subi	r28, 0x46	; 70
    5368:	df 4f       	sbci	r29, 0xFF	; 255
    536a:	68 83       	st	Y, r22
    536c:	ca 5b       	subi	r28, 0xBA	; 186
    536e:	d0 40       	sbci	r29, 0x00	; 0
    5370:	c5 54       	subi	r28, 0x45	; 69
    5372:	df 4f       	sbci	r29, 0xFF	; 255
    5374:	78 83       	st	Y, r23
    5376:	cb 5b       	subi	r28, 0xBB	; 187
    5378:	d0 40       	sbci	r29, 0x00	; 0
    537a:	c4 54       	subi	r28, 0x44	; 68
    537c:	df 4f       	sbci	r29, 0xFF	; 255
    537e:	88 83       	st	Y, r24
    5380:	cc 5b       	subi	r28, 0xBC	; 188
    5382:	d0 40       	sbci	r29, 0x00	; 0
    5384:	c3 54       	subi	r28, 0x43	; 67
    5386:	df 4f       	sbci	r29, 0xFF	; 255
    5388:	98 83       	st	Y, r25
    538a:	cd 5b       	subi	r28, 0xBD	; 189
    538c:	d0 40       	sbci	r29, 0x00	; 0
    538e:	28 2d       	mov	r18, r8
    5390:	39 2d       	mov	r19, r9
    5392:	4a 2d       	mov	r20, r10
    5394:	5b 2d       	mov	r21, r11
    5396:	6c 2d       	mov	r22, r12
    5398:	7d 2d       	mov	r23, r13
    539a:	8e 2d       	mov	r24, r14
    539c:	9f 2d       	mov	r25, r15
    539e:	ca 54       	subi	r28, 0x4A	; 74
    53a0:	df 4f       	sbci	r29, 0xFF	; 255
    53a2:	a8 80       	ld	r10, Y
    53a4:	c6 5b       	subi	r28, 0xB6	; 182
    53a6:	d0 40       	sbci	r29, 0x00	; 0
    53a8:	c9 54       	subi	r28, 0x49	; 73
    53aa:	df 4f       	sbci	r29, 0xFF	; 255
    53ac:	b8 80       	ld	r11, Y
    53ae:	c7 5b       	subi	r28, 0xB7	; 183
    53b0:	d0 40       	sbci	r29, 0x00	; 0
    53b2:	c8 54       	subi	r28, 0x48	; 72
    53b4:	df 4f       	sbci	r29, 0xFF	; 255
    53b6:	c8 80       	ld	r12, Y
    53b8:	c8 5b       	subi	r28, 0xB8	; 184
    53ba:	d0 40       	sbci	r29, 0x00	; 0
    53bc:	c7 54       	subi	r28, 0x47	; 71
    53be:	df 4f       	sbci	r29, 0xFF	; 255
    53c0:	d8 80       	ld	r13, Y
    53c2:	c9 5b       	subi	r28, 0xB9	; 185
    53c4:	d0 40       	sbci	r29, 0x00	; 0
    53c6:	c6 54       	subi	r28, 0x46	; 70
    53c8:	df 4f       	sbci	r29, 0xFF	; 255
    53ca:	e8 80       	ld	r14, Y
    53cc:	ca 5b       	subi	r28, 0xBA	; 186
    53ce:	d0 40       	sbci	r29, 0x00	; 0
    53d0:	c5 54       	subi	r28, 0x45	; 69
    53d2:	df 4f       	sbci	r29, 0xFF	; 255
    53d4:	f8 80       	ld	r15, Y
    53d6:	cb 5b       	subi	r28, 0xBB	; 187
    53d8:	d0 40       	sbci	r29, 0x00	; 0
    53da:	c4 54       	subi	r28, 0x44	; 68
    53dc:	df 4f       	sbci	r29, 0xFF	; 255
    53de:	08 81       	ld	r16, Y
    53e0:	cc 5b       	subi	r28, 0xBC	; 188
    53e2:	d0 40       	sbci	r29, 0x00	; 0
    53e4:	c3 54       	subi	r28, 0x43	; 67
    53e6:	df 4f       	sbci	r29, 0xFF	; 255
    53e8:	18 81       	ld	r17, Y
    53ea:	cd 5b       	subi	r28, 0xBD	; 189
    53ec:	d0 40       	sbci	r29, 0x00	; 0
    53ee:	0e 94 98 39 	call	0x7330	; 0x7330 <__adddi3>
    53f2:	a2 2e       	mov	r10, r18
    53f4:	b3 2e       	mov	r11, r19
    53f6:	c4 2e       	mov	r12, r20
    53f8:	d5 2e       	mov	r13, r21
    53fa:	e6 2e       	mov	r14, r22
    53fc:	f7 2e       	mov	r15, r23
    53fe:	08 2f       	mov	r16, r24
    5400:	19 2f       	mov	r17, r25
    5402:	2a 2d       	mov	r18, r10
    5404:	3b 2d       	mov	r19, r11
    5406:	4c 2d       	mov	r20, r12
    5408:	5d 2d       	mov	r21, r13
    540a:	6e 2d       	mov	r22, r14
    540c:	7f 2d       	mov	r23, r15
    540e:	80 2f       	mov	r24, r16
    5410:	91 2f       	mov	r25, r17
    5412:	29 51       	subi	r18, 0x19	; 25
    5414:	3c 4f       	sbci	r19, 0xFC	; 252
    5416:	4f 4f       	sbci	r20, 0xFF	; 255
    5418:	5f 4f       	sbci	r21, 0xFF	; 255
    541a:	6f 4f       	sbci	r22, 0xFF	; 255
    541c:	7f 4f       	sbci	r23, 0xFF	; 255
    541e:	8f 4f       	sbci	r24, 0xFF	; 255
    5420:	9f 4f       	sbci	r25, 0xFF	; 255
    5422:	a2 2e       	mov	r10, r18
    5424:	b3 2e       	mov	r11, r19
    5426:	c4 2e       	mov	r12, r20
    5428:	d5 2e       	mov	r13, r21
    542a:	e6 2e       	mov	r14, r22
    542c:	f7 2e       	mov	r15, r23
    542e:	08 2f       	mov	r16, r24
    5430:	19 2f       	mov	r17, r25
    5432:	2a 2d       	mov	r18, r10
    5434:	3b 2d       	mov	r19, r11
    5436:	4c 2d       	mov	r20, r12
    5438:	5d 2d       	mov	r21, r13
    543a:	6e 2d       	mov	r22, r14
    543c:	7f 2d       	mov	r23, r15
    543e:	80 2f       	mov	r24, r16
    5440:	91 2f       	mov	r25, r17
    5442:	0e 94 f6 01 	call	0x3ec	; 0x3ec <__floatundisf>
    5446:	dc 01       	movw	r26, r24
    5448:	cb 01       	movw	r24, r22
    544a:	20 e0       	ldi	r18, 0x00	; 0
    544c:	30 e8       	ldi	r19, 0x80	; 128
    544e:	4b eb       	ldi	r20, 0xBB	; 187
    5450:	55 e4       	ldi	r21, 0x45	; 69
    5452:	bc 01       	movw	r22, r24
    5454:	cd 01       	movw	r24, r26
    5456:	0e 94 71 03 	call	0x6e2	; 0x6e2 <__divsf3>
    545a:	dc 01       	movw	r26, r24
    545c:	cb 01       	movw	r24, r22
    545e:	bc 01       	movw	r22, r24
    5460:	cd 01       	movw	r24, r26
    5462:	0e 94 45 01 	call	0x28a	; 0x28a <__fixunssfdi>
    5466:	a2 2e       	mov	r10, r18
    5468:	b3 2e       	mov	r11, r19
    546a:	c4 2e       	mov	r12, r20
    546c:	d5 2e       	mov	r13, r21
    546e:	e6 2e       	mov	r14, r22
    5470:	f7 2e       	mov	r15, r23
    5472:	08 2f       	mov	r16, r24
    5474:	19 2f       	mov	r17, r25
    5476:	d6 01       	movw	r26, r12
    5478:	c5 01       	movw	r24, r10
    547a:	bc 01       	movw	r22, r24
    547c:	cd 01       	movw	r24, r26
    547e:	0e 94 bf 17 	call	0x2f7e	; 0x2f7e <__portable_avr_delay_cycles>
	showMeByte(0);
    5482:	80 e0       	ldi	r24, 0x00	; 0
    5484:	0e 94 66 1b 	call	0x36cc	; 0x36cc <showMeByte>
	// 
	COA_setStatus_ready;
    5488:	10 92 6b 20 	sts	0x206B, r1
	MC_status = 1;						// 
    548c:	81 e0       	ldi	r24, 0x01	; 1
    548e:	80 93 52 20 	sts	0x2052, r24
	MC_error = 1;						// 
    5492:	81 e0       	ldi	r24, 0x01	; 1
    5494:	80 93 53 20 	sts	0x2053, r24
	cpu_irq_enable();					// 	
    5498:	78 94       	sei
	// 

	//FATAL_transmit_ERROR;
	while (1) 
	{
		switch (MC_status)
    549a:	80 91 52 20 	lds	r24, 0x2052
    549e:	88 2f       	mov	r24, r24
    54a0:	90 e0       	ldi	r25, 0x00	; 0
    54a2:	82 30       	cpi	r24, 0x02	; 2
    54a4:	91 05       	cpc	r25, r1
    54a6:	11 f4       	brne	.+4      	; 0x54ac <main+0xeea>
    54a8:	0c 94 7d 38 	jmp	0x70fa	; 0x70fa <main+0x2b38>
    54ac:	83 30       	cpi	r24, 0x03	; 3
    54ae:	91 05       	cpc	r25, r1
    54b0:	2c f4       	brge	.+10     	; 0x54bc <main+0xefa>
    54b2:	81 30       	cpi	r24, 0x01	; 1
    54b4:	91 05       	cpc	r25, r1
    54b6:	69 f0       	breq	.+26     	; 0x54d2 <main+0xf10>
    54b8:	0c 94 80 38 	jmp	0x7100	; 0x7100 <main+0x2b3e>
    54bc:	83 30       	cpi	r24, 0x03	; 3
    54be:	91 05       	cpc	r25, r1
    54c0:	11 f4       	brne	.+4      	; 0x54c6 <main+0xf04>
    54c2:	0c 94 7f 38 	jmp	0x70fe	; 0x70fe <main+0x2b3c>
    54c6:	84 30       	cpi	r24, 0x04	; 4
    54c8:	91 05       	cpc	r25, r1
    54ca:	09 f4       	brne	.+2      	; 0x54ce <main+0xf0c>
    54cc:	8d c1       	rjmp	.+794    	; 0x57e8 <main+0x1226>
    54ce:	0c 94 80 38 	jmp	0x7100	; 0x7100 <main+0x2b3e>
		{
			case 1: delay_ms(1000);
    54d2:	0e 94 b3 17 	call	0x2f66	; 0x2f66 <sysclk_get_cpu_hz>
    54d6:	dc 01       	movw	r26, r24
    54d8:	cb 01       	movw	r24, r22
    54da:	8c 01       	movw	r16, r24
    54dc:	9d 01       	movw	r18, r26
    54de:	40 e0       	ldi	r20, 0x00	; 0
    54e0:	50 e0       	ldi	r21, 0x00	; 0
    54e2:	ba 01       	movw	r22, r20
    54e4:	0e 83       	std	Y+6, r16	; 0x06
    54e6:	1f 83       	std	Y+7, r17	; 0x07
    54e8:	28 87       	std	Y+8, r18	; 0x08
    54ea:	39 87       	std	Y+9, r19	; 0x09
    54ec:	4a 87       	std	Y+10, r20	; 0x0a
    54ee:	5b 87       	std	Y+11, r21	; 0x0b
    54f0:	6c 87       	std	Y+12, r22	; 0x0c
    54f2:	7d 87       	std	Y+13, r23	; 0x0d
    54f4:	1e 81       	ldd	r17, Y+6	; 0x06
    54f6:	c2 54       	subi	r28, 0x42	; 66
    54f8:	df 4f       	sbci	r29, 0xFF	; 255
    54fa:	18 83       	st	Y, r17
    54fc:	ce 5b       	subi	r28, 0xBE	; 190
    54fe:	d0 40       	sbci	r29, 0x00	; 0
    5500:	2f 81       	ldd	r18, Y+7	; 0x07
    5502:	c1 54       	subi	r28, 0x41	; 65
    5504:	df 4f       	sbci	r29, 0xFF	; 255
    5506:	28 83       	st	Y, r18
    5508:	cf 5b       	subi	r28, 0xBF	; 191
    550a:	d0 40       	sbci	r29, 0x00	; 0
    550c:	38 85       	ldd	r19, Y+8	; 0x08
    550e:	c0 54       	subi	r28, 0x40	; 64
    5510:	df 4f       	sbci	r29, 0xFF	; 255
    5512:	38 83       	st	Y, r19
    5514:	c0 5c       	subi	r28, 0xC0	; 192
    5516:	d0 40       	sbci	r29, 0x00	; 0
    5518:	49 85       	ldd	r20, Y+9	; 0x09
    551a:	cf 53       	subi	r28, 0x3F	; 63
    551c:	df 4f       	sbci	r29, 0xFF	; 255
    551e:	48 83       	st	Y, r20
    5520:	c1 5c       	subi	r28, 0xC1	; 193
    5522:	d0 40       	sbci	r29, 0x00	; 0
    5524:	5a 85       	ldd	r21, Y+10	; 0x0a
    5526:	ce 53       	subi	r28, 0x3E	; 62
    5528:	df 4f       	sbci	r29, 0xFF	; 255
    552a:	58 83       	st	Y, r21
    552c:	c2 5c       	subi	r28, 0xC2	; 194
    552e:	d0 40       	sbci	r29, 0x00	; 0
    5530:	6b 85       	ldd	r22, Y+11	; 0x0b
    5532:	cd 53       	subi	r28, 0x3D	; 61
    5534:	df 4f       	sbci	r29, 0xFF	; 255
    5536:	68 83       	st	Y, r22
    5538:	c3 5c       	subi	r28, 0xC3	; 195
    553a:	d0 40       	sbci	r29, 0x00	; 0
    553c:	7c 85       	ldd	r23, Y+12	; 0x0c
    553e:	cc 53       	subi	r28, 0x3C	; 60
    5540:	df 4f       	sbci	r29, 0xFF	; 255
    5542:	78 83       	st	Y, r23
    5544:	c4 5c       	subi	r28, 0xC4	; 196
    5546:	d0 40       	sbci	r29, 0x00	; 0
    5548:	8d 85       	ldd	r24, Y+13	; 0x0d
    554a:	cb 53       	subi	r28, 0x3B	; 59
    554c:	df 4f       	sbci	r29, 0xFF	; 255
    554e:	88 83       	st	Y, r24
    5550:	c5 5c       	subi	r28, 0xC5	; 197
    5552:	d0 40       	sbci	r29, 0x00	; 0
    5554:	c2 54       	subi	r28, 0x42	; 66
    5556:	df 4f       	sbci	r29, 0xFF	; 255
    5558:	28 81       	ld	r18, Y
    555a:	ce 5b       	subi	r28, 0xBE	; 190
    555c:	d0 40       	sbci	r29, 0x00	; 0
    555e:	c1 54       	subi	r28, 0x41	; 65
    5560:	df 4f       	sbci	r29, 0xFF	; 255
    5562:	38 81       	ld	r19, Y
    5564:	cf 5b       	subi	r28, 0xBF	; 191
    5566:	d0 40       	sbci	r29, 0x00	; 0
    5568:	c0 54       	subi	r28, 0x40	; 64
    556a:	df 4f       	sbci	r29, 0xFF	; 255
    556c:	48 81       	ld	r20, Y
    556e:	c0 5c       	subi	r28, 0xC0	; 192
    5570:	d0 40       	sbci	r29, 0x00	; 0
    5572:	cf 53       	subi	r28, 0x3F	; 63
    5574:	df 4f       	sbci	r29, 0xFF	; 255
    5576:	58 81       	ld	r21, Y
    5578:	c1 5c       	subi	r28, 0xC1	; 193
    557a:	d0 40       	sbci	r29, 0x00	; 0
    557c:	ce 53       	subi	r28, 0x3E	; 62
    557e:	df 4f       	sbci	r29, 0xFF	; 255
    5580:	68 81       	ld	r22, Y
    5582:	c2 5c       	subi	r28, 0xC2	; 194
    5584:	d0 40       	sbci	r29, 0x00	; 0
    5586:	cd 53       	subi	r28, 0x3D	; 61
    5588:	df 4f       	sbci	r29, 0xFF	; 255
    558a:	78 81       	ld	r23, Y
    558c:	c3 5c       	subi	r28, 0xC3	; 195
    558e:	d0 40       	sbci	r29, 0x00	; 0
    5590:	cc 53       	subi	r28, 0x3C	; 60
    5592:	df 4f       	sbci	r29, 0xFF	; 255
    5594:	88 81       	ld	r24, Y
    5596:	c4 5c       	subi	r28, 0xC4	; 196
    5598:	d0 40       	sbci	r29, 0x00	; 0
    559a:	cb 53       	subi	r28, 0x3B	; 59
    559c:	df 4f       	sbci	r29, 0xFF	; 255
    559e:	98 81       	ld	r25, Y
    55a0:	c5 5c       	subi	r28, 0xC5	; 197
    55a2:	d0 40       	sbci	r29, 0x00	; 0
    55a4:	02 e0       	ldi	r16, 0x02	; 2
    55a6:	0e 94 89 39 	call	0x7312	; 0x7312 <__ashldi3>
    55aa:	a2 2e       	mov	r10, r18
    55ac:	b3 2e       	mov	r11, r19
    55ae:	c4 2e       	mov	r12, r20
    55b0:	d5 2e       	mov	r13, r21
    55b2:	e6 2e       	mov	r14, r22
    55b4:	f7 2e       	mov	r15, r23
    55b6:	08 2f       	mov	r16, r24
    55b8:	19 2f       	mov	r17, r25
    55ba:	c2 54       	subi	r28, 0x42	; 66
    55bc:	df 4f       	sbci	r29, 0xFF	; 255
    55be:	a8 82       	st	Y, r10
    55c0:	ce 5b       	subi	r28, 0xBE	; 190
    55c2:	d0 40       	sbci	r29, 0x00	; 0
    55c4:	c1 54       	subi	r28, 0x41	; 65
    55c6:	df 4f       	sbci	r29, 0xFF	; 255
    55c8:	b8 82       	st	Y, r11
    55ca:	cf 5b       	subi	r28, 0xBF	; 191
    55cc:	d0 40       	sbci	r29, 0x00	; 0
    55ce:	c0 54       	subi	r28, 0x40	; 64
    55d0:	df 4f       	sbci	r29, 0xFF	; 255
    55d2:	c8 82       	st	Y, r12
    55d4:	c0 5c       	subi	r28, 0xC0	; 192
    55d6:	d0 40       	sbci	r29, 0x00	; 0
    55d8:	cf 53       	subi	r28, 0x3F	; 63
    55da:	df 4f       	sbci	r29, 0xFF	; 255
    55dc:	d8 82       	st	Y, r13
    55de:	c1 5c       	subi	r28, 0xC1	; 193
    55e0:	d0 40       	sbci	r29, 0x00	; 0
    55e2:	ce 53       	subi	r28, 0x3E	; 62
    55e4:	df 4f       	sbci	r29, 0xFF	; 255
    55e6:	e8 82       	st	Y, r14
    55e8:	c2 5c       	subi	r28, 0xC2	; 194
    55ea:	d0 40       	sbci	r29, 0x00	; 0
    55ec:	cd 53       	subi	r28, 0x3D	; 61
    55ee:	df 4f       	sbci	r29, 0xFF	; 255
    55f0:	f8 82       	st	Y, r15
    55f2:	c3 5c       	subi	r28, 0xC3	; 195
    55f4:	d0 40       	sbci	r29, 0x00	; 0
    55f6:	cc 53       	subi	r28, 0x3C	; 60
    55f8:	df 4f       	sbci	r29, 0xFF	; 255
    55fa:	08 83       	st	Y, r16
    55fc:	c4 5c       	subi	r28, 0xC4	; 196
    55fe:	d0 40       	sbci	r29, 0x00	; 0
    5600:	cb 53       	subi	r28, 0x3B	; 59
    5602:	df 4f       	sbci	r29, 0xFF	; 255
    5604:	18 83       	st	Y, r17
    5606:	c5 5c       	subi	r28, 0xC5	; 197
    5608:	d0 40       	sbci	r29, 0x00	; 0
    560a:	c2 54       	subi	r28, 0x42	; 66
    560c:	df 4f       	sbci	r29, 0xFF	; 255
    560e:	28 81       	ld	r18, Y
    5610:	ce 5b       	subi	r28, 0xBE	; 190
    5612:	d0 40       	sbci	r29, 0x00	; 0
    5614:	c1 54       	subi	r28, 0x41	; 65
    5616:	df 4f       	sbci	r29, 0xFF	; 255
    5618:	38 81       	ld	r19, Y
    561a:	cf 5b       	subi	r28, 0xBF	; 191
    561c:	d0 40       	sbci	r29, 0x00	; 0
    561e:	c0 54       	subi	r28, 0x40	; 64
    5620:	df 4f       	sbci	r29, 0xFF	; 255
    5622:	48 81       	ld	r20, Y
    5624:	c0 5c       	subi	r28, 0xC0	; 192
    5626:	d0 40       	sbci	r29, 0x00	; 0
    5628:	cf 53       	subi	r28, 0x3F	; 63
    562a:	df 4f       	sbci	r29, 0xFF	; 255
    562c:	58 81       	ld	r21, Y
    562e:	c1 5c       	subi	r28, 0xC1	; 193
    5630:	d0 40       	sbci	r29, 0x00	; 0
    5632:	ce 53       	subi	r28, 0x3E	; 62
    5634:	df 4f       	sbci	r29, 0xFF	; 255
    5636:	68 81       	ld	r22, Y
    5638:	c2 5c       	subi	r28, 0xC2	; 194
    563a:	d0 40       	sbci	r29, 0x00	; 0
    563c:	cd 53       	subi	r28, 0x3D	; 61
    563e:	df 4f       	sbci	r29, 0xFF	; 255
    5640:	78 81       	ld	r23, Y
    5642:	c3 5c       	subi	r28, 0xC3	; 195
    5644:	d0 40       	sbci	r29, 0x00	; 0
    5646:	cc 53       	subi	r28, 0x3C	; 60
    5648:	df 4f       	sbci	r29, 0xFF	; 255
    564a:	88 81       	ld	r24, Y
    564c:	c4 5c       	subi	r28, 0xC4	; 196
    564e:	d0 40       	sbci	r29, 0x00	; 0
    5650:	cb 53       	subi	r28, 0x3B	; 59
    5652:	df 4f       	sbci	r29, 0xFF	; 255
    5654:	98 81       	ld	r25, Y
    5656:	c5 5c       	subi	r28, 0xC5	; 197
    5658:	d0 40       	sbci	r29, 0x00	; 0
    565a:	05 e0       	ldi	r16, 0x05	; 5
    565c:	0e 94 89 39 	call	0x7312	; 0x7312 <__ashldi3>
    5660:	22 2e       	mov	r2, r18
    5662:	33 2e       	mov	r3, r19
    5664:	44 2e       	mov	r4, r20
    5666:	55 2e       	mov	r5, r21
    5668:	66 2e       	mov	r6, r22
    566a:	77 2e       	mov	r7, r23
    566c:	88 2e       	mov	r8, r24
    566e:	99 2e       	mov	r9, r25
    5670:	22 2d       	mov	r18, r2
    5672:	33 2d       	mov	r19, r3
    5674:	44 2d       	mov	r20, r4
    5676:	55 2d       	mov	r21, r5
    5678:	66 2d       	mov	r22, r6
    567a:	77 2d       	mov	r23, r7
    567c:	88 2d       	mov	r24, r8
    567e:	99 2d       	mov	r25, r9
    5680:	c2 54       	subi	r28, 0x42	; 66
    5682:	df 4f       	sbci	r29, 0xFF	; 255
    5684:	a8 80       	ld	r10, Y
    5686:	ce 5b       	subi	r28, 0xBE	; 190
    5688:	d0 40       	sbci	r29, 0x00	; 0
    568a:	c1 54       	subi	r28, 0x41	; 65
    568c:	df 4f       	sbci	r29, 0xFF	; 255
    568e:	b8 80       	ld	r11, Y
    5690:	cf 5b       	subi	r28, 0xBF	; 191
    5692:	d0 40       	sbci	r29, 0x00	; 0
    5694:	c0 54       	subi	r28, 0x40	; 64
    5696:	df 4f       	sbci	r29, 0xFF	; 255
    5698:	c8 80       	ld	r12, Y
    569a:	c0 5c       	subi	r28, 0xC0	; 192
    569c:	d0 40       	sbci	r29, 0x00	; 0
    569e:	cf 53       	subi	r28, 0x3F	; 63
    56a0:	df 4f       	sbci	r29, 0xFF	; 255
    56a2:	d8 80       	ld	r13, Y
    56a4:	c1 5c       	subi	r28, 0xC1	; 193
    56a6:	d0 40       	sbci	r29, 0x00	; 0
    56a8:	ce 53       	subi	r28, 0x3E	; 62
    56aa:	df 4f       	sbci	r29, 0xFF	; 255
    56ac:	e8 80       	ld	r14, Y
    56ae:	c2 5c       	subi	r28, 0xC2	; 194
    56b0:	d0 40       	sbci	r29, 0x00	; 0
    56b2:	cd 53       	subi	r28, 0x3D	; 61
    56b4:	df 4f       	sbci	r29, 0xFF	; 255
    56b6:	f8 80       	ld	r15, Y
    56b8:	c3 5c       	subi	r28, 0xC3	; 195
    56ba:	d0 40       	sbci	r29, 0x00	; 0
    56bc:	cc 53       	subi	r28, 0x3C	; 60
    56be:	df 4f       	sbci	r29, 0xFF	; 255
    56c0:	08 81       	ld	r16, Y
    56c2:	c4 5c       	subi	r28, 0xC4	; 196
    56c4:	d0 40       	sbci	r29, 0x00	; 0
    56c6:	cb 53       	subi	r28, 0x3B	; 59
    56c8:	df 4f       	sbci	r29, 0xFF	; 255
    56ca:	18 81       	ld	r17, Y
    56cc:	c5 5c       	subi	r28, 0xC5	; 197
    56ce:	d0 40       	sbci	r29, 0x00	; 0
    56d0:	0e 94 a1 39 	call	0x7342	; 0x7342 <__subdi3>
    56d4:	22 2e       	mov	r2, r18
    56d6:	33 2e       	mov	r3, r19
    56d8:	44 2e       	mov	r4, r20
    56da:	55 2e       	mov	r5, r21
    56dc:	66 2e       	mov	r6, r22
    56de:	77 2e       	mov	r7, r23
    56e0:	88 2e       	mov	r8, r24
    56e2:	99 2e       	mov	r9, r25
    56e4:	22 2d       	mov	r18, r2
    56e6:	33 2d       	mov	r19, r3
    56e8:	44 2d       	mov	r20, r4
    56ea:	55 2d       	mov	r21, r5
    56ec:	66 2d       	mov	r22, r6
    56ee:	77 2d       	mov	r23, r7
    56f0:	88 2d       	mov	r24, r8
    56f2:	99 2d       	mov	r25, r9
    56f4:	ae 80       	ldd	r10, Y+6	; 0x06
    56f6:	bf 80       	ldd	r11, Y+7	; 0x07
    56f8:	c8 84       	ldd	r12, Y+8	; 0x08
    56fa:	d9 84       	ldd	r13, Y+9	; 0x09
    56fc:	ea 84       	ldd	r14, Y+10	; 0x0a
    56fe:	fb 84       	ldd	r15, Y+11	; 0x0b
    5700:	0c 85       	ldd	r16, Y+12	; 0x0c
    5702:	1d 85       	ldd	r17, Y+13	; 0x0d
    5704:	0e 94 98 39 	call	0x7330	; 0x7330 <__adddi3>
    5708:	22 2e       	mov	r2, r18
    570a:	33 2e       	mov	r3, r19
    570c:	44 2e       	mov	r4, r20
    570e:	55 2e       	mov	r5, r21
    5710:	66 2e       	mov	r6, r22
    5712:	77 2e       	mov	r7, r23
    5714:	88 2e       	mov	r8, r24
    5716:	99 2e       	mov	r9, r25
    5718:	22 2d       	mov	r18, r2
    571a:	33 2d       	mov	r19, r3
    571c:	44 2d       	mov	r20, r4
    571e:	55 2d       	mov	r21, r5
    5720:	66 2d       	mov	r22, r6
    5722:	77 2d       	mov	r23, r7
    5724:	88 2d       	mov	r24, r8
    5726:	99 2d       	mov	r25, r9
    5728:	03 e0       	ldi	r16, 0x03	; 3
    572a:	0e 94 89 39 	call	0x7312	; 0x7312 <__ashldi3>
    572e:	a2 2e       	mov	r10, r18
    5730:	b3 2e       	mov	r11, r19
    5732:	c4 2e       	mov	r12, r20
    5734:	d5 2e       	mov	r13, r21
    5736:	e6 2e       	mov	r14, r22
    5738:	f7 2e       	mov	r15, r23
    573a:	08 2f       	mov	r16, r24
    573c:	19 2f       	mov	r17, r25
    573e:	2a 2c       	mov	r2, r10
    5740:	3b 2c       	mov	r3, r11
    5742:	4c 2c       	mov	r4, r12
    5744:	5d 2c       	mov	r5, r13
    5746:	6e 2c       	mov	r6, r14
    5748:	7f 2c       	mov	r7, r15
    574a:	80 2e       	mov	r8, r16
    574c:	91 2e       	mov	r9, r17
    574e:	a2 2c       	mov	r10, r2
    5750:	b3 2c       	mov	r11, r3
    5752:	c4 2c       	mov	r12, r4
    5754:	d5 2c       	mov	r13, r5
    5756:	e6 2c       	mov	r14, r6
    5758:	f7 2c       	mov	r15, r7
    575a:	08 2d       	mov	r16, r8
    575c:	19 2d       	mov	r17, r9
    575e:	2a 2d       	mov	r18, r10
    5760:	3b 2d       	mov	r19, r11
    5762:	4c 2d       	mov	r20, r12
    5764:	5d 2d       	mov	r21, r13
    5766:	6e 2d       	mov	r22, r14
    5768:	7f 2d       	mov	r23, r15
    576a:	80 2f       	mov	r24, r16
    576c:	91 2f       	mov	r25, r17
    576e:	29 51       	subi	r18, 0x19	; 25
    5770:	3c 4f       	sbci	r19, 0xFC	; 252
    5772:	4f 4f       	sbci	r20, 0xFF	; 255
    5774:	5f 4f       	sbci	r21, 0xFF	; 255
    5776:	6f 4f       	sbci	r22, 0xFF	; 255
    5778:	7f 4f       	sbci	r23, 0xFF	; 255
    577a:	8f 4f       	sbci	r24, 0xFF	; 255
    577c:	9f 4f       	sbci	r25, 0xFF	; 255
    577e:	a2 2e       	mov	r10, r18
    5780:	b3 2e       	mov	r11, r19
    5782:	c4 2e       	mov	r12, r20
    5784:	d5 2e       	mov	r13, r21
    5786:	e6 2e       	mov	r14, r22
    5788:	f7 2e       	mov	r15, r23
    578a:	08 2f       	mov	r16, r24
    578c:	19 2f       	mov	r17, r25
    578e:	2a 2d       	mov	r18, r10
    5790:	3b 2d       	mov	r19, r11
    5792:	4c 2d       	mov	r20, r12
    5794:	5d 2d       	mov	r21, r13
    5796:	6e 2d       	mov	r22, r14
    5798:	7f 2d       	mov	r23, r15
    579a:	80 2f       	mov	r24, r16
    579c:	91 2f       	mov	r25, r17
    579e:	0e 94 f6 01 	call	0x3ec	; 0x3ec <__floatundisf>
    57a2:	dc 01       	movw	r26, r24
    57a4:	cb 01       	movw	r24, r22
    57a6:	20 e0       	ldi	r18, 0x00	; 0
    57a8:	30 e8       	ldi	r19, 0x80	; 128
    57aa:	4b eb       	ldi	r20, 0xBB	; 187
    57ac:	55 e4       	ldi	r21, 0x45	; 69
    57ae:	bc 01       	movw	r22, r24
    57b0:	cd 01       	movw	r24, r26
    57b2:	0e 94 71 03 	call	0x6e2	; 0x6e2 <__divsf3>
    57b6:	dc 01       	movw	r26, r24
    57b8:	cb 01       	movw	r24, r22
    57ba:	bc 01       	movw	r22, r24
    57bc:	cd 01       	movw	r24, r26
    57be:	0e 94 45 01 	call	0x28a	; 0x28a <__fixunssfdi>
    57c2:	a2 2e       	mov	r10, r18
    57c4:	b3 2e       	mov	r11, r19
    57c6:	c4 2e       	mov	r12, r20
    57c8:	d5 2e       	mov	r13, r21
    57ca:	e6 2e       	mov	r14, r22
    57cc:	f7 2e       	mov	r15, r23
    57ce:	08 2f       	mov	r16, r24
    57d0:	19 2f       	mov	r17, r25
    57d2:	d6 01       	movw	r26, r12
    57d4:	c5 01       	movw	r24, r10
    57d6:	bc 01       	movw	r22, r24
    57d8:	cd 01       	movw	r24, r26
    57da:	0e 94 bf 17 	call	0x2f7e	; 0x2f7e <__portable_avr_delay_cycles>
					gpio_toggle_pin(LED_VD1);
    57de:	88 e0       	ldi	r24, 0x08	; 8
    57e0:	0e 94 1b 18 	call	0x3036	; 0x3036 <ioport_toggle_pin>
				break;
    57e4:	0c 94 80 38 	jmp	0x7100	; 0x7100 <main+0x2b3e>
			case 2: //showMeByte(duoByte);
				break;
			case 3: //showMeByte(duoByte >> 8);
				break;
			case 4:	showMeByte(0);
    57e8:	80 e0       	ldi	r24, 0x00	; 0
    57ea:	0e 94 66 1b 	call	0x36cc	; 0x36cc <showMeByte>
					for (Byte i = 0; i < 20; i++)
    57ee:	1d 82       	std	Y+5, r1	; 0x05
    57f0:	8c c1       	rjmp	.+792    	; 0x5b0a <main+0x1548>
					{
						gpio_toggle_pin(LED_VD1);
    57f2:	88 e0       	ldi	r24, 0x08	; 8
    57f4:	0e 94 1b 18 	call	0x3036	; 0x3036 <ioport_toggle_pin>
						delay_ms(50);
    57f8:	0e 94 b3 17 	call	0x2f66	; 0x2f66 <sysclk_get_cpu_hz>
    57fc:	dc 01       	movw	r26, r24
    57fe:	cb 01       	movw	r24, r22
    5800:	9c 01       	movw	r18, r24
    5802:	ad 01       	movw	r20, r26
    5804:	60 e0       	ldi	r22, 0x00	; 0
    5806:	70 e0       	ldi	r23, 0x00	; 0
    5808:	cb 01       	movw	r24, r22
    580a:	82 2e       	mov	r8, r18
    580c:	93 2e       	mov	r9, r19
    580e:	a4 2e       	mov	r10, r20
    5810:	b5 2e       	mov	r11, r21
    5812:	c6 2e       	mov	r12, r22
    5814:	d7 2e       	mov	r13, r23
    5816:	e8 2e       	mov	r14, r24
    5818:	f9 2e       	mov	r15, r25
    581a:	28 2d       	mov	r18, r8
    581c:	39 2d       	mov	r19, r9
    581e:	4a 2d       	mov	r20, r10
    5820:	5b 2d       	mov	r21, r11
    5822:	6c 2d       	mov	r22, r12
    5824:	7d 2d       	mov	r23, r13
    5826:	8e 2d       	mov	r24, r14
    5828:	9f 2d       	mov	r25, r15
    582a:	01 e0       	ldi	r16, 0x01	; 1
    582c:	0e 94 89 39 	call	0x7312	; 0x7312 <__ashldi3>
    5830:	ca 53       	subi	r28, 0x3A	; 58
    5832:	df 4f       	sbci	r29, 0xFF	; 255
    5834:	28 83       	st	Y, r18
    5836:	c6 5c       	subi	r28, 0xC6	; 198
    5838:	d0 40       	sbci	r29, 0x00	; 0
    583a:	c9 53       	subi	r28, 0x39	; 57
    583c:	df 4f       	sbci	r29, 0xFF	; 255
    583e:	38 83       	st	Y, r19
    5840:	c7 5c       	subi	r28, 0xC7	; 199
    5842:	d0 40       	sbci	r29, 0x00	; 0
    5844:	c8 53       	subi	r28, 0x38	; 56
    5846:	df 4f       	sbci	r29, 0xFF	; 255
    5848:	48 83       	st	Y, r20
    584a:	c8 5c       	subi	r28, 0xC8	; 200
    584c:	d0 40       	sbci	r29, 0x00	; 0
    584e:	c7 53       	subi	r28, 0x37	; 55
    5850:	df 4f       	sbci	r29, 0xFF	; 255
    5852:	58 83       	st	Y, r21
    5854:	c9 5c       	subi	r28, 0xC9	; 201
    5856:	d0 40       	sbci	r29, 0x00	; 0
    5858:	c6 53       	subi	r28, 0x36	; 54
    585a:	df 4f       	sbci	r29, 0xFF	; 255
    585c:	68 83       	st	Y, r22
    585e:	ca 5c       	subi	r28, 0xCA	; 202
    5860:	d0 40       	sbci	r29, 0x00	; 0
    5862:	c5 53       	subi	r28, 0x35	; 53
    5864:	df 4f       	sbci	r29, 0xFF	; 255
    5866:	78 83       	st	Y, r23
    5868:	cb 5c       	subi	r28, 0xCB	; 203
    586a:	d0 40       	sbci	r29, 0x00	; 0
    586c:	c4 53       	subi	r28, 0x34	; 52
    586e:	df 4f       	sbci	r29, 0xFF	; 255
    5870:	88 83       	st	Y, r24
    5872:	cc 5c       	subi	r28, 0xCC	; 204
    5874:	d0 40       	sbci	r29, 0x00	; 0
    5876:	c3 53       	subi	r28, 0x33	; 51
    5878:	df 4f       	sbci	r29, 0xFF	; 255
    587a:	98 83       	st	Y, r25
    587c:	cd 5c       	subi	r28, 0xCD	; 205
    587e:	d0 40       	sbci	r29, 0x00	; 0
    5880:	ca 53       	subi	r28, 0x3A	; 58
    5882:	df 4f       	sbci	r29, 0xFF	; 255
    5884:	88 80       	ld	r8, Y
    5886:	c6 5c       	subi	r28, 0xC6	; 198
    5888:	d0 40       	sbci	r29, 0x00	; 0
    588a:	c9 53       	subi	r28, 0x39	; 57
    588c:	df 4f       	sbci	r29, 0xFF	; 255
    588e:	98 80       	ld	r9, Y
    5890:	c7 5c       	subi	r28, 0xC7	; 199
    5892:	d0 40       	sbci	r29, 0x00	; 0
    5894:	c8 53       	subi	r28, 0x38	; 56
    5896:	df 4f       	sbci	r29, 0xFF	; 255
    5898:	a8 80       	ld	r10, Y
    589a:	c8 5c       	subi	r28, 0xC8	; 200
    589c:	d0 40       	sbci	r29, 0x00	; 0
    589e:	c7 53       	subi	r28, 0x37	; 55
    58a0:	df 4f       	sbci	r29, 0xFF	; 255
    58a2:	b8 80       	ld	r11, Y
    58a4:	c9 5c       	subi	r28, 0xC9	; 201
    58a6:	d0 40       	sbci	r29, 0x00	; 0
    58a8:	c6 53       	subi	r28, 0x36	; 54
    58aa:	df 4f       	sbci	r29, 0xFF	; 255
    58ac:	c8 80       	ld	r12, Y
    58ae:	ca 5c       	subi	r28, 0xCA	; 202
    58b0:	d0 40       	sbci	r29, 0x00	; 0
    58b2:	c5 53       	subi	r28, 0x35	; 53
    58b4:	df 4f       	sbci	r29, 0xFF	; 255
    58b6:	d8 80       	ld	r13, Y
    58b8:	cb 5c       	subi	r28, 0xCB	; 203
    58ba:	d0 40       	sbci	r29, 0x00	; 0
    58bc:	c4 53       	subi	r28, 0x34	; 52
    58be:	df 4f       	sbci	r29, 0xFF	; 255
    58c0:	e8 80       	ld	r14, Y
    58c2:	cc 5c       	subi	r28, 0xCC	; 204
    58c4:	d0 40       	sbci	r29, 0x00	; 0
    58c6:	c3 53       	subi	r28, 0x33	; 51
    58c8:	df 4f       	sbci	r29, 0xFF	; 255
    58ca:	f8 80       	ld	r15, Y
    58cc:	cd 5c       	subi	r28, 0xCD	; 205
    58ce:	d0 40       	sbci	r29, 0x00	; 0
    58d0:	28 2d       	mov	r18, r8
    58d2:	39 2d       	mov	r19, r9
    58d4:	4a 2d       	mov	r20, r10
    58d6:	5b 2d       	mov	r21, r11
    58d8:	6c 2d       	mov	r22, r12
    58da:	7d 2d       	mov	r23, r13
    58dc:	8e 2d       	mov	r24, r14
    58de:	9f 2d       	mov	r25, r15
    58e0:	02 e0       	ldi	r16, 0x02	; 2
    58e2:	0e 94 89 39 	call	0x7312	; 0x7312 <__ashldi3>
    58e6:	c2 53       	subi	r28, 0x32	; 50
    58e8:	df 4f       	sbci	r29, 0xFF	; 255
    58ea:	28 83       	st	Y, r18
    58ec:	ce 5c       	subi	r28, 0xCE	; 206
    58ee:	d0 40       	sbci	r29, 0x00	; 0
    58f0:	c1 53       	subi	r28, 0x31	; 49
    58f2:	df 4f       	sbci	r29, 0xFF	; 255
    58f4:	38 83       	st	Y, r19
    58f6:	cf 5c       	subi	r28, 0xCF	; 207
    58f8:	d0 40       	sbci	r29, 0x00	; 0
    58fa:	c0 53       	subi	r28, 0x30	; 48
    58fc:	df 4f       	sbci	r29, 0xFF	; 255
    58fe:	48 83       	st	Y, r20
    5900:	c0 5d       	subi	r28, 0xD0	; 208
    5902:	d0 40       	sbci	r29, 0x00	; 0
    5904:	cf 52       	subi	r28, 0x2F	; 47
    5906:	df 4f       	sbci	r29, 0xFF	; 255
    5908:	58 83       	st	Y, r21
    590a:	c1 5d       	subi	r28, 0xD1	; 209
    590c:	d0 40       	sbci	r29, 0x00	; 0
    590e:	ce 52       	subi	r28, 0x2E	; 46
    5910:	df 4f       	sbci	r29, 0xFF	; 255
    5912:	68 83       	st	Y, r22
    5914:	c2 5d       	subi	r28, 0xD2	; 210
    5916:	d0 40       	sbci	r29, 0x00	; 0
    5918:	cd 52       	subi	r28, 0x2D	; 45
    591a:	df 4f       	sbci	r29, 0xFF	; 255
    591c:	78 83       	st	Y, r23
    591e:	c3 5d       	subi	r28, 0xD3	; 211
    5920:	d0 40       	sbci	r29, 0x00	; 0
    5922:	cc 52       	subi	r28, 0x2C	; 44
    5924:	df 4f       	sbci	r29, 0xFF	; 255
    5926:	88 83       	st	Y, r24
    5928:	c4 5d       	subi	r28, 0xD4	; 212
    592a:	d0 40       	sbci	r29, 0x00	; 0
    592c:	cb 52       	subi	r28, 0x2B	; 43
    592e:	df 4f       	sbci	r29, 0xFF	; 255
    5930:	98 83       	st	Y, r25
    5932:	c5 5d       	subi	r28, 0xD5	; 213
    5934:	d0 40       	sbci	r29, 0x00	; 0
    5936:	28 2d       	mov	r18, r8
    5938:	39 2d       	mov	r19, r9
    593a:	4a 2d       	mov	r20, r10
    593c:	5b 2d       	mov	r21, r11
    593e:	6c 2d       	mov	r22, r12
    5940:	7d 2d       	mov	r23, r13
    5942:	8e 2d       	mov	r24, r14
    5944:	9f 2d       	mov	r25, r15
    5946:	c2 53       	subi	r28, 0x32	; 50
    5948:	df 4f       	sbci	r29, 0xFF	; 255
    594a:	a8 80       	ld	r10, Y
    594c:	ce 5c       	subi	r28, 0xCE	; 206
    594e:	d0 40       	sbci	r29, 0x00	; 0
    5950:	c1 53       	subi	r28, 0x31	; 49
    5952:	df 4f       	sbci	r29, 0xFF	; 255
    5954:	b8 80       	ld	r11, Y
    5956:	cf 5c       	subi	r28, 0xCF	; 207
    5958:	d0 40       	sbci	r29, 0x00	; 0
    595a:	c0 53       	subi	r28, 0x30	; 48
    595c:	df 4f       	sbci	r29, 0xFF	; 255
    595e:	c8 80       	ld	r12, Y
    5960:	c0 5d       	subi	r28, 0xD0	; 208
    5962:	d0 40       	sbci	r29, 0x00	; 0
    5964:	cf 52       	subi	r28, 0x2F	; 47
    5966:	df 4f       	sbci	r29, 0xFF	; 255
    5968:	d8 80       	ld	r13, Y
    596a:	c1 5d       	subi	r28, 0xD1	; 209
    596c:	d0 40       	sbci	r29, 0x00	; 0
    596e:	ce 52       	subi	r28, 0x2E	; 46
    5970:	df 4f       	sbci	r29, 0xFF	; 255
    5972:	e8 80       	ld	r14, Y
    5974:	c2 5d       	subi	r28, 0xD2	; 210
    5976:	d0 40       	sbci	r29, 0x00	; 0
    5978:	cd 52       	subi	r28, 0x2D	; 45
    597a:	df 4f       	sbci	r29, 0xFF	; 255
    597c:	f8 80       	ld	r15, Y
    597e:	c3 5d       	subi	r28, 0xD3	; 211
    5980:	d0 40       	sbci	r29, 0x00	; 0
    5982:	cc 52       	subi	r28, 0x2C	; 44
    5984:	df 4f       	sbci	r29, 0xFF	; 255
    5986:	08 81       	ld	r16, Y
    5988:	c4 5d       	subi	r28, 0xD4	; 212
    598a:	d0 40       	sbci	r29, 0x00	; 0
    598c:	cb 52       	subi	r28, 0x2B	; 43
    598e:	df 4f       	sbci	r29, 0xFF	; 255
    5990:	18 81       	ld	r17, Y
    5992:	c5 5d       	subi	r28, 0xD5	; 213
    5994:	d0 40       	sbci	r29, 0x00	; 0
    5996:	0e 94 98 39 	call	0x7330	; 0x7330 <__adddi3>
    599a:	82 2e       	mov	r8, r18
    599c:	93 2e       	mov	r9, r19
    599e:	a4 2e       	mov	r10, r20
    59a0:	b5 2e       	mov	r11, r21
    59a2:	c6 2e       	mov	r12, r22
    59a4:	d7 2e       	mov	r13, r23
    59a6:	e8 2e       	mov	r14, r24
    59a8:	f9 2e       	mov	r15, r25
    59aa:	28 2d       	mov	r18, r8
    59ac:	39 2d       	mov	r19, r9
    59ae:	4a 2d       	mov	r20, r10
    59b0:	5b 2d       	mov	r21, r11
    59b2:	6c 2d       	mov	r22, r12
    59b4:	7d 2d       	mov	r23, r13
    59b6:	8e 2d       	mov	r24, r14
    59b8:	9f 2d       	mov	r25, r15
    59ba:	02 e0       	ldi	r16, 0x02	; 2
    59bc:	0e 94 89 39 	call	0x7312	; 0x7312 <__ashldi3>
    59c0:	ca 52       	subi	r28, 0x2A	; 42
    59c2:	df 4f       	sbci	r29, 0xFF	; 255
    59c4:	28 83       	st	Y, r18
    59c6:	c6 5d       	subi	r28, 0xD6	; 214
    59c8:	d0 40       	sbci	r29, 0x00	; 0
    59ca:	c9 52       	subi	r28, 0x29	; 41
    59cc:	df 4f       	sbci	r29, 0xFF	; 255
    59ce:	38 83       	st	Y, r19
    59d0:	c7 5d       	subi	r28, 0xD7	; 215
    59d2:	d0 40       	sbci	r29, 0x00	; 0
    59d4:	c8 52       	subi	r28, 0x28	; 40
    59d6:	df 4f       	sbci	r29, 0xFF	; 255
    59d8:	48 83       	st	Y, r20
    59da:	c8 5d       	subi	r28, 0xD8	; 216
    59dc:	d0 40       	sbci	r29, 0x00	; 0
    59de:	c7 52       	subi	r28, 0x27	; 39
    59e0:	df 4f       	sbci	r29, 0xFF	; 255
    59e2:	58 83       	st	Y, r21
    59e4:	c9 5d       	subi	r28, 0xD9	; 217
    59e6:	d0 40       	sbci	r29, 0x00	; 0
    59e8:	c6 52       	subi	r28, 0x26	; 38
    59ea:	df 4f       	sbci	r29, 0xFF	; 255
    59ec:	68 83       	st	Y, r22
    59ee:	ca 5d       	subi	r28, 0xDA	; 218
    59f0:	d0 40       	sbci	r29, 0x00	; 0
    59f2:	c5 52       	subi	r28, 0x25	; 37
    59f4:	df 4f       	sbci	r29, 0xFF	; 255
    59f6:	78 83       	st	Y, r23
    59f8:	cb 5d       	subi	r28, 0xDB	; 219
    59fa:	d0 40       	sbci	r29, 0x00	; 0
    59fc:	c4 52       	subi	r28, 0x24	; 36
    59fe:	df 4f       	sbci	r29, 0xFF	; 255
    5a00:	88 83       	st	Y, r24
    5a02:	cc 5d       	subi	r28, 0xDC	; 220
    5a04:	d0 40       	sbci	r29, 0x00	; 0
    5a06:	c3 52       	subi	r28, 0x23	; 35
    5a08:	df 4f       	sbci	r29, 0xFF	; 255
    5a0a:	98 83       	st	Y, r25
    5a0c:	cd 5d       	subi	r28, 0xDD	; 221
    5a0e:	d0 40       	sbci	r29, 0x00	; 0
    5a10:	28 2d       	mov	r18, r8
    5a12:	39 2d       	mov	r19, r9
    5a14:	4a 2d       	mov	r20, r10
    5a16:	5b 2d       	mov	r21, r11
    5a18:	6c 2d       	mov	r22, r12
    5a1a:	7d 2d       	mov	r23, r13
    5a1c:	8e 2d       	mov	r24, r14
    5a1e:	9f 2d       	mov	r25, r15
    5a20:	ca 52       	subi	r28, 0x2A	; 42
    5a22:	df 4f       	sbci	r29, 0xFF	; 255
    5a24:	a8 80       	ld	r10, Y
    5a26:	c6 5d       	subi	r28, 0xD6	; 214
    5a28:	d0 40       	sbci	r29, 0x00	; 0
    5a2a:	c9 52       	subi	r28, 0x29	; 41
    5a2c:	df 4f       	sbci	r29, 0xFF	; 255
    5a2e:	b8 80       	ld	r11, Y
    5a30:	c7 5d       	subi	r28, 0xD7	; 215
    5a32:	d0 40       	sbci	r29, 0x00	; 0
    5a34:	c8 52       	subi	r28, 0x28	; 40
    5a36:	df 4f       	sbci	r29, 0xFF	; 255
    5a38:	c8 80       	ld	r12, Y
    5a3a:	c8 5d       	subi	r28, 0xD8	; 216
    5a3c:	d0 40       	sbci	r29, 0x00	; 0
    5a3e:	c7 52       	subi	r28, 0x27	; 39
    5a40:	df 4f       	sbci	r29, 0xFF	; 255
    5a42:	d8 80       	ld	r13, Y
    5a44:	c9 5d       	subi	r28, 0xD9	; 217
    5a46:	d0 40       	sbci	r29, 0x00	; 0
    5a48:	c6 52       	subi	r28, 0x26	; 38
    5a4a:	df 4f       	sbci	r29, 0xFF	; 255
    5a4c:	e8 80       	ld	r14, Y
    5a4e:	ca 5d       	subi	r28, 0xDA	; 218
    5a50:	d0 40       	sbci	r29, 0x00	; 0
    5a52:	c5 52       	subi	r28, 0x25	; 37
    5a54:	df 4f       	sbci	r29, 0xFF	; 255
    5a56:	f8 80       	ld	r15, Y
    5a58:	cb 5d       	subi	r28, 0xDB	; 219
    5a5a:	d0 40       	sbci	r29, 0x00	; 0
    5a5c:	c4 52       	subi	r28, 0x24	; 36
    5a5e:	df 4f       	sbci	r29, 0xFF	; 255
    5a60:	08 81       	ld	r16, Y
    5a62:	cc 5d       	subi	r28, 0xDC	; 220
    5a64:	d0 40       	sbci	r29, 0x00	; 0
    5a66:	c3 52       	subi	r28, 0x23	; 35
    5a68:	df 4f       	sbci	r29, 0xFF	; 255
    5a6a:	18 81       	ld	r17, Y
    5a6c:	cd 5d       	subi	r28, 0xDD	; 221
    5a6e:	d0 40       	sbci	r29, 0x00	; 0
    5a70:	0e 94 98 39 	call	0x7330	; 0x7330 <__adddi3>
    5a74:	a2 2e       	mov	r10, r18
    5a76:	b3 2e       	mov	r11, r19
    5a78:	c4 2e       	mov	r12, r20
    5a7a:	d5 2e       	mov	r13, r21
    5a7c:	e6 2e       	mov	r14, r22
    5a7e:	f7 2e       	mov	r15, r23
    5a80:	08 2f       	mov	r16, r24
    5a82:	19 2f       	mov	r17, r25
    5a84:	2a 2d       	mov	r18, r10
    5a86:	3b 2d       	mov	r19, r11
    5a88:	4c 2d       	mov	r20, r12
    5a8a:	5d 2d       	mov	r21, r13
    5a8c:	6e 2d       	mov	r22, r14
    5a8e:	7f 2d       	mov	r23, r15
    5a90:	80 2f       	mov	r24, r16
    5a92:	91 2f       	mov	r25, r17
    5a94:	29 51       	subi	r18, 0x19	; 25
    5a96:	3c 4f       	sbci	r19, 0xFC	; 252
    5a98:	4f 4f       	sbci	r20, 0xFF	; 255
    5a9a:	5f 4f       	sbci	r21, 0xFF	; 255
    5a9c:	6f 4f       	sbci	r22, 0xFF	; 255
    5a9e:	7f 4f       	sbci	r23, 0xFF	; 255
    5aa0:	8f 4f       	sbci	r24, 0xFF	; 255
    5aa2:	9f 4f       	sbci	r25, 0xFF	; 255
    5aa4:	a2 2e       	mov	r10, r18
    5aa6:	b3 2e       	mov	r11, r19
    5aa8:	c4 2e       	mov	r12, r20
    5aaa:	d5 2e       	mov	r13, r21
    5aac:	e6 2e       	mov	r14, r22
    5aae:	f7 2e       	mov	r15, r23
    5ab0:	08 2f       	mov	r16, r24
    5ab2:	19 2f       	mov	r17, r25
    5ab4:	2a 2d       	mov	r18, r10
    5ab6:	3b 2d       	mov	r19, r11
    5ab8:	4c 2d       	mov	r20, r12
    5aba:	5d 2d       	mov	r21, r13
    5abc:	6e 2d       	mov	r22, r14
    5abe:	7f 2d       	mov	r23, r15
    5ac0:	80 2f       	mov	r24, r16
    5ac2:	91 2f       	mov	r25, r17
    5ac4:	0e 94 f6 01 	call	0x3ec	; 0x3ec <__floatundisf>
    5ac8:	dc 01       	movw	r26, r24
    5aca:	cb 01       	movw	r24, r22
    5acc:	20 e0       	ldi	r18, 0x00	; 0
    5ace:	30 e8       	ldi	r19, 0x80	; 128
    5ad0:	4b eb       	ldi	r20, 0xBB	; 187
    5ad2:	55 e4       	ldi	r21, 0x45	; 69
    5ad4:	bc 01       	movw	r22, r24
    5ad6:	cd 01       	movw	r24, r26
    5ad8:	0e 94 71 03 	call	0x6e2	; 0x6e2 <__divsf3>
    5adc:	dc 01       	movw	r26, r24
    5ade:	cb 01       	movw	r24, r22
    5ae0:	bc 01       	movw	r22, r24
    5ae2:	cd 01       	movw	r24, r26
    5ae4:	0e 94 45 01 	call	0x28a	; 0x28a <__fixunssfdi>
    5ae8:	a2 2e       	mov	r10, r18
    5aea:	b3 2e       	mov	r11, r19
    5aec:	c4 2e       	mov	r12, r20
    5aee:	d5 2e       	mov	r13, r21
    5af0:	e6 2e       	mov	r14, r22
    5af2:	f7 2e       	mov	r15, r23
    5af4:	08 2f       	mov	r16, r24
    5af6:	19 2f       	mov	r17, r25
    5af8:	d6 01       	movw	r26, r12
    5afa:	c5 01       	movw	r24, r10
    5afc:	bc 01       	movw	r22, r24
    5afe:	cd 01       	movw	r24, r26
    5b00:	0e 94 bf 17 	call	0x2f7e	; 0x2f7e <__portable_avr_delay_cycles>
			case 2: //showMeByte(duoByte);
				break;
			case 3: //showMeByte(duoByte >> 8);
				break;
			case 4:	showMeByte(0);
					for (Byte i = 0; i < 20; i++)
    5b04:	8d 81       	ldd	r24, Y+5	; 0x05
    5b06:	8f 5f       	subi	r24, 0xFF	; 255
    5b08:	8d 83       	std	Y+5, r24	; 0x05
    5b0a:	8d 81       	ldd	r24, Y+5	; 0x05
    5b0c:	84 31       	cpi	r24, 0x14	; 20
    5b0e:	08 f4       	brcc	.+2      	; 0x5b12 <main+0x1550>
    5b10:	70 ce       	rjmp	.-800    	; 0x57f2 <main+0x1230>
					{
						gpio_toggle_pin(LED_VD1);
						delay_ms(50);
					}
					showMeByte(COA_Measurments[0] >> 24);
    5b12:	80 91 63 20 	lds	r24, 0x2063
    5b16:	90 91 64 20 	lds	r25, 0x2064
    5b1a:	a0 91 65 20 	lds	r26, 0x2065
    5b1e:	b0 91 66 20 	lds	r27, 0x2066
    5b22:	8b 2f       	mov	r24, r27
    5b24:	99 27       	eor	r25, r25
    5b26:	aa 27       	eor	r26, r26
    5b28:	bb 27       	eor	r27, r27
    5b2a:	0e 94 66 1b 	call	0x36cc	; 0x36cc <showMeByte>
					delay_ms(2000);
    5b2e:	0e 94 b3 17 	call	0x2f66	; 0x2f66 <sysclk_get_cpu_hz>
    5b32:	dc 01       	movw	r26, r24
    5b34:	cb 01       	movw	r24, r22
    5b36:	8c 01       	movw	r16, r24
    5b38:	9d 01       	movw	r18, r26
    5b3a:	40 e0       	ldi	r20, 0x00	; 0
    5b3c:	50 e0       	ldi	r21, 0x00	; 0
    5b3e:	ba 01       	movw	r22, r20
    5b40:	0e 87       	std	Y+14, r16	; 0x0e
    5b42:	1f 87       	std	Y+15, r17	; 0x0f
    5b44:	28 8b       	std	Y+16, r18	; 0x10
    5b46:	39 8b       	std	Y+17, r19	; 0x11
    5b48:	4a 8b       	std	Y+18, r20	; 0x12
    5b4a:	5b 8b       	std	Y+19, r21	; 0x13
    5b4c:	6c 8b       	std	Y+20, r22	; 0x14
    5b4e:	7d 8b       	std	Y+21, r23	; 0x15
    5b50:	1e 85       	ldd	r17, Y+14	; 0x0e
    5b52:	c2 52       	subi	r28, 0x22	; 34
    5b54:	df 4f       	sbci	r29, 0xFF	; 255
    5b56:	18 83       	st	Y, r17
    5b58:	ce 5d       	subi	r28, 0xDE	; 222
    5b5a:	d0 40       	sbci	r29, 0x00	; 0
    5b5c:	2f 85       	ldd	r18, Y+15	; 0x0f
    5b5e:	c1 52       	subi	r28, 0x21	; 33
    5b60:	df 4f       	sbci	r29, 0xFF	; 255
    5b62:	28 83       	st	Y, r18
    5b64:	cf 5d       	subi	r28, 0xDF	; 223
    5b66:	d0 40       	sbci	r29, 0x00	; 0
    5b68:	38 89       	ldd	r19, Y+16	; 0x10
    5b6a:	c0 52       	subi	r28, 0x20	; 32
    5b6c:	df 4f       	sbci	r29, 0xFF	; 255
    5b6e:	38 83       	st	Y, r19
    5b70:	c0 5e       	subi	r28, 0xE0	; 224
    5b72:	d0 40       	sbci	r29, 0x00	; 0
    5b74:	49 89       	ldd	r20, Y+17	; 0x11
    5b76:	cf 51       	subi	r28, 0x1F	; 31
    5b78:	df 4f       	sbci	r29, 0xFF	; 255
    5b7a:	48 83       	st	Y, r20
    5b7c:	c1 5e       	subi	r28, 0xE1	; 225
    5b7e:	d0 40       	sbci	r29, 0x00	; 0
    5b80:	5a 89       	ldd	r21, Y+18	; 0x12
    5b82:	ce 51       	subi	r28, 0x1E	; 30
    5b84:	df 4f       	sbci	r29, 0xFF	; 255
    5b86:	58 83       	st	Y, r21
    5b88:	c2 5e       	subi	r28, 0xE2	; 226
    5b8a:	d0 40       	sbci	r29, 0x00	; 0
    5b8c:	6b 89       	ldd	r22, Y+19	; 0x13
    5b8e:	cd 51       	subi	r28, 0x1D	; 29
    5b90:	df 4f       	sbci	r29, 0xFF	; 255
    5b92:	68 83       	st	Y, r22
    5b94:	c3 5e       	subi	r28, 0xE3	; 227
    5b96:	d0 40       	sbci	r29, 0x00	; 0
    5b98:	7c 89       	ldd	r23, Y+20	; 0x14
    5b9a:	cc 51       	subi	r28, 0x1C	; 28
    5b9c:	df 4f       	sbci	r29, 0xFF	; 255
    5b9e:	78 83       	st	Y, r23
    5ba0:	c4 5e       	subi	r28, 0xE4	; 228
    5ba2:	d0 40       	sbci	r29, 0x00	; 0
    5ba4:	8d 89       	ldd	r24, Y+21	; 0x15
    5ba6:	cb 51       	subi	r28, 0x1B	; 27
    5ba8:	df 4f       	sbci	r29, 0xFF	; 255
    5baa:	88 83       	st	Y, r24
    5bac:	c5 5e       	subi	r28, 0xE5	; 229
    5bae:	d0 40       	sbci	r29, 0x00	; 0
    5bb0:	c2 52       	subi	r28, 0x22	; 34
    5bb2:	df 4f       	sbci	r29, 0xFF	; 255
    5bb4:	28 81       	ld	r18, Y
    5bb6:	ce 5d       	subi	r28, 0xDE	; 222
    5bb8:	d0 40       	sbci	r29, 0x00	; 0
    5bba:	c1 52       	subi	r28, 0x21	; 33
    5bbc:	df 4f       	sbci	r29, 0xFF	; 255
    5bbe:	38 81       	ld	r19, Y
    5bc0:	cf 5d       	subi	r28, 0xDF	; 223
    5bc2:	d0 40       	sbci	r29, 0x00	; 0
    5bc4:	c0 52       	subi	r28, 0x20	; 32
    5bc6:	df 4f       	sbci	r29, 0xFF	; 255
    5bc8:	48 81       	ld	r20, Y
    5bca:	c0 5e       	subi	r28, 0xE0	; 224
    5bcc:	d0 40       	sbci	r29, 0x00	; 0
    5bce:	cf 51       	subi	r28, 0x1F	; 31
    5bd0:	df 4f       	sbci	r29, 0xFF	; 255
    5bd2:	58 81       	ld	r21, Y
    5bd4:	c1 5e       	subi	r28, 0xE1	; 225
    5bd6:	d0 40       	sbci	r29, 0x00	; 0
    5bd8:	ce 51       	subi	r28, 0x1E	; 30
    5bda:	df 4f       	sbci	r29, 0xFF	; 255
    5bdc:	68 81       	ld	r22, Y
    5bde:	c2 5e       	subi	r28, 0xE2	; 226
    5be0:	d0 40       	sbci	r29, 0x00	; 0
    5be2:	cd 51       	subi	r28, 0x1D	; 29
    5be4:	df 4f       	sbci	r29, 0xFF	; 255
    5be6:	78 81       	ld	r23, Y
    5be8:	c3 5e       	subi	r28, 0xE3	; 227
    5bea:	d0 40       	sbci	r29, 0x00	; 0
    5bec:	cc 51       	subi	r28, 0x1C	; 28
    5bee:	df 4f       	sbci	r29, 0xFF	; 255
    5bf0:	88 81       	ld	r24, Y
    5bf2:	c4 5e       	subi	r28, 0xE4	; 228
    5bf4:	d0 40       	sbci	r29, 0x00	; 0
    5bf6:	cb 51       	subi	r28, 0x1B	; 27
    5bf8:	df 4f       	sbci	r29, 0xFF	; 255
    5bfa:	98 81       	ld	r25, Y
    5bfc:	c5 5e       	subi	r28, 0xE5	; 229
    5bfe:	d0 40       	sbci	r29, 0x00	; 0
    5c00:	02 e0       	ldi	r16, 0x02	; 2
    5c02:	0e 94 89 39 	call	0x7312	; 0x7312 <__ashldi3>
    5c06:	a2 2e       	mov	r10, r18
    5c08:	b3 2e       	mov	r11, r19
    5c0a:	c4 2e       	mov	r12, r20
    5c0c:	d5 2e       	mov	r13, r21
    5c0e:	e6 2e       	mov	r14, r22
    5c10:	f7 2e       	mov	r15, r23
    5c12:	08 2f       	mov	r16, r24
    5c14:	19 2f       	mov	r17, r25
    5c16:	c2 52       	subi	r28, 0x22	; 34
    5c18:	df 4f       	sbci	r29, 0xFF	; 255
    5c1a:	a8 82       	st	Y, r10
    5c1c:	ce 5d       	subi	r28, 0xDE	; 222
    5c1e:	d0 40       	sbci	r29, 0x00	; 0
    5c20:	c1 52       	subi	r28, 0x21	; 33
    5c22:	df 4f       	sbci	r29, 0xFF	; 255
    5c24:	b8 82       	st	Y, r11
    5c26:	cf 5d       	subi	r28, 0xDF	; 223
    5c28:	d0 40       	sbci	r29, 0x00	; 0
    5c2a:	c0 52       	subi	r28, 0x20	; 32
    5c2c:	df 4f       	sbci	r29, 0xFF	; 255
    5c2e:	c8 82       	st	Y, r12
    5c30:	c0 5e       	subi	r28, 0xE0	; 224
    5c32:	d0 40       	sbci	r29, 0x00	; 0
    5c34:	cf 51       	subi	r28, 0x1F	; 31
    5c36:	df 4f       	sbci	r29, 0xFF	; 255
    5c38:	d8 82       	st	Y, r13
    5c3a:	c1 5e       	subi	r28, 0xE1	; 225
    5c3c:	d0 40       	sbci	r29, 0x00	; 0
    5c3e:	ce 51       	subi	r28, 0x1E	; 30
    5c40:	df 4f       	sbci	r29, 0xFF	; 255
    5c42:	e8 82       	st	Y, r14
    5c44:	c2 5e       	subi	r28, 0xE2	; 226
    5c46:	d0 40       	sbci	r29, 0x00	; 0
    5c48:	cd 51       	subi	r28, 0x1D	; 29
    5c4a:	df 4f       	sbci	r29, 0xFF	; 255
    5c4c:	f8 82       	st	Y, r15
    5c4e:	c3 5e       	subi	r28, 0xE3	; 227
    5c50:	d0 40       	sbci	r29, 0x00	; 0
    5c52:	cc 51       	subi	r28, 0x1C	; 28
    5c54:	df 4f       	sbci	r29, 0xFF	; 255
    5c56:	08 83       	st	Y, r16
    5c58:	c4 5e       	subi	r28, 0xE4	; 228
    5c5a:	d0 40       	sbci	r29, 0x00	; 0
    5c5c:	cb 51       	subi	r28, 0x1B	; 27
    5c5e:	df 4f       	sbci	r29, 0xFF	; 255
    5c60:	18 83       	st	Y, r17
    5c62:	c5 5e       	subi	r28, 0xE5	; 229
    5c64:	d0 40       	sbci	r29, 0x00	; 0
    5c66:	c2 52       	subi	r28, 0x22	; 34
    5c68:	df 4f       	sbci	r29, 0xFF	; 255
    5c6a:	28 81       	ld	r18, Y
    5c6c:	ce 5d       	subi	r28, 0xDE	; 222
    5c6e:	d0 40       	sbci	r29, 0x00	; 0
    5c70:	c1 52       	subi	r28, 0x21	; 33
    5c72:	df 4f       	sbci	r29, 0xFF	; 255
    5c74:	38 81       	ld	r19, Y
    5c76:	cf 5d       	subi	r28, 0xDF	; 223
    5c78:	d0 40       	sbci	r29, 0x00	; 0
    5c7a:	c0 52       	subi	r28, 0x20	; 32
    5c7c:	df 4f       	sbci	r29, 0xFF	; 255
    5c7e:	48 81       	ld	r20, Y
    5c80:	c0 5e       	subi	r28, 0xE0	; 224
    5c82:	d0 40       	sbci	r29, 0x00	; 0
    5c84:	cf 51       	subi	r28, 0x1F	; 31
    5c86:	df 4f       	sbci	r29, 0xFF	; 255
    5c88:	58 81       	ld	r21, Y
    5c8a:	c1 5e       	subi	r28, 0xE1	; 225
    5c8c:	d0 40       	sbci	r29, 0x00	; 0
    5c8e:	ce 51       	subi	r28, 0x1E	; 30
    5c90:	df 4f       	sbci	r29, 0xFF	; 255
    5c92:	68 81       	ld	r22, Y
    5c94:	c2 5e       	subi	r28, 0xE2	; 226
    5c96:	d0 40       	sbci	r29, 0x00	; 0
    5c98:	cd 51       	subi	r28, 0x1D	; 29
    5c9a:	df 4f       	sbci	r29, 0xFF	; 255
    5c9c:	78 81       	ld	r23, Y
    5c9e:	c3 5e       	subi	r28, 0xE3	; 227
    5ca0:	d0 40       	sbci	r29, 0x00	; 0
    5ca2:	cc 51       	subi	r28, 0x1C	; 28
    5ca4:	df 4f       	sbci	r29, 0xFF	; 255
    5ca6:	88 81       	ld	r24, Y
    5ca8:	c4 5e       	subi	r28, 0xE4	; 228
    5caa:	d0 40       	sbci	r29, 0x00	; 0
    5cac:	cb 51       	subi	r28, 0x1B	; 27
    5cae:	df 4f       	sbci	r29, 0xFF	; 255
    5cb0:	98 81       	ld	r25, Y
    5cb2:	c5 5e       	subi	r28, 0xE5	; 229
    5cb4:	d0 40       	sbci	r29, 0x00	; 0
    5cb6:	05 e0       	ldi	r16, 0x05	; 5
    5cb8:	0e 94 89 39 	call	0x7312	; 0x7312 <__ashldi3>
    5cbc:	22 2e       	mov	r2, r18
    5cbe:	33 2e       	mov	r3, r19
    5cc0:	44 2e       	mov	r4, r20
    5cc2:	55 2e       	mov	r5, r21
    5cc4:	66 2e       	mov	r6, r22
    5cc6:	77 2e       	mov	r7, r23
    5cc8:	88 2e       	mov	r8, r24
    5cca:	99 2e       	mov	r9, r25
    5ccc:	22 2d       	mov	r18, r2
    5cce:	33 2d       	mov	r19, r3
    5cd0:	44 2d       	mov	r20, r4
    5cd2:	55 2d       	mov	r21, r5
    5cd4:	66 2d       	mov	r22, r6
    5cd6:	77 2d       	mov	r23, r7
    5cd8:	88 2d       	mov	r24, r8
    5cda:	99 2d       	mov	r25, r9
    5cdc:	c2 52       	subi	r28, 0x22	; 34
    5cde:	df 4f       	sbci	r29, 0xFF	; 255
    5ce0:	a8 80       	ld	r10, Y
    5ce2:	ce 5d       	subi	r28, 0xDE	; 222
    5ce4:	d0 40       	sbci	r29, 0x00	; 0
    5ce6:	c1 52       	subi	r28, 0x21	; 33
    5ce8:	df 4f       	sbci	r29, 0xFF	; 255
    5cea:	b8 80       	ld	r11, Y
    5cec:	cf 5d       	subi	r28, 0xDF	; 223
    5cee:	d0 40       	sbci	r29, 0x00	; 0
    5cf0:	c0 52       	subi	r28, 0x20	; 32
    5cf2:	df 4f       	sbci	r29, 0xFF	; 255
    5cf4:	c8 80       	ld	r12, Y
    5cf6:	c0 5e       	subi	r28, 0xE0	; 224
    5cf8:	d0 40       	sbci	r29, 0x00	; 0
    5cfa:	cf 51       	subi	r28, 0x1F	; 31
    5cfc:	df 4f       	sbci	r29, 0xFF	; 255
    5cfe:	d8 80       	ld	r13, Y
    5d00:	c1 5e       	subi	r28, 0xE1	; 225
    5d02:	d0 40       	sbci	r29, 0x00	; 0
    5d04:	ce 51       	subi	r28, 0x1E	; 30
    5d06:	df 4f       	sbci	r29, 0xFF	; 255
    5d08:	e8 80       	ld	r14, Y
    5d0a:	c2 5e       	subi	r28, 0xE2	; 226
    5d0c:	d0 40       	sbci	r29, 0x00	; 0
    5d0e:	cd 51       	subi	r28, 0x1D	; 29
    5d10:	df 4f       	sbci	r29, 0xFF	; 255
    5d12:	f8 80       	ld	r15, Y
    5d14:	c3 5e       	subi	r28, 0xE3	; 227
    5d16:	d0 40       	sbci	r29, 0x00	; 0
    5d18:	cc 51       	subi	r28, 0x1C	; 28
    5d1a:	df 4f       	sbci	r29, 0xFF	; 255
    5d1c:	08 81       	ld	r16, Y
    5d1e:	c4 5e       	subi	r28, 0xE4	; 228
    5d20:	d0 40       	sbci	r29, 0x00	; 0
    5d22:	cb 51       	subi	r28, 0x1B	; 27
    5d24:	df 4f       	sbci	r29, 0xFF	; 255
    5d26:	18 81       	ld	r17, Y
    5d28:	c5 5e       	subi	r28, 0xE5	; 229
    5d2a:	d0 40       	sbci	r29, 0x00	; 0
    5d2c:	0e 94 a1 39 	call	0x7342	; 0x7342 <__subdi3>
    5d30:	22 2e       	mov	r2, r18
    5d32:	33 2e       	mov	r3, r19
    5d34:	44 2e       	mov	r4, r20
    5d36:	55 2e       	mov	r5, r21
    5d38:	66 2e       	mov	r6, r22
    5d3a:	77 2e       	mov	r7, r23
    5d3c:	88 2e       	mov	r8, r24
    5d3e:	99 2e       	mov	r9, r25
    5d40:	22 2d       	mov	r18, r2
    5d42:	33 2d       	mov	r19, r3
    5d44:	44 2d       	mov	r20, r4
    5d46:	55 2d       	mov	r21, r5
    5d48:	66 2d       	mov	r22, r6
    5d4a:	77 2d       	mov	r23, r7
    5d4c:	88 2d       	mov	r24, r8
    5d4e:	99 2d       	mov	r25, r9
    5d50:	ae 84       	ldd	r10, Y+14	; 0x0e
    5d52:	bf 84       	ldd	r11, Y+15	; 0x0f
    5d54:	c8 88       	ldd	r12, Y+16	; 0x10
    5d56:	d9 88       	ldd	r13, Y+17	; 0x11
    5d58:	ea 88       	ldd	r14, Y+18	; 0x12
    5d5a:	fb 88       	ldd	r15, Y+19	; 0x13
    5d5c:	0c 89       	ldd	r16, Y+20	; 0x14
    5d5e:	1d 89       	ldd	r17, Y+21	; 0x15
    5d60:	0e 94 98 39 	call	0x7330	; 0x7330 <__adddi3>
    5d64:	22 2e       	mov	r2, r18
    5d66:	33 2e       	mov	r3, r19
    5d68:	44 2e       	mov	r4, r20
    5d6a:	55 2e       	mov	r5, r21
    5d6c:	66 2e       	mov	r6, r22
    5d6e:	77 2e       	mov	r7, r23
    5d70:	88 2e       	mov	r8, r24
    5d72:	99 2e       	mov	r9, r25
    5d74:	22 2d       	mov	r18, r2
    5d76:	33 2d       	mov	r19, r3
    5d78:	44 2d       	mov	r20, r4
    5d7a:	55 2d       	mov	r21, r5
    5d7c:	66 2d       	mov	r22, r6
    5d7e:	77 2d       	mov	r23, r7
    5d80:	88 2d       	mov	r24, r8
    5d82:	99 2d       	mov	r25, r9
    5d84:	04 e0       	ldi	r16, 0x04	; 4
    5d86:	0e 94 89 39 	call	0x7312	; 0x7312 <__ashldi3>
    5d8a:	a2 2e       	mov	r10, r18
    5d8c:	b3 2e       	mov	r11, r19
    5d8e:	c4 2e       	mov	r12, r20
    5d90:	d5 2e       	mov	r13, r21
    5d92:	e6 2e       	mov	r14, r22
    5d94:	f7 2e       	mov	r15, r23
    5d96:	08 2f       	mov	r16, r24
    5d98:	19 2f       	mov	r17, r25
    5d9a:	2a 2c       	mov	r2, r10
    5d9c:	3b 2c       	mov	r3, r11
    5d9e:	4c 2c       	mov	r4, r12
    5da0:	5d 2c       	mov	r5, r13
    5da2:	6e 2c       	mov	r6, r14
    5da4:	7f 2c       	mov	r7, r15
    5da6:	80 2e       	mov	r8, r16
    5da8:	91 2e       	mov	r9, r17
    5daa:	a2 2c       	mov	r10, r2
    5dac:	b3 2c       	mov	r11, r3
    5dae:	c4 2c       	mov	r12, r4
    5db0:	d5 2c       	mov	r13, r5
    5db2:	e6 2c       	mov	r14, r6
    5db4:	f7 2c       	mov	r15, r7
    5db6:	08 2d       	mov	r16, r8
    5db8:	19 2d       	mov	r17, r9
    5dba:	2a 2d       	mov	r18, r10
    5dbc:	3b 2d       	mov	r19, r11
    5dbe:	4c 2d       	mov	r20, r12
    5dc0:	5d 2d       	mov	r21, r13
    5dc2:	6e 2d       	mov	r22, r14
    5dc4:	7f 2d       	mov	r23, r15
    5dc6:	80 2f       	mov	r24, r16
    5dc8:	91 2f       	mov	r25, r17
    5dca:	29 51       	subi	r18, 0x19	; 25
    5dcc:	3c 4f       	sbci	r19, 0xFC	; 252
    5dce:	4f 4f       	sbci	r20, 0xFF	; 255
    5dd0:	5f 4f       	sbci	r21, 0xFF	; 255
    5dd2:	6f 4f       	sbci	r22, 0xFF	; 255
    5dd4:	7f 4f       	sbci	r23, 0xFF	; 255
    5dd6:	8f 4f       	sbci	r24, 0xFF	; 255
    5dd8:	9f 4f       	sbci	r25, 0xFF	; 255
    5dda:	a2 2e       	mov	r10, r18
    5ddc:	b3 2e       	mov	r11, r19
    5dde:	c4 2e       	mov	r12, r20
    5de0:	d5 2e       	mov	r13, r21
    5de2:	e6 2e       	mov	r14, r22
    5de4:	f7 2e       	mov	r15, r23
    5de6:	08 2f       	mov	r16, r24
    5de8:	19 2f       	mov	r17, r25
    5dea:	2a 2d       	mov	r18, r10
    5dec:	3b 2d       	mov	r19, r11
    5dee:	4c 2d       	mov	r20, r12
    5df0:	5d 2d       	mov	r21, r13
    5df2:	6e 2d       	mov	r22, r14
    5df4:	7f 2d       	mov	r23, r15
    5df6:	80 2f       	mov	r24, r16
    5df8:	91 2f       	mov	r25, r17
    5dfa:	0e 94 f6 01 	call	0x3ec	; 0x3ec <__floatundisf>
    5dfe:	dc 01       	movw	r26, r24
    5e00:	cb 01       	movw	r24, r22
    5e02:	20 e0       	ldi	r18, 0x00	; 0
    5e04:	30 e8       	ldi	r19, 0x80	; 128
    5e06:	4b eb       	ldi	r20, 0xBB	; 187
    5e08:	55 e4       	ldi	r21, 0x45	; 69
    5e0a:	bc 01       	movw	r22, r24
    5e0c:	cd 01       	movw	r24, r26
    5e0e:	0e 94 71 03 	call	0x6e2	; 0x6e2 <__divsf3>
    5e12:	dc 01       	movw	r26, r24
    5e14:	cb 01       	movw	r24, r22
    5e16:	bc 01       	movw	r22, r24
    5e18:	cd 01       	movw	r24, r26
    5e1a:	0e 94 45 01 	call	0x28a	; 0x28a <__fixunssfdi>
    5e1e:	a2 2e       	mov	r10, r18
    5e20:	b3 2e       	mov	r11, r19
    5e22:	c4 2e       	mov	r12, r20
    5e24:	d5 2e       	mov	r13, r21
    5e26:	e6 2e       	mov	r14, r22
    5e28:	f7 2e       	mov	r15, r23
    5e2a:	08 2f       	mov	r16, r24
    5e2c:	19 2f       	mov	r17, r25
    5e2e:	d6 01       	movw	r26, r12
    5e30:	c5 01       	movw	r24, r10
    5e32:	bc 01       	movw	r22, r24
    5e34:	cd 01       	movw	r24, r26
    5e36:	0e 94 bf 17 	call	0x2f7e	; 0x2f7e <__portable_avr_delay_cycles>
					showMeByte(0);
    5e3a:	80 e0       	ldi	r24, 0x00	; 0
    5e3c:	0e 94 66 1b 	call	0x36cc	; 0x36cc <showMeByte>
					delay_ms(500);
    5e40:	0e 94 b3 17 	call	0x2f66	; 0x2f66 <sysclk_get_cpu_hz>
    5e44:	dc 01       	movw	r26, r24
    5e46:	cb 01       	movw	r24, r22
    5e48:	8c 01       	movw	r16, r24
    5e4a:	9d 01       	movw	r18, r26
    5e4c:	40 e0       	ldi	r20, 0x00	; 0
    5e4e:	50 e0       	ldi	r21, 0x00	; 0
    5e50:	ba 01       	movw	r22, r20
    5e52:	0e 8b       	std	Y+22, r16	; 0x16
    5e54:	1f 8b       	std	Y+23, r17	; 0x17
    5e56:	28 8f       	std	Y+24, r18	; 0x18
    5e58:	39 8f       	std	Y+25, r19	; 0x19
    5e5a:	4a 8f       	std	Y+26, r20	; 0x1a
    5e5c:	5b 8f       	std	Y+27, r21	; 0x1b
    5e5e:	6c 8f       	std	Y+28, r22	; 0x1c
    5e60:	7d 8f       	std	Y+29, r23	; 0x1d
    5e62:	1e 89       	ldd	r17, Y+22	; 0x16
    5e64:	ca 51       	subi	r28, 0x1A	; 26
    5e66:	df 4f       	sbci	r29, 0xFF	; 255
    5e68:	18 83       	st	Y, r17
    5e6a:	c6 5e       	subi	r28, 0xE6	; 230
    5e6c:	d0 40       	sbci	r29, 0x00	; 0
    5e6e:	2f 89       	ldd	r18, Y+23	; 0x17
    5e70:	c9 51       	subi	r28, 0x19	; 25
    5e72:	df 4f       	sbci	r29, 0xFF	; 255
    5e74:	28 83       	st	Y, r18
    5e76:	c7 5e       	subi	r28, 0xE7	; 231
    5e78:	d0 40       	sbci	r29, 0x00	; 0
    5e7a:	38 8d       	ldd	r19, Y+24	; 0x18
    5e7c:	c8 51       	subi	r28, 0x18	; 24
    5e7e:	df 4f       	sbci	r29, 0xFF	; 255
    5e80:	38 83       	st	Y, r19
    5e82:	c8 5e       	subi	r28, 0xE8	; 232
    5e84:	d0 40       	sbci	r29, 0x00	; 0
    5e86:	49 8d       	ldd	r20, Y+25	; 0x19
    5e88:	c7 51       	subi	r28, 0x17	; 23
    5e8a:	df 4f       	sbci	r29, 0xFF	; 255
    5e8c:	48 83       	st	Y, r20
    5e8e:	c9 5e       	subi	r28, 0xE9	; 233
    5e90:	d0 40       	sbci	r29, 0x00	; 0
    5e92:	5a 8d       	ldd	r21, Y+26	; 0x1a
    5e94:	c6 51       	subi	r28, 0x16	; 22
    5e96:	df 4f       	sbci	r29, 0xFF	; 255
    5e98:	58 83       	st	Y, r21
    5e9a:	ca 5e       	subi	r28, 0xEA	; 234
    5e9c:	d0 40       	sbci	r29, 0x00	; 0
    5e9e:	6b 8d       	ldd	r22, Y+27	; 0x1b
    5ea0:	c5 51       	subi	r28, 0x15	; 21
    5ea2:	df 4f       	sbci	r29, 0xFF	; 255
    5ea4:	68 83       	st	Y, r22
    5ea6:	cb 5e       	subi	r28, 0xEB	; 235
    5ea8:	d0 40       	sbci	r29, 0x00	; 0
    5eaa:	7c 8d       	ldd	r23, Y+28	; 0x1c
    5eac:	c4 51       	subi	r28, 0x14	; 20
    5eae:	df 4f       	sbci	r29, 0xFF	; 255
    5eb0:	78 83       	st	Y, r23
    5eb2:	cc 5e       	subi	r28, 0xEC	; 236
    5eb4:	d0 40       	sbci	r29, 0x00	; 0
    5eb6:	8d 8d       	ldd	r24, Y+29	; 0x1d
    5eb8:	c3 51       	subi	r28, 0x13	; 19
    5eba:	df 4f       	sbci	r29, 0xFF	; 255
    5ebc:	88 83       	st	Y, r24
    5ebe:	cd 5e       	subi	r28, 0xED	; 237
    5ec0:	d0 40       	sbci	r29, 0x00	; 0
    5ec2:	ca 51       	subi	r28, 0x1A	; 26
    5ec4:	df 4f       	sbci	r29, 0xFF	; 255
    5ec6:	28 81       	ld	r18, Y
    5ec8:	c6 5e       	subi	r28, 0xE6	; 230
    5eca:	d0 40       	sbci	r29, 0x00	; 0
    5ecc:	c9 51       	subi	r28, 0x19	; 25
    5ece:	df 4f       	sbci	r29, 0xFF	; 255
    5ed0:	38 81       	ld	r19, Y
    5ed2:	c7 5e       	subi	r28, 0xE7	; 231
    5ed4:	d0 40       	sbci	r29, 0x00	; 0
    5ed6:	c8 51       	subi	r28, 0x18	; 24
    5ed8:	df 4f       	sbci	r29, 0xFF	; 255
    5eda:	48 81       	ld	r20, Y
    5edc:	c8 5e       	subi	r28, 0xE8	; 232
    5ede:	d0 40       	sbci	r29, 0x00	; 0
    5ee0:	c7 51       	subi	r28, 0x17	; 23
    5ee2:	df 4f       	sbci	r29, 0xFF	; 255
    5ee4:	58 81       	ld	r21, Y
    5ee6:	c9 5e       	subi	r28, 0xE9	; 233
    5ee8:	d0 40       	sbci	r29, 0x00	; 0
    5eea:	c6 51       	subi	r28, 0x16	; 22
    5eec:	df 4f       	sbci	r29, 0xFF	; 255
    5eee:	68 81       	ld	r22, Y
    5ef0:	ca 5e       	subi	r28, 0xEA	; 234
    5ef2:	d0 40       	sbci	r29, 0x00	; 0
    5ef4:	c5 51       	subi	r28, 0x15	; 21
    5ef6:	df 4f       	sbci	r29, 0xFF	; 255
    5ef8:	78 81       	ld	r23, Y
    5efa:	cb 5e       	subi	r28, 0xEB	; 235
    5efc:	d0 40       	sbci	r29, 0x00	; 0
    5efe:	c4 51       	subi	r28, 0x14	; 20
    5f00:	df 4f       	sbci	r29, 0xFF	; 255
    5f02:	88 81       	ld	r24, Y
    5f04:	cc 5e       	subi	r28, 0xEC	; 236
    5f06:	d0 40       	sbci	r29, 0x00	; 0
    5f08:	c3 51       	subi	r28, 0x13	; 19
    5f0a:	df 4f       	sbci	r29, 0xFF	; 255
    5f0c:	98 81       	ld	r25, Y
    5f0e:	cd 5e       	subi	r28, 0xED	; 237
    5f10:	d0 40       	sbci	r29, 0x00	; 0
    5f12:	02 e0       	ldi	r16, 0x02	; 2
    5f14:	0e 94 89 39 	call	0x7312	; 0x7312 <__ashldi3>
    5f18:	a2 2e       	mov	r10, r18
    5f1a:	b3 2e       	mov	r11, r19
    5f1c:	c4 2e       	mov	r12, r20
    5f1e:	d5 2e       	mov	r13, r21
    5f20:	e6 2e       	mov	r14, r22
    5f22:	f7 2e       	mov	r15, r23
    5f24:	08 2f       	mov	r16, r24
    5f26:	19 2f       	mov	r17, r25
    5f28:	ca 51       	subi	r28, 0x1A	; 26
    5f2a:	df 4f       	sbci	r29, 0xFF	; 255
    5f2c:	a8 82       	st	Y, r10
    5f2e:	c6 5e       	subi	r28, 0xE6	; 230
    5f30:	d0 40       	sbci	r29, 0x00	; 0
    5f32:	c9 51       	subi	r28, 0x19	; 25
    5f34:	df 4f       	sbci	r29, 0xFF	; 255
    5f36:	b8 82       	st	Y, r11
    5f38:	c7 5e       	subi	r28, 0xE7	; 231
    5f3a:	d0 40       	sbci	r29, 0x00	; 0
    5f3c:	c8 51       	subi	r28, 0x18	; 24
    5f3e:	df 4f       	sbci	r29, 0xFF	; 255
    5f40:	c8 82       	st	Y, r12
    5f42:	c8 5e       	subi	r28, 0xE8	; 232
    5f44:	d0 40       	sbci	r29, 0x00	; 0
    5f46:	c7 51       	subi	r28, 0x17	; 23
    5f48:	df 4f       	sbci	r29, 0xFF	; 255
    5f4a:	d8 82       	st	Y, r13
    5f4c:	c9 5e       	subi	r28, 0xE9	; 233
    5f4e:	d0 40       	sbci	r29, 0x00	; 0
    5f50:	c6 51       	subi	r28, 0x16	; 22
    5f52:	df 4f       	sbci	r29, 0xFF	; 255
    5f54:	e8 82       	st	Y, r14
    5f56:	ca 5e       	subi	r28, 0xEA	; 234
    5f58:	d0 40       	sbci	r29, 0x00	; 0
    5f5a:	c5 51       	subi	r28, 0x15	; 21
    5f5c:	df 4f       	sbci	r29, 0xFF	; 255
    5f5e:	f8 82       	st	Y, r15
    5f60:	cb 5e       	subi	r28, 0xEB	; 235
    5f62:	d0 40       	sbci	r29, 0x00	; 0
    5f64:	c4 51       	subi	r28, 0x14	; 20
    5f66:	df 4f       	sbci	r29, 0xFF	; 255
    5f68:	08 83       	st	Y, r16
    5f6a:	cc 5e       	subi	r28, 0xEC	; 236
    5f6c:	d0 40       	sbci	r29, 0x00	; 0
    5f6e:	c3 51       	subi	r28, 0x13	; 19
    5f70:	df 4f       	sbci	r29, 0xFF	; 255
    5f72:	18 83       	st	Y, r17
    5f74:	cd 5e       	subi	r28, 0xED	; 237
    5f76:	d0 40       	sbci	r29, 0x00	; 0
    5f78:	ca 51       	subi	r28, 0x1A	; 26
    5f7a:	df 4f       	sbci	r29, 0xFF	; 255
    5f7c:	28 81       	ld	r18, Y
    5f7e:	c6 5e       	subi	r28, 0xE6	; 230
    5f80:	d0 40       	sbci	r29, 0x00	; 0
    5f82:	c9 51       	subi	r28, 0x19	; 25
    5f84:	df 4f       	sbci	r29, 0xFF	; 255
    5f86:	38 81       	ld	r19, Y
    5f88:	c7 5e       	subi	r28, 0xE7	; 231
    5f8a:	d0 40       	sbci	r29, 0x00	; 0
    5f8c:	c8 51       	subi	r28, 0x18	; 24
    5f8e:	df 4f       	sbci	r29, 0xFF	; 255
    5f90:	48 81       	ld	r20, Y
    5f92:	c8 5e       	subi	r28, 0xE8	; 232
    5f94:	d0 40       	sbci	r29, 0x00	; 0
    5f96:	c7 51       	subi	r28, 0x17	; 23
    5f98:	df 4f       	sbci	r29, 0xFF	; 255
    5f9a:	58 81       	ld	r21, Y
    5f9c:	c9 5e       	subi	r28, 0xE9	; 233
    5f9e:	d0 40       	sbci	r29, 0x00	; 0
    5fa0:	c6 51       	subi	r28, 0x16	; 22
    5fa2:	df 4f       	sbci	r29, 0xFF	; 255
    5fa4:	68 81       	ld	r22, Y
    5fa6:	ca 5e       	subi	r28, 0xEA	; 234
    5fa8:	d0 40       	sbci	r29, 0x00	; 0
    5faa:	c5 51       	subi	r28, 0x15	; 21
    5fac:	df 4f       	sbci	r29, 0xFF	; 255
    5fae:	78 81       	ld	r23, Y
    5fb0:	cb 5e       	subi	r28, 0xEB	; 235
    5fb2:	d0 40       	sbci	r29, 0x00	; 0
    5fb4:	c4 51       	subi	r28, 0x14	; 20
    5fb6:	df 4f       	sbci	r29, 0xFF	; 255
    5fb8:	88 81       	ld	r24, Y
    5fba:	cc 5e       	subi	r28, 0xEC	; 236
    5fbc:	d0 40       	sbci	r29, 0x00	; 0
    5fbe:	c3 51       	subi	r28, 0x13	; 19
    5fc0:	df 4f       	sbci	r29, 0xFF	; 255
    5fc2:	98 81       	ld	r25, Y
    5fc4:	cd 5e       	subi	r28, 0xED	; 237
    5fc6:	d0 40       	sbci	r29, 0x00	; 0
    5fc8:	05 e0       	ldi	r16, 0x05	; 5
    5fca:	0e 94 89 39 	call	0x7312	; 0x7312 <__ashldi3>
    5fce:	22 2e       	mov	r2, r18
    5fd0:	33 2e       	mov	r3, r19
    5fd2:	44 2e       	mov	r4, r20
    5fd4:	55 2e       	mov	r5, r21
    5fd6:	66 2e       	mov	r6, r22
    5fd8:	77 2e       	mov	r7, r23
    5fda:	88 2e       	mov	r8, r24
    5fdc:	99 2e       	mov	r9, r25
    5fde:	22 2d       	mov	r18, r2
    5fe0:	33 2d       	mov	r19, r3
    5fe2:	44 2d       	mov	r20, r4
    5fe4:	55 2d       	mov	r21, r5
    5fe6:	66 2d       	mov	r22, r6
    5fe8:	77 2d       	mov	r23, r7
    5fea:	88 2d       	mov	r24, r8
    5fec:	99 2d       	mov	r25, r9
    5fee:	ca 51       	subi	r28, 0x1A	; 26
    5ff0:	df 4f       	sbci	r29, 0xFF	; 255
    5ff2:	a8 80       	ld	r10, Y
    5ff4:	c6 5e       	subi	r28, 0xE6	; 230
    5ff6:	d0 40       	sbci	r29, 0x00	; 0
    5ff8:	c9 51       	subi	r28, 0x19	; 25
    5ffa:	df 4f       	sbci	r29, 0xFF	; 255
    5ffc:	b8 80       	ld	r11, Y
    5ffe:	c7 5e       	subi	r28, 0xE7	; 231
    6000:	d0 40       	sbci	r29, 0x00	; 0
    6002:	c8 51       	subi	r28, 0x18	; 24
    6004:	df 4f       	sbci	r29, 0xFF	; 255
    6006:	c8 80       	ld	r12, Y
    6008:	c8 5e       	subi	r28, 0xE8	; 232
    600a:	d0 40       	sbci	r29, 0x00	; 0
    600c:	c7 51       	subi	r28, 0x17	; 23
    600e:	df 4f       	sbci	r29, 0xFF	; 255
    6010:	d8 80       	ld	r13, Y
    6012:	c9 5e       	subi	r28, 0xE9	; 233
    6014:	d0 40       	sbci	r29, 0x00	; 0
    6016:	c6 51       	subi	r28, 0x16	; 22
    6018:	df 4f       	sbci	r29, 0xFF	; 255
    601a:	e8 80       	ld	r14, Y
    601c:	ca 5e       	subi	r28, 0xEA	; 234
    601e:	d0 40       	sbci	r29, 0x00	; 0
    6020:	c5 51       	subi	r28, 0x15	; 21
    6022:	df 4f       	sbci	r29, 0xFF	; 255
    6024:	f8 80       	ld	r15, Y
    6026:	cb 5e       	subi	r28, 0xEB	; 235
    6028:	d0 40       	sbci	r29, 0x00	; 0
    602a:	c4 51       	subi	r28, 0x14	; 20
    602c:	df 4f       	sbci	r29, 0xFF	; 255
    602e:	08 81       	ld	r16, Y
    6030:	cc 5e       	subi	r28, 0xEC	; 236
    6032:	d0 40       	sbci	r29, 0x00	; 0
    6034:	c3 51       	subi	r28, 0x13	; 19
    6036:	df 4f       	sbci	r29, 0xFF	; 255
    6038:	18 81       	ld	r17, Y
    603a:	cd 5e       	subi	r28, 0xED	; 237
    603c:	d0 40       	sbci	r29, 0x00	; 0
    603e:	0e 94 a1 39 	call	0x7342	; 0x7342 <__subdi3>
    6042:	22 2e       	mov	r2, r18
    6044:	33 2e       	mov	r3, r19
    6046:	44 2e       	mov	r4, r20
    6048:	55 2e       	mov	r5, r21
    604a:	66 2e       	mov	r6, r22
    604c:	77 2e       	mov	r7, r23
    604e:	88 2e       	mov	r8, r24
    6050:	99 2e       	mov	r9, r25
    6052:	22 2d       	mov	r18, r2
    6054:	33 2d       	mov	r19, r3
    6056:	44 2d       	mov	r20, r4
    6058:	55 2d       	mov	r21, r5
    605a:	66 2d       	mov	r22, r6
    605c:	77 2d       	mov	r23, r7
    605e:	88 2d       	mov	r24, r8
    6060:	99 2d       	mov	r25, r9
    6062:	ae 88       	ldd	r10, Y+22	; 0x16
    6064:	bf 88       	ldd	r11, Y+23	; 0x17
    6066:	c8 8c       	ldd	r12, Y+24	; 0x18
    6068:	d9 8c       	ldd	r13, Y+25	; 0x19
    606a:	ea 8c       	ldd	r14, Y+26	; 0x1a
    606c:	fb 8c       	ldd	r15, Y+27	; 0x1b
    606e:	0c 8d       	ldd	r16, Y+28	; 0x1c
    6070:	1d 8d       	ldd	r17, Y+29	; 0x1d
    6072:	0e 94 98 39 	call	0x7330	; 0x7330 <__adddi3>
    6076:	22 2e       	mov	r2, r18
    6078:	33 2e       	mov	r3, r19
    607a:	44 2e       	mov	r4, r20
    607c:	55 2e       	mov	r5, r21
    607e:	66 2e       	mov	r6, r22
    6080:	77 2e       	mov	r7, r23
    6082:	88 2e       	mov	r8, r24
    6084:	99 2e       	mov	r9, r25
    6086:	22 2d       	mov	r18, r2
    6088:	33 2d       	mov	r19, r3
    608a:	44 2d       	mov	r20, r4
    608c:	55 2d       	mov	r21, r5
    608e:	66 2d       	mov	r22, r6
    6090:	77 2d       	mov	r23, r7
    6092:	88 2d       	mov	r24, r8
    6094:	99 2d       	mov	r25, r9
    6096:	02 e0       	ldi	r16, 0x02	; 2
    6098:	0e 94 89 39 	call	0x7312	; 0x7312 <__ashldi3>
    609c:	a2 2e       	mov	r10, r18
    609e:	b3 2e       	mov	r11, r19
    60a0:	c4 2e       	mov	r12, r20
    60a2:	d5 2e       	mov	r13, r21
    60a4:	e6 2e       	mov	r14, r22
    60a6:	f7 2e       	mov	r15, r23
    60a8:	08 2f       	mov	r16, r24
    60aa:	19 2f       	mov	r17, r25
    60ac:	2a 2c       	mov	r2, r10
    60ae:	3b 2c       	mov	r3, r11
    60b0:	4c 2c       	mov	r4, r12
    60b2:	5d 2c       	mov	r5, r13
    60b4:	6e 2c       	mov	r6, r14
    60b6:	7f 2c       	mov	r7, r15
    60b8:	80 2e       	mov	r8, r16
    60ba:	91 2e       	mov	r9, r17
    60bc:	a2 2c       	mov	r10, r2
    60be:	b3 2c       	mov	r11, r3
    60c0:	c4 2c       	mov	r12, r4
    60c2:	d5 2c       	mov	r13, r5
    60c4:	e6 2c       	mov	r14, r6
    60c6:	f7 2c       	mov	r15, r7
    60c8:	08 2d       	mov	r16, r8
    60ca:	19 2d       	mov	r17, r9
    60cc:	2a 2d       	mov	r18, r10
    60ce:	3b 2d       	mov	r19, r11
    60d0:	4c 2d       	mov	r20, r12
    60d2:	5d 2d       	mov	r21, r13
    60d4:	6e 2d       	mov	r22, r14
    60d6:	7f 2d       	mov	r23, r15
    60d8:	80 2f       	mov	r24, r16
    60da:	91 2f       	mov	r25, r17
    60dc:	29 51       	subi	r18, 0x19	; 25
    60de:	3c 4f       	sbci	r19, 0xFC	; 252
    60e0:	4f 4f       	sbci	r20, 0xFF	; 255
    60e2:	5f 4f       	sbci	r21, 0xFF	; 255
    60e4:	6f 4f       	sbci	r22, 0xFF	; 255
    60e6:	7f 4f       	sbci	r23, 0xFF	; 255
    60e8:	8f 4f       	sbci	r24, 0xFF	; 255
    60ea:	9f 4f       	sbci	r25, 0xFF	; 255
    60ec:	a2 2e       	mov	r10, r18
    60ee:	b3 2e       	mov	r11, r19
    60f0:	c4 2e       	mov	r12, r20
    60f2:	d5 2e       	mov	r13, r21
    60f4:	e6 2e       	mov	r14, r22
    60f6:	f7 2e       	mov	r15, r23
    60f8:	08 2f       	mov	r16, r24
    60fa:	19 2f       	mov	r17, r25
    60fc:	2a 2d       	mov	r18, r10
    60fe:	3b 2d       	mov	r19, r11
    6100:	4c 2d       	mov	r20, r12
    6102:	5d 2d       	mov	r21, r13
    6104:	6e 2d       	mov	r22, r14
    6106:	7f 2d       	mov	r23, r15
    6108:	80 2f       	mov	r24, r16
    610a:	91 2f       	mov	r25, r17
    610c:	0e 94 f6 01 	call	0x3ec	; 0x3ec <__floatundisf>
    6110:	dc 01       	movw	r26, r24
    6112:	cb 01       	movw	r24, r22
    6114:	20 e0       	ldi	r18, 0x00	; 0
    6116:	30 e8       	ldi	r19, 0x80	; 128
    6118:	4b eb       	ldi	r20, 0xBB	; 187
    611a:	55 e4       	ldi	r21, 0x45	; 69
    611c:	bc 01       	movw	r22, r24
    611e:	cd 01       	movw	r24, r26
    6120:	0e 94 71 03 	call	0x6e2	; 0x6e2 <__divsf3>
    6124:	dc 01       	movw	r26, r24
    6126:	cb 01       	movw	r24, r22
    6128:	bc 01       	movw	r22, r24
    612a:	cd 01       	movw	r24, r26
    612c:	0e 94 45 01 	call	0x28a	; 0x28a <__fixunssfdi>
    6130:	a2 2e       	mov	r10, r18
    6132:	b3 2e       	mov	r11, r19
    6134:	c4 2e       	mov	r12, r20
    6136:	d5 2e       	mov	r13, r21
    6138:	e6 2e       	mov	r14, r22
    613a:	f7 2e       	mov	r15, r23
    613c:	08 2f       	mov	r16, r24
    613e:	19 2f       	mov	r17, r25
    6140:	d6 01       	movw	r26, r12
    6142:	c5 01       	movw	r24, r10
    6144:	bc 01       	movw	r22, r24
    6146:	cd 01       	movw	r24, r26
    6148:	0e 94 bf 17 	call	0x2f7e	; 0x2f7e <__portable_avr_delay_cycles>
					showMeByte(COA_Measurments[0] >> 16);
    614c:	80 91 63 20 	lds	r24, 0x2063
    6150:	90 91 64 20 	lds	r25, 0x2064
    6154:	a0 91 65 20 	lds	r26, 0x2065
    6158:	b0 91 66 20 	lds	r27, 0x2066
    615c:	cd 01       	movw	r24, r26
    615e:	aa 27       	eor	r26, r26
    6160:	bb 27       	eor	r27, r27
    6162:	0e 94 66 1b 	call	0x36cc	; 0x36cc <showMeByte>
					delay_ms(2000);
    6166:	0e 94 b3 17 	call	0x2f66	; 0x2f66 <sysclk_get_cpu_hz>
    616a:	dc 01       	movw	r26, r24
    616c:	cb 01       	movw	r24, r22
    616e:	8c 01       	movw	r16, r24
    6170:	9d 01       	movw	r18, r26
    6172:	40 e0       	ldi	r20, 0x00	; 0
    6174:	50 e0       	ldi	r21, 0x00	; 0
    6176:	ba 01       	movw	r22, r20
    6178:	0e 8f       	std	Y+30, r16	; 0x1e
    617a:	1f 8f       	std	Y+31, r17	; 0x1f
    617c:	28 a3       	std	Y+32, r18	; 0x20
    617e:	39 a3       	std	Y+33, r19	; 0x21
    6180:	4a a3       	std	Y+34, r20	; 0x22
    6182:	5b a3       	std	Y+35, r21	; 0x23
    6184:	6c a3       	std	Y+36, r22	; 0x24
    6186:	7d a3       	std	Y+37, r23	; 0x25
    6188:	1e 8d       	ldd	r17, Y+30	; 0x1e
    618a:	c2 51       	subi	r28, 0x12	; 18
    618c:	df 4f       	sbci	r29, 0xFF	; 255
    618e:	18 83       	st	Y, r17
    6190:	ce 5e       	subi	r28, 0xEE	; 238
    6192:	d0 40       	sbci	r29, 0x00	; 0
    6194:	2f 8d       	ldd	r18, Y+31	; 0x1f
    6196:	c1 51       	subi	r28, 0x11	; 17
    6198:	df 4f       	sbci	r29, 0xFF	; 255
    619a:	28 83       	st	Y, r18
    619c:	cf 5e       	subi	r28, 0xEF	; 239
    619e:	d0 40       	sbci	r29, 0x00	; 0
    61a0:	38 a1       	ldd	r19, Y+32	; 0x20
    61a2:	c0 51       	subi	r28, 0x10	; 16
    61a4:	df 4f       	sbci	r29, 0xFF	; 255
    61a6:	38 83       	st	Y, r19
    61a8:	c0 5f       	subi	r28, 0xF0	; 240
    61aa:	d0 40       	sbci	r29, 0x00	; 0
    61ac:	49 a1       	ldd	r20, Y+33	; 0x21
    61ae:	cf 50       	subi	r28, 0x0F	; 15
    61b0:	df 4f       	sbci	r29, 0xFF	; 255
    61b2:	48 83       	st	Y, r20
    61b4:	c1 5f       	subi	r28, 0xF1	; 241
    61b6:	d0 40       	sbci	r29, 0x00	; 0
    61b8:	5a a1       	ldd	r21, Y+34	; 0x22
    61ba:	ce 50       	subi	r28, 0x0E	; 14
    61bc:	df 4f       	sbci	r29, 0xFF	; 255
    61be:	58 83       	st	Y, r21
    61c0:	c2 5f       	subi	r28, 0xF2	; 242
    61c2:	d0 40       	sbci	r29, 0x00	; 0
    61c4:	6b a1       	ldd	r22, Y+35	; 0x23
    61c6:	cd 50       	subi	r28, 0x0D	; 13
    61c8:	df 4f       	sbci	r29, 0xFF	; 255
    61ca:	68 83       	st	Y, r22
    61cc:	c3 5f       	subi	r28, 0xF3	; 243
    61ce:	d0 40       	sbci	r29, 0x00	; 0
    61d0:	7c a1       	ldd	r23, Y+36	; 0x24
    61d2:	cc 50       	subi	r28, 0x0C	; 12
    61d4:	df 4f       	sbci	r29, 0xFF	; 255
    61d6:	78 83       	st	Y, r23
    61d8:	c4 5f       	subi	r28, 0xF4	; 244
    61da:	d0 40       	sbci	r29, 0x00	; 0
    61dc:	8d a1       	ldd	r24, Y+37	; 0x25
    61de:	cb 50       	subi	r28, 0x0B	; 11
    61e0:	df 4f       	sbci	r29, 0xFF	; 255
    61e2:	88 83       	st	Y, r24
    61e4:	c5 5f       	subi	r28, 0xF5	; 245
    61e6:	d0 40       	sbci	r29, 0x00	; 0
    61e8:	c2 51       	subi	r28, 0x12	; 18
    61ea:	df 4f       	sbci	r29, 0xFF	; 255
    61ec:	28 81       	ld	r18, Y
    61ee:	ce 5e       	subi	r28, 0xEE	; 238
    61f0:	d0 40       	sbci	r29, 0x00	; 0
    61f2:	c1 51       	subi	r28, 0x11	; 17
    61f4:	df 4f       	sbci	r29, 0xFF	; 255
    61f6:	38 81       	ld	r19, Y
    61f8:	cf 5e       	subi	r28, 0xEF	; 239
    61fa:	d0 40       	sbci	r29, 0x00	; 0
    61fc:	c0 51       	subi	r28, 0x10	; 16
    61fe:	df 4f       	sbci	r29, 0xFF	; 255
    6200:	48 81       	ld	r20, Y
    6202:	c0 5f       	subi	r28, 0xF0	; 240
    6204:	d0 40       	sbci	r29, 0x00	; 0
    6206:	cf 50       	subi	r28, 0x0F	; 15
    6208:	df 4f       	sbci	r29, 0xFF	; 255
    620a:	58 81       	ld	r21, Y
    620c:	c1 5f       	subi	r28, 0xF1	; 241
    620e:	d0 40       	sbci	r29, 0x00	; 0
    6210:	ce 50       	subi	r28, 0x0E	; 14
    6212:	df 4f       	sbci	r29, 0xFF	; 255
    6214:	68 81       	ld	r22, Y
    6216:	c2 5f       	subi	r28, 0xF2	; 242
    6218:	d0 40       	sbci	r29, 0x00	; 0
    621a:	cd 50       	subi	r28, 0x0D	; 13
    621c:	df 4f       	sbci	r29, 0xFF	; 255
    621e:	78 81       	ld	r23, Y
    6220:	c3 5f       	subi	r28, 0xF3	; 243
    6222:	d0 40       	sbci	r29, 0x00	; 0
    6224:	cc 50       	subi	r28, 0x0C	; 12
    6226:	df 4f       	sbci	r29, 0xFF	; 255
    6228:	88 81       	ld	r24, Y
    622a:	c4 5f       	subi	r28, 0xF4	; 244
    622c:	d0 40       	sbci	r29, 0x00	; 0
    622e:	cb 50       	subi	r28, 0x0B	; 11
    6230:	df 4f       	sbci	r29, 0xFF	; 255
    6232:	98 81       	ld	r25, Y
    6234:	c5 5f       	subi	r28, 0xF5	; 245
    6236:	d0 40       	sbci	r29, 0x00	; 0
    6238:	02 e0       	ldi	r16, 0x02	; 2
    623a:	0e 94 89 39 	call	0x7312	; 0x7312 <__ashldi3>
    623e:	a2 2e       	mov	r10, r18
    6240:	b3 2e       	mov	r11, r19
    6242:	c4 2e       	mov	r12, r20
    6244:	d5 2e       	mov	r13, r21
    6246:	e6 2e       	mov	r14, r22
    6248:	f7 2e       	mov	r15, r23
    624a:	08 2f       	mov	r16, r24
    624c:	19 2f       	mov	r17, r25
    624e:	c2 51       	subi	r28, 0x12	; 18
    6250:	df 4f       	sbci	r29, 0xFF	; 255
    6252:	a8 82       	st	Y, r10
    6254:	ce 5e       	subi	r28, 0xEE	; 238
    6256:	d0 40       	sbci	r29, 0x00	; 0
    6258:	c1 51       	subi	r28, 0x11	; 17
    625a:	df 4f       	sbci	r29, 0xFF	; 255
    625c:	b8 82       	st	Y, r11
    625e:	cf 5e       	subi	r28, 0xEF	; 239
    6260:	d0 40       	sbci	r29, 0x00	; 0
    6262:	c0 51       	subi	r28, 0x10	; 16
    6264:	df 4f       	sbci	r29, 0xFF	; 255
    6266:	c8 82       	st	Y, r12
    6268:	c0 5f       	subi	r28, 0xF0	; 240
    626a:	d0 40       	sbci	r29, 0x00	; 0
    626c:	cf 50       	subi	r28, 0x0F	; 15
    626e:	df 4f       	sbci	r29, 0xFF	; 255
    6270:	d8 82       	st	Y, r13
    6272:	c1 5f       	subi	r28, 0xF1	; 241
    6274:	d0 40       	sbci	r29, 0x00	; 0
    6276:	ce 50       	subi	r28, 0x0E	; 14
    6278:	df 4f       	sbci	r29, 0xFF	; 255
    627a:	e8 82       	st	Y, r14
    627c:	c2 5f       	subi	r28, 0xF2	; 242
    627e:	d0 40       	sbci	r29, 0x00	; 0
    6280:	cd 50       	subi	r28, 0x0D	; 13
    6282:	df 4f       	sbci	r29, 0xFF	; 255
    6284:	f8 82       	st	Y, r15
    6286:	c3 5f       	subi	r28, 0xF3	; 243
    6288:	d0 40       	sbci	r29, 0x00	; 0
    628a:	cc 50       	subi	r28, 0x0C	; 12
    628c:	df 4f       	sbci	r29, 0xFF	; 255
    628e:	08 83       	st	Y, r16
    6290:	c4 5f       	subi	r28, 0xF4	; 244
    6292:	d0 40       	sbci	r29, 0x00	; 0
    6294:	cb 50       	subi	r28, 0x0B	; 11
    6296:	df 4f       	sbci	r29, 0xFF	; 255
    6298:	18 83       	st	Y, r17
    629a:	c5 5f       	subi	r28, 0xF5	; 245
    629c:	d0 40       	sbci	r29, 0x00	; 0
    629e:	c2 51       	subi	r28, 0x12	; 18
    62a0:	df 4f       	sbci	r29, 0xFF	; 255
    62a2:	28 81       	ld	r18, Y
    62a4:	ce 5e       	subi	r28, 0xEE	; 238
    62a6:	d0 40       	sbci	r29, 0x00	; 0
    62a8:	c1 51       	subi	r28, 0x11	; 17
    62aa:	df 4f       	sbci	r29, 0xFF	; 255
    62ac:	38 81       	ld	r19, Y
    62ae:	cf 5e       	subi	r28, 0xEF	; 239
    62b0:	d0 40       	sbci	r29, 0x00	; 0
    62b2:	c0 51       	subi	r28, 0x10	; 16
    62b4:	df 4f       	sbci	r29, 0xFF	; 255
    62b6:	48 81       	ld	r20, Y
    62b8:	c0 5f       	subi	r28, 0xF0	; 240
    62ba:	d0 40       	sbci	r29, 0x00	; 0
    62bc:	cf 50       	subi	r28, 0x0F	; 15
    62be:	df 4f       	sbci	r29, 0xFF	; 255
    62c0:	58 81       	ld	r21, Y
    62c2:	c1 5f       	subi	r28, 0xF1	; 241
    62c4:	d0 40       	sbci	r29, 0x00	; 0
    62c6:	ce 50       	subi	r28, 0x0E	; 14
    62c8:	df 4f       	sbci	r29, 0xFF	; 255
    62ca:	68 81       	ld	r22, Y
    62cc:	c2 5f       	subi	r28, 0xF2	; 242
    62ce:	d0 40       	sbci	r29, 0x00	; 0
    62d0:	cd 50       	subi	r28, 0x0D	; 13
    62d2:	df 4f       	sbci	r29, 0xFF	; 255
    62d4:	78 81       	ld	r23, Y
    62d6:	c3 5f       	subi	r28, 0xF3	; 243
    62d8:	d0 40       	sbci	r29, 0x00	; 0
    62da:	cc 50       	subi	r28, 0x0C	; 12
    62dc:	df 4f       	sbci	r29, 0xFF	; 255
    62de:	88 81       	ld	r24, Y
    62e0:	c4 5f       	subi	r28, 0xF4	; 244
    62e2:	d0 40       	sbci	r29, 0x00	; 0
    62e4:	cb 50       	subi	r28, 0x0B	; 11
    62e6:	df 4f       	sbci	r29, 0xFF	; 255
    62e8:	98 81       	ld	r25, Y
    62ea:	c5 5f       	subi	r28, 0xF5	; 245
    62ec:	d0 40       	sbci	r29, 0x00	; 0
    62ee:	05 e0       	ldi	r16, 0x05	; 5
    62f0:	0e 94 89 39 	call	0x7312	; 0x7312 <__ashldi3>
    62f4:	22 2e       	mov	r2, r18
    62f6:	33 2e       	mov	r3, r19
    62f8:	44 2e       	mov	r4, r20
    62fa:	55 2e       	mov	r5, r21
    62fc:	66 2e       	mov	r6, r22
    62fe:	77 2e       	mov	r7, r23
    6300:	88 2e       	mov	r8, r24
    6302:	99 2e       	mov	r9, r25
    6304:	22 2d       	mov	r18, r2
    6306:	33 2d       	mov	r19, r3
    6308:	44 2d       	mov	r20, r4
    630a:	55 2d       	mov	r21, r5
    630c:	66 2d       	mov	r22, r6
    630e:	77 2d       	mov	r23, r7
    6310:	88 2d       	mov	r24, r8
    6312:	99 2d       	mov	r25, r9
    6314:	c2 51       	subi	r28, 0x12	; 18
    6316:	df 4f       	sbci	r29, 0xFF	; 255
    6318:	a8 80       	ld	r10, Y
    631a:	ce 5e       	subi	r28, 0xEE	; 238
    631c:	d0 40       	sbci	r29, 0x00	; 0
    631e:	c1 51       	subi	r28, 0x11	; 17
    6320:	df 4f       	sbci	r29, 0xFF	; 255
    6322:	b8 80       	ld	r11, Y
    6324:	cf 5e       	subi	r28, 0xEF	; 239
    6326:	d0 40       	sbci	r29, 0x00	; 0
    6328:	c0 51       	subi	r28, 0x10	; 16
    632a:	df 4f       	sbci	r29, 0xFF	; 255
    632c:	c8 80       	ld	r12, Y
    632e:	c0 5f       	subi	r28, 0xF0	; 240
    6330:	d0 40       	sbci	r29, 0x00	; 0
    6332:	cf 50       	subi	r28, 0x0F	; 15
    6334:	df 4f       	sbci	r29, 0xFF	; 255
    6336:	d8 80       	ld	r13, Y
    6338:	c1 5f       	subi	r28, 0xF1	; 241
    633a:	d0 40       	sbci	r29, 0x00	; 0
    633c:	ce 50       	subi	r28, 0x0E	; 14
    633e:	df 4f       	sbci	r29, 0xFF	; 255
    6340:	e8 80       	ld	r14, Y
    6342:	c2 5f       	subi	r28, 0xF2	; 242
    6344:	d0 40       	sbci	r29, 0x00	; 0
    6346:	cd 50       	subi	r28, 0x0D	; 13
    6348:	df 4f       	sbci	r29, 0xFF	; 255
    634a:	f8 80       	ld	r15, Y
    634c:	c3 5f       	subi	r28, 0xF3	; 243
    634e:	d0 40       	sbci	r29, 0x00	; 0
    6350:	cc 50       	subi	r28, 0x0C	; 12
    6352:	df 4f       	sbci	r29, 0xFF	; 255
    6354:	08 81       	ld	r16, Y
    6356:	c4 5f       	subi	r28, 0xF4	; 244
    6358:	d0 40       	sbci	r29, 0x00	; 0
    635a:	cb 50       	subi	r28, 0x0B	; 11
    635c:	df 4f       	sbci	r29, 0xFF	; 255
    635e:	18 81       	ld	r17, Y
    6360:	c5 5f       	subi	r28, 0xF5	; 245
    6362:	d0 40       	sbci	r29, 0x00	; 0
    6364:	ee d7       	rcall	.+4060   	; 0x7342 <__subdi3>
    6366:	22 2e       	mov	r2, r18
    6368:	33 2e       	mov	r3, r19
    636a:	44 2e       	mov	r4, r20
    636c:	55 2e       	mov	r5, r21
    636e:	66 2e       	mov	r6, r22
    6370:	77 2e       	mov	r7, r23
    6372:	88 2e       	mov	r8, r24
    6374:	99 2e       	mov	r9, r25
    6376:	22 2d       	mov	r18, r2
    6378:	33 2d       	mov	r19, r3
    637a:	44 2d       	mov	r20, r4
    637c:	55 2d       	mov	r21, r5
    637e:	66 2d       	mov	r22, r6
    6380:	77 2d       	mov	r23, r7
    6382:	88 2d       	mov	r24, r8
    6384:	99 2d       	mov	r25, r9
    6386:	ae 8c       	ldd	r10, Y+30	; 0x1e
    6388:	bf 8c       	ldd	r11, Y+31	; 0x1f
    638a:	c8 a0       	ldd	r12, Y+32	; 0x20
    638c:	d9 a0       	ldd	r13, Y+33	; 0x21
    638e:	ea a0       	ldd	r14, Y+34	; 0x22
    6390:	fb a0       	ldd	r15, Y+35	; 0x23
    6392:	0c a1       	ldd	r16, Y+36	; 0x24
    6394:	1d a1       	ldd	r17, Y+37	; 0x25
    6396:	cc d7       	rcall	.+3992   	; 0x7330 <__adddi3>
    6398:	22 2e       	mov	r2, r18
    639a:	33 2e       	mov	r3, r19
    639c:	44 2e       	mov	r4, r20
    639e:	55 2e       	mov	r5, r21
    63a0:	66 2e       	mov	r6, r22
    63a2:	77 2e       	mov	r7, r23
    63a4:	88 2e       	mov	r8, r24
    63a6:	99 2e       	mov	r9, r25
    63a8:	22 2d       	mov	r18, r2
    63aa:	33 2d       	mov	r19, r3
    63ac:	44 2d       	mov	r20, r4
    63ae:	55 2d       	mov	r21, r5
    63b0:	66 2d       	mov	r22, r6
    63b2:	77 2d       	mov	r23, r7
    63b4:	88 2d       	mov	r24, r8
    63b6:	99 2d       	mov	r25, r9
    63b8:	04 e0       	ldi	r16, 0x04	; 4
    63ba:	ab d7       	rcall	.+3926   	; 0x7312 <__ashldi3>
    63bc:	a2 2e       	mov	r10, r18
    63be:	b3 2e       	mov	r11, r19
    63c0:	c4 2e       	mov	r12, r20
    63c2:	d5 2e       	mov	r13, r21
    63c4:	e6 2e       	mov	r14, r22
    63c6:	f7 2e       	mov	r15, r23
    63c8:	08 2f       	mov	r16, r24
    63ca:	19 2f       	mov	r17, r25
    63cc:	2a 2c       	mov	r2, r10
    63ce:	3b 2c       	mov	r3, r11
    63d0:	4c 2c       	mov	r4, r12
    63d2:	5d 2c       	mov	r5, r13
    63d4:	6e 2c       	mov	r6, r14
    63d6:	7f 2c       	mov	r7, r15
    63d8:	80 2e       	mov	r8, r16
    63da:	91 2e       	mov	r9, r17
    63dc:	a2 2c       	mov	r10, r2
    63de:	b3 2c       	mov	r11, r3
    63e0:	c4 2c       	mov	r12, r4
    63e2:	d5 2c       	mov	r13, r5
    63e4:	e6 2c       	mov	r14, r6
    63e6:	f7 2c       	mov	r15, r7
    63e8:	08 2d       	mov	r16, r8
    63ea:	19 2d       	mov	r17, r9
    63ec:	2a 2d       	mov	r18, r10
    63ee:	3b 2d       	mov	r19, r11
    63f0:	4c 2d       	mov	r20, r12
    63f2:	5d 2d       	mov	r21, r13
    63f4:	6e 2d       	mov	r22, r14
    63f6:	7f 2d       	mov	r23, r15
    63f8:	80 2f       	mov	r24, r16
    63fa:	91 2f       	mov	r25, r17
    63fc:	29 51       	subi	r18, 0x19	; 25
    63fe:	3c 4f       	sbci	r19, 0xFC	; 252
    6400:	4f 4f       	sbci	r20, 0xFF	; 255
    6402:	5f 4f       	sbci	r21, 0xFF	; 255
    6404:	6f 4f       	sbci	r22, 0xFF	; 255
    6406:	7f 4f       	sbci	r23, 0xFF	; 255
    6408:	8f 4f       	sbci	r24, 0xFF	; 255
    640a:	9f 4f       	sbci	r25, 0xFF	; 255
    640c:	a2 2e       	mov	r10, r18
    640e:	b3 2e       	mov	r11, r19
    6410:	c4 2e       	mov	r12, r20
    6412:	d5 2e       	mov	r13, r21
    6414:	e6 2e       	mov	r14, r22
    6416:	f7 2e       	mov	r15, r23
    6418:	08 2f       	mov	r16, r24
    641a:	19 2f       	mov	r17, r25
    641c:	2a 2d       	mov	r18, r10
    641e:	3b 2d       	mov	r19, r11
    6420:	4c 2d       	mov	r20, r12
    6422:	5d 2d       	mov	r21, r13
    6424:	6e 2d       	mov	r22, r14
    6426:	7f 2d       	mov	r23, r15
    6428:	80 2f       	mov	r24, r16
    642a:	91 2f       	mov	r25, r17
    642c:	0e 94 f6 01 	call	0x3ec	; 0x3ec <__floatundisf>
    6430:	dc 01       	movw	r26, r24
    6432:	cb 01       	movw	r24, r22
    6434:	20 e0       	ldi	r18, 0x00	; 0
    6436:	30 e8       	ldi	r19, 0x80	; 128
    6438:	4b eb       	ldi	r20, 0xBB	; 187
    643a:	55 e4       	ldi	r21, 0x45	; 69
    643c:	bc 01       	movw	r22, r24
    643e:	cd 01       	movw	r24, r26
    6440:	0e 94 71 03 	call	0x6e2	; 0x6e2 <__divsf3>
    6444:	dc 01       	movw	r26, r24
    6446:	cb 01       	movw	r24, r22
    6448:	bc 01       	movw	r22, r24
    644a:	cd 01       	movw	r24, r26
    644c:	0e 94 45 01 	call	0x28a	; 0x28a <__fixunssfdi>
    6450:	a2 2e       	mov	r10, r18
    6452:	b3 2e       	mov	r11, r19
    6454:	c4 2e       	mov	r12, r20
    6456:	d5 2e       	mov	r13, r21
    6458:	e6 2e       	mov	r14, r22
    645a:	f7 2e       	mov	r15, r23
    645c:	08 2f       	mov	r16, r24
    645e:	19 2f       	mov	r17, r25
    6460:	d6 01       	movw	r26, r12
    6462:	c5 01       	movw	r24, r10
    6464:	bc 01       	movw	r22, r24
    6466:	cd 01       	movw	r24, r26
    6468:	0e 94 bf 17 	call	0x2f7e	; 0x2f7e <__portable_avr_delay_cycles>
					showMeByte(0);
    646c:	80 e0       	ldi	r24, 0x00	; 0
    646e:	0e 94 66 1b 	call	0x36cc	; 0x36cc <showMeByte>
					delay_ms(500);
    6472:	0e 94 b3 17 	call	0x2f66	; 0x2f66 <sysclk_get_cpu_hz>
    6476:	dc 01       	movw	r26, r24
    6478:	cb 01       	movw	r24, r22
    647a:	8c 01       	movw	r16, r24
    647c:	9d 01       	movw	r18, r26
    647e:	40 e0       	ldi	r20, 0x00	; 0
    6480:	50 e0       	ldi	r21, 0x00	; 0
    6482:	ba 01       	movw	r22, r20
    6484:	0e a3       	std	Y+38, r16	; 0x26
    6486:	1f a3       	std	Y+39, r17	; 0x27
    6488:	28 a7       	std	Y+40, r18	; 0x28
    648a:	39 a7       	std	Y+41, r19	; 0x29
    648c:	4a a7       	std	Y+42, r20	; 0x2a
    648e:	5b a7       	std	Y+43, r21	; 0x2b
    6490:	6c a7       	std	Y+44, r22	; 0x2c
    6492:	7d a7       	std	Y+45, r23	; 0x2d
    6494:	1e a1       	ldd	r17, Y+38	; 0x26
    6496:	ca 50       	subi	r28, 0x0A	; 10
    6498:	df 4f       	sbci	r29, 0xFF	; 255
    649a:	18 83       	st	Y, r17
    649c:	c6 5f       	subi	r28, 0xF6	; 246
    649e:	d0 40       	sbci	r29, 0x00	; 0
    64a0:	2f a1       	ldd	r18, Y+39	; 0x27
    64a2:	c9 50       	subi	r28, 0x09	; 9
    64a4:	df 4f       	sbci	r29, 0xFF	; 255
    64a6:	28 83       	st	Y, r18
    64a8:	c7 5f       	subi	r28, 0xF7	; 247
    64aa:	d0 40       	sbci	r29, 0x00	; 0
    64ac:	38 a5       	ldd	r19, Y+40	; 0x28
    64ae:	c8 50       	subi	r28, 0x08	; 8
    64b0:	df 4f       	sbci	r29, 0xFF	; 255
    64b2:	38 83       	st	Y, r19
    64b4:	c8 5f       	subi	r28, 0xF8	; 248
    64b6:	d0 40       	sbci	r29, 0x00	; 0
    64b8:	49 a5       	ldd	r20, Y+41	; 0x29
    64ba:	c7 50       	subi	r28, 0x07	; 7
    64bc:	df 4f       	sbci	r29, 0xFF	; 255
    64be:	48 83       	st	Y, r20
    64c0:	c9 5f       	subi	r28, 0xF9	; 249
    64c2:	d0 40       	sbci	r29, 0x00	; 0
    64c4:	5a a5       	ldd	r21, Y+42	; 0x2a
    64c6:	c6 50       	subi	r28, 0x06	; 6
    64c8:	df 4f       	sbci	r29, 0xFF	; 255
    64ca:	58 83       	st	Y, r21
    64cc:	ca 5f       	subi	r28, 0xFA	; 250
    64ce:	d0 40       	sbci	r29, 0x00	; 0
    64d0:	6b a5       	ldd	r22, Y+43	; 0x2b
    64d2:	c5 50       	subi	r28, 0x05	; 5
    64d4:	df 4f       	sbci	r29, 0xFF	; 255
    64d6:	68 83       	st	Y, r22
    64d8:	cb 5f       	subi	r28, 0xFB	; 251
    64da:	d0 40       	sbci	r29, 0x00	; 0
    64dc:	7c a5       	ldd	r23, Y+44	; 0x2c
    64de:	c4 50       	subi	r28, 0x04	; 4
    64e0:	df 4f       	sbci	r29, 0xFF	; 255
    64e2:	78 83       	st	Y, r23
    64e4:	cc 5f       	subi	r28, 0xFC	; 252
    64e6:	d0 40       	sbci	r29, 0x00	; 0
    64e8:	8d a5       	ldd	r24, Y+45	; 0x2d
    64ea:	c3 50       	subi	r28, 0x03	; 3
    64ec:	df 4f       	sbci	r29, 0xFF	; 255
    64ee:	88 83       	st	Y, r24
    64f0:	cd 5f       	subi	r28, 0xFD	; 253
    64f2:	d0 40       	sbci	r29, 0x00	; 0
    64f4:	ca 50       	subi	r28, 0x0A	; 10
    64f6:	df 4f       	sbci	r29, 0xFF	; 255
    64f8:	28 81       	ld	r18, Y
    64fa:	c6 5f       	subi	r28, 0xF6	; 246
    64fc:	d0 40       	sbci	r29, 0x00	; 0
    64fe:	c9 50       	subi	r28, 0x09	; 9
    6500:	df 4f       	sbci	r29, 0xFF	; 255
    6502:	38 81       	ld	r19, Y
    6504:	c7 5f       	subi	r28, 0xF7	; 247
    6506:	d0 40       	sbci	r29, 0x00	; 0
    6508:	c8 50       	subi	r28, 0x08	; 8
    650a:	df 4f       	sbci	r29, 0xFF	; 255
    650c:	48 81       	ld	r20, Y
    650e:	c8 5f       	subi	r28, 0xF8	; 248
    6510:	d0 40       	sbci	r29, 0x00	; 0
    6512:	c7 50       	subi	r28, 0x07	; 7
    6514:	df 4f       	sbci	r29, 0xFF	; 255
    6516:	58 81       	ld	r21, Y
    6518:	c9 5f       	subi	r28, 0xF9	; 249
    651a:	d0 40       	sbci	r29, 0x00	; 0
    651c:	c6 50       	subi	r28, 0x06	; 6
    651e:	df 4f       	sbci	r29, 0xFF	; 255
    6520:	68 81       	ld	r22, Y
    6522:	ca 5f       	subi	r28, 0xFA	; 250
    6524:	d0 40       	sbci	r29, 0x00	; 0
    6526:	c5 50       	subi	r28, 0x05	; 5
    6528:	df 4f       	sbci	r29, 0xFF	; 255
    652a:	78 81       	ld	r23, Y
    652c:	cb 5f       	subi	r28, 0xFB	; 251
    652e:	d0 40       	sbci	r29, 0x00	; 0
    6530:	c4 50       	subi	r28, 0x04	; 4
    6532:	df 4f       	sbci	r29, 0xFF	; 255
    6534:	88 81       	ld	r24, Y
    6536:	cc 5f       	subi	r28, 0xFC	; 252
    6538:	d0 40       	sbci	r29, 0x00	; 0
    653a:	c3 50       	subi	r28, 0x03	; 3
    653c:	df 4f       	sbci	r29, 0xFF	; 255
    653e:	98 81       	ld	r25, Y
    6540:	cd 5f       	subi	r28, 0xFD	; 253
    6542:	d0 40       	sbci	r29, 0x00	; 0
    6544:	02 e0       	ldi	r16, 0x02	; 2
    6546:	e5 d6       	rcall	.+3530   	; 0x7312 <__ashldi3>
    6548:	a2 2e       	mov	r10, r18
    654a:	b3 2e       	mov	r11, r19
    654c:	c4 2e       	mov	r12, r20
    654e:	d5 2e       	mov	r13, r21
    6550:	e6 2e       	mov	r14, r22
    6552:	f7 2e       	mov	r15, r23
    6554:	08 2f       	mov	r16, r24
    6556:	19 2f       	mov	r17, r25
    6558:	ca 50       	subi	r28, 0x0A	; 10
    655a:	df 4f       	sbci	r29, 0xFF	; 255
    655c:	a8 82       	st	Y, r10
    655e:	c6 5f       	subi	r28, 0xF6	; 246
    6560:	d0 40       	sbci	r29, 0x00	; 0
    6562:	c9 50       	subi	r28, 0x09	; 9
    6564:	df 4f       	sbci	r29, 0xFF	; 255
    6566:	b8 82       	st	Y, r11
    6568:	c7 5f       	subi	r28, 0xF7	; 247
    656a:	d0 40       	sbci	r29, 0x00	; 0
    656c:	c8 50       	subi	r28, 0x08	; 8
    656e:	df 4f       	sbci	r29, 0xFF	; 255
    6570:	c8 82       	st	Y, r12
    6572:	c8 5f       	subi	r28, 0xF8	; 248
    6574:	d0 40       	sbci	r29, 0x00	; 0
    6576:	c7 50       	subi	r28, 0x07	; 7
    6578:	df 4f       	sbci	r29, 0xFF	; 255
    657a:	d8 82       	st	Y, r13
    657c:	c9 5f       	subi	r28, 0xF9	; 249
    657e:	d0 40       	sbci	r29, 0x00	; 0
    6580:	c6 50       	subi	r28, 0x06	; 6
    6582:	df 4f       	sbci	r29, 0xFF	; 255
    6584:	e8 82       	st	Y, r14
    6586:	ca 5f       	subi	r28, 0xFA	; 250
    6588:	d0 40       	sbci	r29, 0x00	; 0
    658a:	c5 50       	subi	r28, 0x05	; 5
    658c:	df 4f       	sbci	r29, 0xFF	; 255
    658e:	f8 82       	st	Y, r15
    6590:	cb 5f       	subi	r28, 0xFB	; 251
    6592:	d0 40       	sbci	r29, 0x00	; 0
    6594:	c4 50       	subi	r28, 0x04	; 4
    6596:	df 4f       	sbci	r29, 0xFF	; 255
    6598:	08 83       	st	Y, r16
    659a:	cc 5f       	subi	r28, 0xFC	; 252
    659c:	d0 40       	sbci	r29, 0x00	; 0
    659e:	c3 50       	subi	r28, 0x03	; 3
    65a0:	df 4f       	sbci	r29, 0xFF	; 255
    65a2:	18 83       	st	Y, r17
    65a4:	cd 5f       	subi	r28, 0xFD	; 253
    65a6:	d0 40       	sbci	r29, 0x00	; 0
    65a8:	ca 50       	subi	r28, 0x0A	; 10
    65aa:	df 4f       	sbci	r29, 0xFF	; 255
    65ac:	28 81       	ld	r18, Y
    65ae:	c6 5f       	subi	r28, 0xF6	; 246
    65b0:	d0 40       	sbci	r29, 0x00	; 0
    65b2:	c9 50       	subi	r28, 0x09	; 9
    65b4:	df 4f       	sbci	r29, 0xFF	; 255
    65b6:	38 81       	ld	r19, Y
    65b8:	c7 5f       	subi	r28, 0xF7	; 247
    65ba:	d0 40       	sbci	r29, 0x00	; 0
    65bc:	c8 50       	subi	r28, 0x08	; 8
    65be:	df 4f       	sbci	r29, 0xFF	; 255
    65c0:	48 81       	ld	r20, Y
    65c2:	c8 5f       	subi	r28, 0xF8	; 248
    65c4:	d0 40       	sbci	r29, 0x00	; 0
    65c6:	c7 50       	subi	r28, 0x07	; 7
    65c8:	df 4f       	sbci	r29, 0xFF	; 255
    65ca:	58 81       	ld	r21, Y
    65cc:	c9 5f       	subi	r28, 0xF9	; 249
    65ce:	d0 40       	sbci	r29, 0x00	; 0
    65d0:	c6 50       	subi	r28, 0x06	; 6
    65d2:	df 4f       	sbci	r29, 0xFF	; 255
    65d4:	68 81       	ld	r22, Y
    65d6:	ca 5f       	subi	r28, 0xFA	; 250
    65d8:	d0 40       	sbci	r29, 0x00	; 0
    65da:	c5 50       	subi	r28, 0x05	; 5
    65dc:	df 4f       	sbci	r29, 0xFF	; 255
    65de:	78 81       	ld	r23, Y
    65e0:	cb 5f       	subi	r28, 0xFB	; 251
    65e2:	d0 40       	sbci	r29, 0x00	; 0
    65e4:	c4 50       	subi	r28, 0x04	; 4
    65e6:	df 4f       	sbci	r29, 0xFF	; 255
    65e8:	88 81       	ld	r24, Y
    65ea:	cc 5f       	subi	r28, 0xFC	; 252
    65ec:	d0 40       	sbci	r29, 0x00	; 0
    65ee:	c3 50       	subi	r28, 0x03	; 3
    65f0:	df 4f       	sbci	r29, 0xFF	; 255
    65f2:	98 81       	ld	r25, Y
    65f4:	cd 5f       	subi	r28, 0xFD	; 253
    65f6:	d0 40       	sbci	r29, 0x00	; 0
    65f8:	05 e0       	ldi	r16, 0x05	; 5
    65fa:	8b d6       	rcall	.+3350   	; 0x7312 <__ashldi3>
    65fc:	22 2e       	mov	r2, r18
    65fe:	33 2e       	mov	r3, r19
    6600:	44 2e       	mov	r4, r20
    6602:	55 2e       	mov	r5, r21
    6604:	66 2e       	mov	r6, r22
    6606:	77 2e       	mov	r7, r23
    6608:	88 2e       	mov	r8, r24
    660a:	99 2e       	mov	r9, r25
    660c:	22 2d       	mov	r18, r2
    660e:	33 2d       	mov	r19, r3
    6610:	44 2d       	mov	r20, r4
    6612:	55 2d       	mov	r21, r5
    6614:	66 2d       	mov	r22, r6
    6616:	77 2d       	mov	r23, r7
    6618:	88 2d       	mov	r24, r8
    661a:	99 2d       	mov	r25, r9
    661c:	ca 50       	subi	r28, 0x0A	; 10
    661e:	df 4f       	sbci	r29, 0xFF	; 255
    6620:	a8 80       	ld	r10, Y
    6622:	c6 5f       	subi	r28, 0xF6	; 246
    6624:	d0 40       	sbci	r29, 0x00	; 0
    6626:	c9 50       	subi	r28, 0x09	; 9
    6628:	df 4f       	sbci	r29, 0xFF	; 255
    662a:	b8 80       	ld	r11, Y
    662c:	c7 5f       	subi	r28, 0xF7	; 247
    662e:	d0 40       	sbci	r29, 0x00	; 0
    6630:	c8 50       	subi	r28, 0x08	; 8
    6632:	df 4f       	sbci	r29, 0xFF	; 255
    6634:	c8 80       	ld	r12, Y
    6636:	c8 5f       	subi	r28, 0xF8	; 248
    6638:	d0 40       	sbci	r29, 0x00	; 0
    663a:	c7 50       	subi	r28, 0x07	; 7
    663c:	df 4f       	sbci	r29, 0xFF	; 255
    663e:	d8 80       	ld	r13, Y
    6640:	c9 5f       	subi	r28, 0xF9	; 249
    6642:	d0 40       	sbci	r29, 0x00	; 0
    6644:	c6 50       	subi	r28, 0x06	; 6
    6646:	df 4f       	sbci	r29, 0xFF	; 255
    6648:	e8 80       	ld	r14, Y
    664a:	ca 5f       	subi	r28, 0xFA	; 250
    664c:	d0 40       	sbci	r29, 0x00	; 0
    664e:	c5 50       	subi	r28, 0x05	; 5
    6650:	df 4f       	sbci	r29, 0xFF	; 255
    6652:	f8 80       	ld	r15, Y
    6654:	cb 5f       	subi	r28, 0xFB	; 251
    6656:	d0 40       	sbci	r29, 0x00	; 0
    6658:	c4 50       	subi	r28, 0x04	; 4
    665a:	df 4f       	sbci	r29, 0xFF	; 255
    665c:	08 81       	ld	r16, Y
    665e:	cc 5f       	subi	r28, 0xFC	; 252
    6660:	d0 40       	sbci	r29, 0x00	; 0
    6662:	c3 50       	subi	r28, 0x03	; 3
    6664:	df 4f       	sbci	r29, 0xFF	; 255
    6666:	18 81       	ld	r17, Y
    6668:	cd 5f       	subi	r28, 0xFD	; 253
    666a:	d0 40       	sbci	r29, 0x00	; 0
    666c:	6a d6       	rcall	.+3284   	; 0x7342 <__subdi3>
    666e:	22 2e       	mov	r2, r18
    6670:	33 2e       	mov	r3, r19
    6672:	44 2e       	mov	r4, r20
    6674:	55 2e       	mov	r5, r21
    6676:	66 2e       	mov	r6, r22
    6678:	77 2e       	mov	r7, r23
    667a:	88 2e       	mov	r8, r24
    667c:	99 2e       	mov	r9, r25
    667e:	22 2d       	mov	r18, r2
    6680:	33 2d       	mov	r19, r3
    6682:	44 2d       	mov	r20, r4
    6684:	55 2d       	mov	r21, r5
    6686:	66 2d       	mov	r22, r6
    6688:	77 2d       	mov	r23, r7
    668a:	88 2d       	mov	r24, r8
    668c:	99 2d       	mov	r25, r9
    668e:	ae a0       	ldd	r10, Y+38	; 0x26
    6690:	bf a0       	ldd	r11, Y+39	; 0x27
    6692:	c8 a4       	ldd	r12, Y+40	; 0x28
    6694:	d9 a4       	ldd	r13, Y+41	; 0x29
    6696:	ea a4       	ldd	r14, Y+42	; 0x2a
    6698:	fb a4       	ldd	r15, Y+43	; 0x2b
    669a:	0c a5       	ldd	r16, Y+44	; 0x2c
    669c:	1d a5       	ldd	r17, Y+45	; 0x2d
    669e:	48 d6       	rcall	.+3216   	; 0x7330 <__adddi3>
    66a0:	22 2e       	mov	r2, r18
    66a2:	33 2e       	mov	r3, r19
    66a4:	44 2e       	mov	r4, r20
    66a6:	55 2e       	mov	r5, r21
    66a8:	66 2e       	mov	r6, r22
    66aa:	77 2e       	mov	r7, r23
    66ac:	88 2e       	mov	r8, r24
    66ae:	99 2e       	mov	r9, r25
    66b0:	22 2d       	mov	r18, r2
    66b2:	33 2d       	mov	r19, r3
    66b4:	44 2d       	mov	r20, r4
    66b6:	55 2d       	mov	r21, r5
    66b8:	66 2d       	mov	r22, r6
    66ba:	77 2d       	mov	r23, r7
    66bc:	88 2d       	mov	r24, r8
    66be:	99 2d       	mov	r25, r9
    66c0:	02 e0       	ldi	r16, 0x02	; 2
    66c2:	27 d6       	rcall	.+3150   	; 0x7312 <__ashldi3>
    66c4:	a2 2e       	mov	r10, r18
    66c6:	b3 2e       	mov	r11, r19
    66c8:	c4 2e       	mov	r12, r20
    66ca:	d5 2e       	mov	r13, r21
    66cc:	e6 2e       	mov	r14, r22
    66ce:	f7 2e       	mov	r15, r23
    66d0:	08 2f       	mov	r16, r24
    66d2:	19 2f       	mov	r17, r25
    66d4:	2a 2c       	mov	r2, r10
    66d6:	3b 2c       	mov	r3, r11
    66d8:	4c 2c       	mov	r4, r12
    66da:	5d 2c       	mov	r5, r13
    66dc:	6e 2c       	mov	r6, r14
    66de:	7f 2c       	mov	r7, r15
    66e0:	80 2e       	mov	r8, r16
    66e2:	91 2e       	mov	r9, r17
    66e4:	a2 2c       	mov	r10, r2
    66e6:	b3 2c       	mov	r11, r3
    66e8:	c4 2c       	mov	r12, r4
    66ea:	d5 2c       	mov	r13, r5
    66ec:	e6 2c       	mov	r14, r6
    66ee:	f7 2c       	mov	r15, r7
    66f0:	08 2d       	mov	r16, r8
    66f2:	19 2d       	mov	r17, r9
    66f4:	2a 2d       	mov	r18, r10
    66f6:	3b 2d       	mov	r19, r11
    66f8:	4c 2d       	mov	r20, r12
    66fa:	5d 2d       	mov	r21, r13
    66fc:	6e 2d       	mov	r22, r14
    66fe:	7f 2d       	mov	r23, r15
    6700:	80 2f       	mov	r24, r16
    6702:	91 2f       	mov	r25, r17
    6704:	29 51       	subi	r18, 0x19	; 25
    6706:	3c 4f       	sbci	r19, 0xFC	; 252
    6708:	4f 4f       	sbci	r20, 0xFF	; 255
    670a:	5f 4f       	sbci	r21, 0xFF	; 255
    670c:	6f 4f       	sbci	r22, 0xFF	; 255
    670e:	7f 4f       	sbci	r23, 0xFF	; 255
    6710:	8f 4f       	sbci	r24, 0xFF	; 255
    6712:	9f 4f       	sbci	r25, 0xFF	; 255
    6714:	a2 2e       	mov	r10, r18
    6716:	b3 2e       	mov	r11, r19
    6718:	c4 2e       	mov	r12, r20
    671a:	d5 2e       	mov	r13, r21
    671c:	e6 2e       	mov	r14, r22
    671e:	f7 2e       	mov	r15, r23
    6720:	08 2f       	mov	r16, r24
    6722:	19 2f       	mov	r17, r25
    6724:	2a 2d       	mov	r18, r10
    6726:	3b 2d       	mov	r19, r11
    6728:	4c 2d       	mov	r20, r12
    672a:	5d 2d       	mov	r21, r13
    672c:	6e 2d       	mov	r22, r14
    672e:	7f 2d       	mov	r23, r15
    6730:	80 2f       	mov	r24, r16
    6732:	91 2f       	mov	r25, r17
    6734:	0e 94 f6 01 	call	0x3ec	; 0x3ec <__floatundisf>
    6738:	dc 01       	movw	r26, r24
    673a:	cb 01       	movw	r24, r22
    673c:	20 e0       	ldi	r18, 0x00	; 0
    673e:	30 e8       	ldi	r19, 0x80	; 128
    6740:	4b eb       	ldi	r20, 0xBB	; 187
    6742:	55 e4       	ldi	r21, 0x45	; 69
    6744:	bc 01       	movw	r22, r24
    6746:	cd 01       	movw	r24, r26
    6748:	0e 94 71 03 	call	0x6e2	; 0x6e2 <__divsf3>
    674c:	dc 01       	movw	r26, r24
    674e:	cb 01       	movw	r24, r22
    6750:	bc 01       	movw	r22, r24
    6752:	cd 01       	movw	r24, r26
    6754:	0e 94 45 01 	call	0x28a	; 0x28a <__fixunssfdi>
    6758:	a2 2e       	mov	r10, r18
    675a:	b3 2e       	mov	r11, r19
    675c:	c4 2e       	mov	r12, r20
    675e:	d5 2e       	mov	r13, r21
    6760:	e6 2e       	mov	r14, r22
    6762:	f7 2e       	mov	r15, r23
    6764:	08 2f       	mov	r16, r24
    6766:	19 2f       	mov	r17, r25
    6768:	d6 01       	movw	r26, r12
    676a:	c5 01       	movw	r24, r10
    676c:	bc 01       	movw	r22, r24
    676e:	cd 01       	movw	r24, r26
    6770:	0e 94 bf 17 	call	0x2f7e	; 0x2f7e <__portable_avr_delay_cycles>
					showMeByte(COA_Measurments[0] >> 8);
    6774:	80 91 63 20 	lds	r24, 0x2063
    6778:	90 91 64 20 	lds	r25, 0x2064
    677c:	a0 91 65 20 	lds	r26, 0x2065
    6780:	b0 91 66 20 	lds	r27, 0x2066
    6784:	89 2f       	mov	r24, r25
    6786:	9a 2f       	mov	r25, r26
    6788:	ab 2f       	mov	r26, r27
    678a:	bb 27       	eor	r27, r27
    678c:	0e 94 66 1b 	call	0x36cc	; 0x36cc <showMeByte>
					delay_ms(2000);
    6790:	0e 94 b3 17 	call	0x2f66	; 0x2f66 <sysclk_get_cpu_hz>
    6794:	dc 01       	movw	r26, r24
    6796:	cb 01       	movw	r24, r22
    6798:	8c 01       	movw	r16, r24
    679a:	9d 01       	movw	r18, r26
    679c:	40 e0       	ldi	r20, 0x00	; 0
    679e:	50 e0       	ldi	r21, 0x00	; 0
    67a0:	ba 01       	movw	r22, r20
    67a2:	0e a7       	std	Y+46, r16	; 0x2e
    67a4:	1f a7       	std	Y+47, r17	; 0x2f
    67a6:	28 ab       	std	Y+48, r18	; 0x30
    67a8:	39 ab       	std	Y+49, r19	; 0x31
    67aa:	4a ab       	std	Y+50, r20	; 0x32
    67ac:	5b ab       	std	Y+51, r21	; 0x33
    67ae:	6c ab       	std	Y+52, r22	; 0x34
    67b0:	7d ab       	std	Y+53, r23	; 0x35
    67b2:	1e a5       	ldd	r17, Y+46	; 0x2e
    67b4:	c2 50       	subi	r28, 0x02	; 2
    67b6:	df 4f       	sbci	r29, 0xFF	; 255
    67b8:	18 83       	st	Y, r17
    67ba:	ce 5f       	subi	r28, 0xFE	; 254
    67bc:	d0 40       	sbci	r29, 0x00	; 0
    67be:	2f a5       	ldd	r18, Y+47	; 0x2f
    67c0:	c1 50       	subi	r28, 0x01	; 1
    67c2:	df 4f       	sbci	r29, 0xFF	; 255
    67c4:	28 83       	st	Y, r18
    67c6:	cf 5f       	subi	r28, 0xFF	; 255
    67c8:	d0 40       	sbci	r29, 0x00	; 0
    67ca:	38 a9       	ldd	r19, Y+48	; 0x30
    67cc:	c0 50       	subi	r28, 0x00	; 0
    67ce:	df 4f       	sbci	r29, 0xFF	; 255
    67d0:	38 83       	st	Y, r19
    67d2:	c0 50       	subi	r28, 0x00	; 0
    67d4:	d1 40       	sbci	r29, 0x01	; 1
    67d6:	49 a9       	ldd	r20, Y+49	; 0x31
    67d8:	cf 5f       	subi	r28, 0xFF	; 255
    67da:	de 4f       	sbci	r29, 0xFE	; 254
    67dc:	48 83       	st	Y, r20
    67de:	c1 50       	subi	r28, 0x01	; 1
    67e0:	d1 40       	sbci	r29, 0x01	; 1
    67e2:	5a a9       	ldd	r21, Y+50	; 0x32
    67e4:	ce 5f       	subi	r28, 0xFE	; 254
    67e6:	de 4f       	sbci	r29, 0xFE	; 254
    67e8:	58 83       	st	Y, r21
    67ea:	c2 50       	subi	r28, 0x02	; 2
    67ec:	d1 40       	sbci	r29, 0x01	; 1
    67ee:	6b a9       	ldd	r22, Y+51	; 0x33
    67f0:	cd 5f       	subi	r28, 0xFD	; 253
    67f2:	de 4f       	sbci	r29, 0xFE	; 254
    67f4:	68 83       	st	Y, r22
    67f6:	c3 50       	subi	r28, 0x03	; 3
    67f8:	d1 40       	sbci	r29, 0x01	; 1
    67fa:	7c a9       	ldd	r23, Y+52	; 0x34
    67fc:	cc 5f       	subi	r28, 0xFC	; 252
    67fe:	de 4f       	sbci	r29, 0xFE	; 254
    6800:	78 83       	st	Y, r23
    6802:	c4 50       	subi	r28, 0x04	; 4
    6804:	d1 40       	sbci	r29, 0x01	; 1
    6806:	8d a9       	ldd	r24, Y+53	; 0x35
    6808:	cb 5f       	subi	r28, 0xFB	; 251
    680a:	de 4f       	sbci	r29, 0xFE	; 254
    680c:	88 83       	st	Y, r24
    680e:	c5 50       	subi	r28, 0x05	; 5
    6810:	d1 40       	sbci	r29, 0x01	; 1
    6812:	c2 50       	subi	r28, 0x02	; 2
    6814:	df 4f       	sbci	r29, 0xFF	; 255
    6816:	28 81       	ld	r18, Y
    6818:	ce 5f       	subi	r28, 0xFE	; 254
    681a:	d0 40       	sbci	r29, 0x00	; 0
    681c:	c1 50       	subi	r28, 0x01	; 1
    681e:	df 4f       	sbci	r29, 0xFF	; 255
    6820:	38 81       	ld	r19, Y
    6822:	cf 5f       	subi	r28, 0xFF	; 255
    6824:	d0 40       	sbci	r29, 0x00	; 0
    6826:	c0 50       	subi	r28, 0x00	; 0
    6828:	df 4f       	sbci	r29, 0xFF	; 255
    682a:	48 81       	ld	r20, Y
    682c:	c0 50       	subi	r28, 0x00	; 0
    682e:	d1 40       	sbci	r29, 0x01	; 1
    6830:	cf 5f       	subi	r28, 0xFF	; 255
    6832:	de 4f       	sbci	r29, 0xFE	; 254
    6834:	58 81       	ld	r21, Y
    6836:	c1 50       	subi	r28, 0x01	; 1
    6838:	d1 40       	sbci	r29, 0x01	; 1
    683a:	ce 5f       	subi	r28, 0xFE	; 254
    683c:	de 4f       	sbci	r29, 0xFE	; 254
    683e:	68 81       	ld	r22, Y
    6840:	c2 50       	subi	r28, 0x02	; 2
    6842:	d1 40       	sbci	r29, 0x01	; 1
    6844:	cd 5f       	subi	r28, 0xFD	; 253
    6846:	de 4f       	sbci	r29, 0xFE	; 254
    6848:	78 81       	ld	r23, Y
    684a:	c3 50       	subi	r28, 0x03	; 3
    684c:	d1 40       	sbci	r29, 0x01	; 1
    684e:	cc 5f       	subi	r28, 0xFC	; 252
    6850:	de 4f       	sbci	r29, 0xFE	; 254
    6852:	88 81       	ld	r24, Y
    6854:	c4 50       	subi	r28, 0x04	; 4
    6856:	d1 40       	sbci	r29, 0x01	; 1
    6858:	cb 5f       	subi	r28, 0xFB	; 251
    685a:	de 4f       	sbci	r29, 0xFE	; 254
    685c:	98 81       	ld	r25, Y
    685e:	c5 50       	subi	r28, 0x05	; 5
    6860:	d1 40       	sbci	r29, 0x01	; 1
    6862:	02 e0       	ldi	r16, 0x02	; 2
    6864:	56 d5       	rcall	.+2732   	; 0x7312 <__ashldi3>
    6866:	a2 2e       	mov	r10, r18
    6868:	b3 2e       	mov	r11, r19
    686a:	c4 2e       	mov	r12, r20
    686c:	d5 2e       	mov	r13, r21
    686e:	e6 2e       	mov	r14, r22
    6870:	f7 2e       	mov	r15, r23
    6872:	08 2f       	mov	r16, r24
    6874:	19 2f       	mov	r17, r25
    6876:	c2 50       	subi	r28, 0x02	; 2
    6878:	df 4f       	sbci	r29, 0xFF	; 255
    687a:	a8 82       	st	Y, r10
    687c:	ce 5f       	subi	r28, 0xFE	; 254
    687e:	d0 40       	sbci	r29, 0x00	; 0
    6880:	c1 50       	subi	r28, 0x01	; 1
    6882:	df 4f       	sbci	r29, 0xFF	; 255
    6884:	b8 82       	st	Y, r11
    6886:	cf 5f       	subi	r28, 0xFF	; 255
    6888:	d0 40       	sbci	r29, 0x00	; 0
    688a:	c0 50       	subi	r28, 0x00	; 0
    688c:	df 4f       	sbci	r29, 0xFF	; 255
    688e:	c8 82       	st	Y, r12
    6890:	c0 50       	subi	r28, 0x00	; 0
    6892:	d1 40       	sbci	r29, 0x01	; 1
    6894:	cf 5f       	subi	r28, 0xFF	; 255
    6896:	de 4f       	sbci	r29, 0xFE	; 254
    6898:	d8 82       	st	Y, r13
    689a:	c1 50       	subi	r28, 0x01	; 1
    689c:	d1 40       	sbci	r29, 0x01	; 1
    689e:	ce 5f       	subi	r28, 0xFE	; 254
    68a0:	de 4f       	sbci	r29, 0xFE	; 254
    68a2:	e8 82       	st	Y, r14
    68a4:	c2 50       	subi	r28, 0x02	; 2
    68a6:	d1 40       	sbci	r29, 0x01	; 1
    68a8:	cd 5f       	subi	r28, 0xFD	; 253
    68aa:	de 4f       	sbci	r29, 0xFE	; 254
    68ac:	f8 82       	st	Y, r15
    68ae:	c3 50       	subi	r28, 0x03	; 3
    68b0:	d1 40       	sbci	r29, 0x01	; 1
    68b2:	cc 5f       	subi	r28, 0xFC	; 252
    68b4:	de 4f       	sbci	r29, 0xFE	; 254
    68b6:	08 83       	st	Y, r16
    68b8:	c4 50       	subi	r28, 0x04	; 4
    68ba:	d1 40       	sbci	r29, 0x01	; 1
    68bc:	cb 5f       	subi	r28, 0xFB	; 251
    68be:	de 4f       	sbci	r29, 0xFE	; 254
    68c0:	18 83       	st	Y, r17
    68c2:	c5 50       	subi	r28, 0x05	; 5
    68c4:	d1 40       	sbci	r29, 0x01	; 1
    68c6:	c2 50       	subi	r28, 0x02	; 2
    68c8:	df 4f       	sbci	r29, 0xFF	; 255
    68ca:	28 81       	ld	r18, Y
    68cc:	ce 5f       	subi	r28, 0xFE	; 254
    68ce:	d0 40       	sbci	r29, 0x00	; 0
    68d0:	c1 50       	subi	r28, 0x01	; 1
    68d2:	df 4f       	sbci	r29, 0xFF	; 255
    68d4:	38 81       	ld	r19, Y
    68d6:	cf 5f       	subi	r28, 0xFF	; 255
    68d8:	d0 40       	sbci	r29, 0x00	; 0
    68da:	c0 50       	subi	r28, 0x00	; 0
    68dc:	df 4f       	sbci	r29, 0xFF	; 255
    68de:	48 81       	ld	r20, Y
    68e0:	c0 50       	subi	r28, 0x00	; 0
    68e2:	d1 40       	sbci	r29, 0x01	; 1
    68e4:	cf 5f       	subi	r28, 0xFF	; 255
    68e6:	de 4f       	sbci	r29, 0xFE	; 254
    68e8:	58 81       	ld	r21, Y
    68ea:	c1 50       	subi	r28, 0x01	; 1
    68ec:	d1 40       	sbci	r29, 0x01	; 1
    68ee:	ce 5f       	subi	r28, 0xFE	; 254
    68f0:	de 4f       	sbci	r29, 0xFE	; 254
    68f2:	68 81       	ld	r22, Y
    68f4:	c2 50       	subi	r28, 0x02	; 2
    68f6:	d1 40       	sbci	r29, 0x01	; 1
    68f8:	cd 5f       	subi	r28, 0xFD	; 253
    68fa:	de 4f       	sbci	r29, 0xFE	; 254
    68fc:	78 81       	ld	r23, Y
    68fe:	c3 50       	subi	r28, 0x03	; 3
    6900:	d1 40       	sbci	r29, 0x01	; 1
    6902:	cc 5f       	subi	r28, 0xFC	; 252
    6904:	de 4f       	sbci	r29, 0xFE	; 254
    6906:	88 81       	ld	r24, Y
    6908:	c4 50       	subi	r28, 0x04	; 4
    690a:	d1 40       	sbci	r29, 0x01	; 1
    690c:	cb 5f       	subi	r28, 0xFB	; 251
    690e:	de 4f       	sbci	r29, 0xFE	; 254
    6910:	98 81       	ld	r25, Y
    6912:	c5 50       	subi	r28, 0x05	; 5
    6914:	d1 40       	sbci	r29, 0x01	; 1
    6916:	05 e0       	ldi	r16, 0x05	; 5
    6918:	fc d4       	rcall	.+2552   	; 0x7312 <__ashldi3>
    691a:	22 2e       	mov	r2, r18
    691c:	33 2e       	mov	r3, r19
    691e:	44 2e       	mov	r4, r20
    6920:	55 2e       	mov	r5, r21
    6922:	66 2e       	mov	r6, r22
    6924:	77 2e       	mov	r7, r23
    6926:	88 2e       	mov	r8, r24
    6928:	99 2e       	mov	r9, r25
    692a:	22 2d       	mov	r18, r2
    692c:	33 2d       	mov	r19, r3
    692e:	44 2d       	mov	r20, r4
    6930:	55 2d       	mov	r21, r5
    6932:	66 2d       	mov	r22, r6
    6934:	77 2d       	mov	r23, r7
    6936:	88 2d       	mov	r24, r8
    6938:	99 2d       	mov	r25, r9
    693a:	c2 50       	subi	r28, 0x02	; 2
    693c:	df 4f       	sbci	r29, 0xFF	; 255
    693e:	a8 80       	ld	r10, Y
    6940:	ce 5f       	subi	r28, 0xFE	; 254
    6942:	d0 40       	sbci	r29, 0x00	; 0
    6944:	c1 50       	subi	r28, 0x01	; 1
    6946:	df 4f       	sbci	r29, 0xFF	; 255
    6948:	b8 80       	ld	r11, Y
    694a:	cf 5f       	subi	r28, 0xFF	; 255
    694c:	d0 40       	sbci	r29, 0x00	; 0
    694e:	c0 50       	subi	r28, 0x00	; 0
    6950:	df 4f       	sbci	r29, 0xFF	; 255
    6952:	c8 80       	ld	r12, Y
    6954:	c0 50       	subi	r28, 0x00	; 0
    6956:	d1 40       	sbci	r29, 0x01	; 1
    6958:	cf 5f       	subi	r28, 0xFF	; 255
    695a:	de 4f       	sbci	r29, 0xFE	; 254
    695c:	d8 80       	ld	r13, Y
    695e:	c1 50       	subi	r28, 0x01	; 1
    6960:	d1 40       	sbci	r29, 0x01	; 1
    6962:	ce 5f       	subi	r28, 0xFE	; 254
    6964:	de 4f       	sbci	r29, 0xFE	; 254
    6966:	e8 80       	ld	r14, Y
    6968:	c2 50       	subi	r28, 0x02	; 2
    696a:	d1 40       	sbci	r29, 0x01	; 1
    696c:	cd 5f       	subi	r28, 0xFD	; 253
    696e:	de 4f       	sbci	r29, 0xFE	; 254
    6970:	f8 80       	ld	r15, Y
    6972:	c3 50       	subi	r28, 0x03	; 3
    6974:	d1 40       	sbci	r29, 0x01	; 1
    6976:	cc 5f       	subi	r28, 0xFC	; 252
    6978:	de 4f       	sbci	r29, 0xFE	; 254
    697a:	08 81       	ld	r16, Y
    697c:	c4 50       	subi	r28, 0x04	; 4
    697e:	d1 40       	sbci	r29, 0x01	; 1
    6980:	cb 5f       	subi	r28, 0xFB	; 251
    6982:	de 4f       	sbci	r29, 0xFE	; 254
    6984:	18 81       	ld	r17, Y
    6986:	c5 50       	subi	r28, 0x05	; 5
    6988:	d1 40       	sbci	r29, 0x01	; 1
    698a:	db d4       	rcall	.+2486   	; 0x7342 <__subdi3>
    698c:	22 2e       	mov	r2, r18
    698e:	33 2e       	mov	r3, r19
    6990:	44 2e       	mov	r4, r20
    6992:	55 2e       	mov	r5, r21
    6994:	66 2e       	mov	r6, r22
    6996:	77 2e       	mov	r7, r23
    6998:	88 2e       	mov	r8, r24
    699a:	99 2e       	mov	r9, r25
    699c:	22 2d       	mov	r18, r2
    699e:	33 2d       	mov	r19, r3
    69a0:	44 2d       	mov	r20, r4
    69a2:	55 2d       	mov	r21, r5
    69a4:	66 2d       	mov	r22, r6
    69a6:	77 2d       	mov	r23, r7
    69a8:	88 2d       	mov	r24, r8
    69aa:	99 2d       	mov	r25, r9
    69ac:	ae a4       	ldd	r10, Y+46	; 0x2e
    69ae:	bf a4       	ldd	r11, Y+47	; 0x2f
    69b0:	c8 a8       	ldd	r12, Y+48	; 0x30
    69b2:	d9 a8       	ldd	r13, Y+49	; 0x31
    69b4:	ea a8       	ldd	r14, Y+50	; 0x32
    69b6:	fb a8       	ldd	r15, Y+51	; 0x33
    69b8:	0c a9       	ldd	r16, Y+52	; 0x34
    69ba:	1d a9       	ldd	r17, Y+53	; 0x35
    69bc:	b9 d4       	rcall	.+2418   	; 0x7330 <__adddi3>
    69be:	22 2e       	mov	r2, r18
    69c0:	33 2e       	mov	r3, r19
    69c2:	44 2e       	mov	r4, r20
    69c4:	55 2e       	mov	r5, r21
    69c6:	66 2e       	mov	r6, r22
    69c8:	77 2e       	mov	r7, r23
    69ca:	88 2e       	mov	r8, r24
    69cc:	99 2e       	mov	r9, r25
    69ce:	22 2d       	mov	r18, r2
    69d0:	33 2d       	mov	r19, r3
    69d2:	44 2d       	mov	r20, r4
    69d4:	55 2d       	mov	r21, r5
    69d6:	66 2d       	mov	r22, r6
    69d8:	77 2d       	mov	r23, r7
    69da:	88 2d       	mov	r24, r8
    69dc:	99 2d       	mov	r25, r9
    69de:	04 e0       	ldi	r16, 0x04	; 4
    69e0:	98 d4       	rcall	.+2352   	; 0x7312 <__ashldi3>
    69e2:	a2 2e       	mov	r10, r18
    69e4:	b3 2e       	mov	r11, r19
    69e6:	c4 2e       	mov	r12, r20
    69e8:	d5 2e       	mov	r13, r21
    69ea:	e6 2e       	mov	r14, r22
    69ec:	f7 2e       	mov	r15, r23
    69ee:	08 2f       	mov	r16, r24
    69f0:	19 2f       	mov	r17, r25
    69f2:	2a 2c       	mov	r2, r10
    69f4:	3b 2c       	mov	r3, r11
    69f6:	4c 2c       	mov	r4, r12
    69f8:	5d 2c       	mov	r5, r13
    69fa:	6e 2c       	mov	r6, r14
    69fc:	7f 2c       	mov	r7, r15
    69fe:	80 2e       	mov	r8, r16
    6a00:	91 2e       	mov	r9, r17
    6a02:	a2 2c       	mov	r10, r2
    6a04:	b3 2c       	mov	r11, r3
    6a06:	c4 2c       	mov	r12, r4
    6a08:	d5 2c       	mov	r13, r5
    6a0a:	e6 2c       	mov	r14, r6
    6a0c:	f7 2c       	mov	r15, r7
    6a0e:	08 2d       	mov	r16, r8
    6a10:	19 2d       	mov	r17, r9
    6a12:	2a 2d       	mov	r18, r10
    6a14:	3b 2d       	mov	r19, r11
    6a16:	4c 2d       	mov	r20, r12
    6a18:	5d 2d       	mov	r21, r13
    6a1a:	6e 2d       	mov	r22, r14
    6a1c:	7f 2d       	mov	r23, r15
    6a1e:	80 2f       	mov	r24, r16
    6a20:	91 2f       	mov	r25, r17
    6a22:	29 51       	subi	r18, 0x19	; 25
    6a24:	3c 4f       	sbci	r19, 0xFC	; 252
    6a26:	4f 4f       	sbci	r20, 0xFF	; 255
    6a28:	5f 4f       	sbci	r21, 0xFF	; 255
    6a2a:	6f 4f       	sbci	r22, 0xFF	; 255
    6a2c:	7f 4f       	sbci	r23, 0xFF	; 255
    6a2e:	8f 4f       	sbci	r24, 0xFF	; 255
    6a30:	9f 4f       	sbci	r25, 0xFF	; 255
    6a32:	a2 2e       	mov	r10, r18
    6a34:	b3 2e       	mov	r11, r19
    6a36:	c4 2e       	mov	r12, r20
    6a38:	d5 2e       	mov	r13, r21
    6a3a:	e6 2e       	mov	r14, r22
    6a3c:	f7 2e       	mov	r15, r23
    6a3e:	08 2f       	mov	r16, r24
    6a40:	19 2f       	mov	r17, r25
    6a42:	2a 2d       	mov	r18, r10
    6a44:	3b 2d       	mov	r19, r11
    6a46:	4c 2d       	mov	r20, r12
    6a48:	5d 2d       	mov	r21, r13
    6a4a:	6e 2d       	mov	r22, r14
    6a4c:	7f 2d       	mov	r23, r15
    6a4e:	80 2f       	mov	r24, r16
    6a50:	91 2f       	mov	r25, r17
    6a52:	0e 94 f6 01 	call	0x3ec	; 0x3ec <__floatundisf>
    6a56:	dc 01       	movw	r26, r24
    6a58:	cb 01       	movw	r24, r22
    6a5a:	20 e0       	ldi	r18, 0x00	; 0
    6a5c:	30 e8       	ldi	r19, 0x80	; 128
    6a5e:	4b eb       	ldi	r20, 0xBB	; 187
    6a60:	55 e4       	ldi	r21, 0x45	; 69
    6a62:	bc 01       	movw	r22, r24
    6a64:	cd 01       	movw	r24, r26
    6a66:	0e 94 71 03 	call	0x6e2	; 0x6e2 <__divsf3>
    6a6a:	dc 01       	movw	r26, r24
    6a6c:	cb 01       	movw	r24, r22
    6a6e:	bc 01       	movw	r22, r24
    6a70:	cd 01       	movw	r24, r26
    6a72:	0e 94 45 01 	call	0x28a	; 0x28a <__fixunssfdi>
    6a76:	a2 2e       	mov	r10, r18
    6a78:	b3 2e       	mov	r11, r19
    6a7a:	c4 2e       	mov	r12, r20
    6a7c:	d5 2e       	mov	r13, r21
    6a7e:	e6 2e       	mov	r14, r22
    6a80:	f7 2e       	mov	r15, r23
    6a82:	08 2f       	mov	r16, r24
    6a84:	19 2f       	mov	r17, r25
    6a86:	d6 01       	movw	r26, r12
    6a88:	c5 01       	movw	r24, r10
    6a8a:	bc 01       	movw	r22, r24
    6a8c:	cd 01       	movw	r24, r26
    6a8e:	0e 94 bf 17 	call	0x2f7e	; 0x2f7e <__portable_avr_delay_cycles>
					showMeByte(0);
    6a92:	80 e0       	ldi	r24, 0x00	; 0
    6a94:	0e 94 66 1b 	call	0x36cc	; 0x36cc <showMeByte>
					delay_ms(500);
    6a98:	0e 94 b3 17 	call	0x2f66	; 0x2f66 <sysclk_get_cpu_hz>
    6a9c:	dc 01       	movw	r26, r24
    6a9e:	cb 01       	movw	r24, r22
    6aa0:	8c 01       	movw	r16, r24
    6aa2:	9d 01       	movw	r18, r26
    6aa4:	40 e0       	ldi	r20, 0x00	; 0
    6aa6:	50 e0       	ldi	r21, 0x00	; 0
    6aa8:	ba 01       	movw	r22, r20
    6aaa:	0e ab       	std	Y+54, r16	; 0x36
    6aac:	1f ab       	std	Y+55, r17	; 0x37
    6aae:	28 af       	std	Y+56, r18	; 0x38
    6ab0:	39 af       	std	Y+57, r19	; 0x39
    6ab2:	4a af       	std	Y+58, r20	; 0x3a
    6ab4:	5b af       	std	Y+59, r21	; 0x3b
    6ab6:	6c af       	std	Y+60, r22	; 0x3c
    6ab8:	7d af       	std	Y+61, r23	; 0x3d
    6aba:	1e a9       	ldd	r17, Y+54	; 0x36
    6abc:	ca 5f       	subi	r28, 0xFA	; 250
    6abe:	de 4f       	sbci	r29, 0xFE	; 254
    6ac0:	18 83       	st	Y, r17
    6ac2:	c6 50       	subi	r28, 0x06	; 6
    6ac4:	d1 40       	sbci	r29, 0x01	; 1
    6ac6:	2f a9       	ldd	r18, Y+55	; 0x37
    6ac8:	c9 5f       	subi	r28, 0xF9	; 249
    6aca:	de 4f       	sbci	r29, 0xFE	; 254
    6acc:	28 83       	st	Y, r18
    6ace:	c7 50       	subi	r28, 0x07	; 7
    6ad0:	d1 40       	sbci	r29, 0x01	; 1
    6ad2:	38 ad       	ldd	r19, Y+56	; 0x38
    6ad4:	c8 5f       	subi	r28, 0xF8	; 248
    6ad6:	de 4f       	sbci	r29, 0xFE	; 254
    6ad8:	38 83       	st	Y, r19
    6ada:	c8 50       	subi	r28, 0x08	; 8
    6adc:	d1 40       	sbci	r29, 0x01	; 1
    6ade:	49 ad       	ldd	r20, Y+57	; 0x39
    6ae0:	c7 5f       	subi	r28, 0xF7	; 247
    6ae2:	de 4f       	sbci	r29, 0xFE	; 254
    6ae4:	48 83       	st	Y, r20
    6ae6:	c9 50       	subi	r28, 0x09	; 9
    6ae8:	d1 40       	sbci	r29, 0x01	; 1
    6aea:	5a ad       	ldd	r21, Y+58	; 0x3a
    6aec:	c6 5f       	subi	r28, 0xF6	; 246
    6aee:	de 4f       	sbci	r29, 0xFE	; 254
    6af0:	58 83       	st	Y, r21
    6af2:	ca 50       	subi	r28, 0x0A	; 10
    6af4:	d1 40       	sbci	r29, 0x01	; 1
    6af6:	6b ad       	ldd	r22, Y+59	; 0x3b
    6af8:	c5 5f       	subi	r28, 0xF5	; 245
    6afa:	de 4f       	sbci	r29, 0xFE	; 254
    6afc:	68 83       	st	Y, r22
    6afe:	cb 50       	subi	r28, 0x0B	; 11
    6b00:	d1 40       	sbci	r29, 0x01	; 1
    6b02:	7c ad       	ldd	r23, Y+60	; 0x3c
    6b04:	c4 5f       	subi	r28, 0xF4	; 244
    6b06:	de 4f       	sbci	r29, 0xFE	; 254
    6b08:	78 83       	st	Y, r23
    6b0a:	cc 50       	subi	r28, 0x0C	; 12
    6b0c:	d1 40       	sbci	r29, 0x01	; 1
    6b0e:	8d ad       	ldd	r24, Y+61	; 0x3d
    6b10:	c3 5f       	subi	r28, 0xF3	; 243
    6b12:	de 4f       	sbci	r29, 0xFE	; 254
    6b14:	88 83       	st	Y, r24
    6b16:	cd 50       	subi	r28, 0x0D	; 13
    6b18:	d1 40       	sbci	r29, 0x01	; 1
    6b1a:	ca 5f       	subi	r28, 0xFA	; 250
    6b1c:	de 4f       	sbci	r29, 0xFE	; 254
    6b1e:	28 81       	ld	r18, Y
    6b20:	c6 50       	subi	r28, 0x06	; 6
    6b22:	d1 40       	sbci	r29, 0x01	; 1
    6b24:	c9 5f       	subi	r28, 0xF9	; 249
    6b26:	de 4f       	sbci	r29, 0xFE	; 254
    6b28:	38 81       	ld	r19, Y
    6b2a:	c7 50       	subi	r28, 0x07	; 7
    6b2c:	d1 40       	sbci	r29, 0x01	; 1
    6b2e:	c8 5f       	subi	r28, 0xF8	; 248
    6b30:	de 4f       	sbci	r29, 0xFE	; 254
    6b32:	48 81       	ld	r20, Y
    6b34:	c8 50       	subi	r28, 0x08	; 8
    6b36:	d1 40       	sbci	r29, 0x01	; 1
    6b38:	c7 5f       	subi	r28, 0xF7	; 247
    6b3a:	de 4f       	sbci	r29, 0xFE	; 254
    6b3c:	58 81       	ld	r21, Y
    6b3e:	c9 50       	subi	r28, 0x09	; 9
    6b40:	d1 40       	sbci	r29, 0x01	; 1
    6b42:	c6 5f       	subi	r28, 0xF6	; 246
    6b44:	de 4f       	sbci	r29, 0xFE	; 254
    6b46:	68 81       	ld	r22, Y
    6b48:	ca 50       	subi	r28, 0x0A	; 10
    6b4a:	d1 40       	sbci	r29, 0x01	; 1
    6b4c:	c5 5f       	subi	r28, 0xF5	; 245
    6b4e:	de 4f       	sbci	r29, 0xFE	; 254
    6b50:	78 81       	ld	r23, Y
    6b52:	cb 50       	subi	r28, 0x0B	; 11
    6b54:	d1 40       	sbci	r29, 0x01	; 1
    6b56:	c4 5f       	subi	r28, 0xF4	; 244
    6b58:	de 4f       	sbci	r29, 0xFE	; 254
    6b5a:	88 81       	ld	r24, Y
    6b5c:	cc 50       	subi	r28, 0x0C	; 12
    6b5e:	d1 40       	sbci	r29, 0x01	; 1
    6b60:	c3 5f       	subi	r28, 0xF3	; 243
    6b62:	de 4f       	sbci	r29, 0xFE	; 254
    6b64:	98 81       	ld	r25, Y
    6b66:	cd 50       	subi	r28, 0x0D	; 13
    6b68:	d1 40       	sbci	r29, 0x01	; 1
    6b6a:	02 e0       	ldi	r16, 0x02	; 2
    6b6c:	d2 d3       	rcall	.+1956   	; 0x7312 <__ashldi3>
    6b6e:	a2 2e       	mov	r10, r18
    6b70:	b3 2e       	mov	r11, r19
    6b72:	c4 2e       	mov	r12, r20
    6b74:	d5 2e       	mov	r13, r21
    6b76:	e6 2e       	mov	r14, r22
    6b78:	f7 2e       	mov	r15, r23
    6b7a:	08 2f       	mov	r16, r24
    6b7c:	19 2f       	mov	r17, r25
    6b7e:	ca 5f       	subi	r28, 0xFA	; 250
    6b80:	de 4f       	sbci	r29, 0xFE	; 254
    6b82:	a8 82       	st	Y, r10
    6b84:	c6 50       	subi	r28, 0x06	; 6
    6b86:	d1 40       	sbci	r29, 0x01	; 1
    6b88:	c9 5f       	subi	r28, 0xF9	; 249
    6b8a:	de 4f       	sbci	r29, 0xFE	; 254
    6b8c:	b8 82       	st	Y, r11
    6b8e:	c7 50       	subi	r28, 0x07	; 7
    6b90:	d1 40       	sbci	r29, 0x01	; 1
    6b92:	c8 5f       	subi	r28, 0xF8	; 248
    6b94:	de 4f       	sbci	r29, 0xFE	; 254
    6b96:	c8 82       	st	Y, r12
    6b98:	c8 50       	subi	r28, 0x08	; 8
    6b9a:	d1 40       	sbci	r29, 0x01	; 1
    6b9c:	c7 5f       	subi	r28, 0xF7	; 247
    6b9e:	de 4f       	sbci	r29, 0xFE	; 254
    6ba0:	d8 82       	st	Y, r13
    6ba2:	c9 50       	subi	r28, 0x09	; 9
    6ba4:	d1 40       	sbci	r29, 0x01	; 1
    6ba6:	c6 5f       	subi	r28, 0xF6	; 246
    6ba8:	de 4f       	sbci	r29, 0xFE	; 254
    6baa:	e8 82       	st	Y, r14
    6bac:	ca 50       	subi	r28, 0x0A	; 10
    6bae:	d1 40       	sbci	r29, 0x01	; 1
    6bb0:	c5 5f       	subi	r28, 0xF5	; 245
    6bb2:	de 4f       	sbci	r29, 0xFE	; 254
    6bb4:	f8 82       	st	Y, r15
    6bb6:	cb 50       	subi	r28, 0x0B	; 11
    6bb8:	d1 40       	sbci	r29, 0x01	; 1
    6bba:	c4 5f       	subi	r28, 0xF4	; 244
    6bbc:	de 4f       	sbci	r29, 0xFE	; 254
    6bbe:	08 83       	st	Y, r16
    6bc0:	cc 50       	subi	r28, 0x0C	; 12
    6bc2:	d1 40       	sbci	r29, 0x01	; 1
    6bc4:	c3 5f       	subi	r28, 0xF3	; 243
    6bc6:	de 4f       	sbci	r29, 0xFE	; 254
    6bc8:	18 83       	st	Y, r17
    6bca:	cd 50       	subi	r28, 0x0D	; 13
    6bcc:	d1 40       	sbci	r29, 0x01	; 1
    6bce:	ca 5f       	subi	r28, 0xFA	; 250
    6bd0:	de 4f       	sbci	r29, 0xFE	; 254
    6bd2:	28 81       	ld	r18, Y
    6bd4:	c6 50       	subi	r28, 0x06	; 6
    6bd6:	d1 40       	sbci	r29, 0x01	; 1
    6bd8:	c9 5f       	subi	r28, 0xF9	; 249
    6bda:	de 4f       	sbci	r29, 0xFE	; 254
    6bdc:	38 81       	ld	r19, Y
    6bde:	c7 50       	subi	r28, 0x07	; 7
    6be0:	d1 40       	sbci	r29, 0x01	; 1
    6be2:	c8 5f       	subi	r28, 0xF8	; 248
    6be4:	de 4f       	sbci	r29, 0xFE	; 254
    6be6:	48 81       	ld	r20, Y
    6be8:	c8 50       	subi	r28, 0x08	; 8
    6bea:	d1 40       	sbci	r29, 0x01	; 1
    6bec:	c7 5f       	subi	r28, 0xF7	; 247
    6bee:	de 4f       	sbci	r29, 0xFE	; 254
    6bf0:	58 81       	ld	r21, Y
    6bf2:	c9 50       	subi	r28, 0x09	; 9
    6bf4:	d1 40       	sbci	r29, 0x01	; 1
    6bf6:	c6 5f       	subi	r28, 0xF6	; 246
    6bf8:	de 4f       	sbci	r29, 0xFE	; 254
    6bfa:	68 81       	ld	r22, Y
    6bfc:	ca 50       	subi	r28, 0x0A	; 10
    6bfe:	d1 40       	sbci	r29, 0x01	; 1
    6c00:	c5 5f       	subi	r28, 0xF5	; 245
    6c02:	de 4f       	sbci	r29, 0xFE	; 254
    6c04:	78 81       	ld	r23, Y
    6c06:	cb 50       	subi	r28, 0x0B	; 11
    6c08:	d1 40       	sbci	r29, 0x01	; 1
    6c0a:	c4 5f       	subi	r28, 0xF4	; 244
    6c0c:	de 4f       	sbci	r29, 0xFE	; 254
    6c0e:	88 81       	ld	r24, Y
    6c10:	cc 50       	subi	r28, 0x0C	; 12
    6c12:	d1 40       	sbci	r29, 0x01	; 1
    6c14:	c3 5f       	subi	r28, 0xF3	; 243
    6c16:	de 4f       	sbci	r29, 0xFE	; 254
    6c18:	98 81       	ld	r25, Y
    6c1a:	cd 50       	subi	r28, 0x0D	; 13
    6c1c:	d1 40       	sbci	r29, 0x01	; 1
    6c1e:	05 e0       	ldi	r16, 0x05	; 5
    6c20:	78 d3       	rcall	.+1776   	; 0x7312 <__ashldi3>
    6c22:	22 2e       	mov	r2, r18
    6c24:	33 2e       	mov	r3, r19
    6c26:	44 2e       	mov	r4, r20
    6c28:	55 2e       	mov	r5, r21
    6c2a:	66 2e       	mov	r6, r22
    6c2c:	77 2e       	mov	r7, r23
    6c2e:	88 2e       	mov	r8, r24
    6c30:	99 2e       	mov	r9, r25
    6c32:	22 2d       	mov	r18, r2
    6c34:	33 2d       	mov	r19, r3
    6c36:	44 2d       	mov	r20, r4
    6c38:	55 2d       	mov	r21, r5
    6c3a:	66 2d       	mov	r22, r6
    6c3c:	77 2d       	mov	r23, r7
    6c3e:	88 2d       	mov	r24, r8
    6c40:	99 2d       	mov	r25, r9
    6c42:	ca 5f       	subi	r28, 0xFA	; 250
    6c44:	de 4f       	sbci	r29, 0xFE	; 254
    6c46:	a8 80       	ld	r10, Y
    6c48:	c6 50       	subi	r28, 0x06	; 6
    6c4a:	d1 40       	sbci	r29, 0x01	; 1
    6c4c:	c9 5f       	subi	r28, 0xF9	; 249
    6c4e:	de 4f       	sbci	r29, 0xFE	; 254
    6c50:	b8 80       	ld	r11, Y
    6c52:	c7 50       	subi	r28, 0x07	; 7
    6c54:	d1 40       	sbci	r29, 0x01	; 1
    6c56:	c8 5f       	subi	r28, 0xF8	; 248
    6c58:	de 4f       	sbci	r29, 0xFE	; 254
    6c5a:	c8 80       	ld	r12, Y
    6c5c:	c8 50       	subi	r28, 0x08	; 8
    6c5e:	d1 40       	sbci	r29, 0x01	; 1
    6c60:	c7 5f       	subi	r28, 0xF7	; 247
    6c62:	de 4f       	sbci	r29, 0xFE	; 254
    6c64:	d8 80       	ld	r13, Y
    6c66:	c9 50       	subi	r28, 0x09	; 9
    6c68:	d1 40       	sbci	r29, 0x01	; 1
    6c6a:	c6 5f       	subi	r28, 0xF6	; 246
    6c6c:	de 4f       	sbci	r29, 0xFE	; 254
    6c6e:	e8 80       	ld	r14, Y
    6c70:	ca 50       	subi	r28, 0x0A	; 10
    6c72:	d1 40       	sbci	r29, 0x01	; 1
    6c74:	c5 5f       	subi	r28, 0xF5	; 245
    6c76:	de 4f       	sbci	r29, 0xFE	; 254
    6c78:	f8 80       	ld	r15, Y
    6c7a:	cb 50       	subi	r28, 0x0B	; 11
    6c7c:	d1 40       	sbci	r29, 0x01	; 1
    6c7e:	c4 5f       	subi	r28, 0xF4	; 244
    6c80:	de 4f       	sbci	r29, 0xFE	; 254
    6c82:	08 81       	ld	r16, Y
    6c84:	cc 50       	subi	r28, 0x0C	; 12
    6c86:	d1 40       	sbci	r29, 0x01	; 1
    6c88:	c3 5f       	subi	r28, 0xF3	; 243
    6c8a:	de 4f       	sbci	r29, 0xFE	; 254
    6c8c:	18 81       	ld	r17, Y
    6c8e:	cd 50       	subi	r28, 0x0D	; 13
    6c90:	d1 40       	sbci	r29, 0x01	; 1
    6c92:	57 d3       	rcall	.+1710   	; 0x7342 <__subdi3>
    6c94:	22 2e       	mov	r2, r18
    6c96:	33 2e       	mov	r3, r19
    6c98:	44 2e       	mov	r4, r20
    6c9a:	55 2e       	mov	r5, r21
    6c9c:	66 2e       	mov	r6, r22
    6c9e:	77 2e       	mov	r7, r23
    6ca0:	88 2e       	mov	r8, r24
    6ca2:	99 2e       	mov	r9, r25
    6ca4:	22 2d       	mov	r18, r2
    6ca6:	33 2d       	mov	r19, r3
    6ca8:	44 2d       	mov	r20, r4
    6caa:	55 2d       	mov	r21, r5
    6cac:	66 2d       	mov	r22, r6
    6cae:	77 2d       	mov	r23, r7
    6cb0:	88 2d       	mov	r24, r8
    6cb2:	99 2d       	mov	r25, r9
    6cb4:	ae a8       	ldd	r10, Y+54	; 0x36
    6cb6:	bf a8       	ldd	r11, Y+55	; 0x37
    6cb8:	c8 ac       	ldd	r12, Y+56	; 0x38
    6cba:	d9 ac       	ldd	r13, Y+57	; 0x39
    6cbc:	ea ac       	ldd	r14, Y+58	; 0x3a
    6cbe:	fb ac       	ldd	r15, Y+59	; 0x3b
    6cc0:	0c ad       	ldd	r16, Y+60	; 0x3c
    6cc2:	1d ad       	ldd	r17, Y+61	; 0x3d
    6cc4:	35 d3       	rcall	.+1642   	; 0x7330 <__adddi3>
    6cc6:	22 2e       	mov	r2, r18
    6cc8:	33 2e       	mov	r3, r19
    6cca:	44 2e       	mov	r4, r20
    6ccc:	55 2e       	mov	r5, r21
    6cce:	66 2e       	mov	r6, r22
    6cd0:	77 2e       	mov	r7, r23
    6cd2:	88 2e       	mov	r8, r24
    6cd4:	99 2e       	mov	r9, r25
    6cd6:	22 2d       	mov	r18, r2
    6cd8:	33 2d       	mov	r19, r3
    6cda:	44 2d       	mov	r20, r4
    6cdc:	55 2d       	mov	r21, r5
    6cde:	66 2d       	mov	r22, r6
    6ce0:	77 2d       	mov	r23, r7
    6ce2:	88 2d       	mov	r24, r8
    6ce4:	99 2d       	mov	r25, r9
    6ce6:	02 e0       	ldi	r16, 0x02	; 2
    6ce8:	14 d3       	rcall	.+1576   	; 0x7312 <__ashldi3>
    6cea:	a2 2e       	mov	r10, r18
    6cec:	b3 2e       	mov	r11, r19
    6cee:	c4 2e       	mov	r12, r20
    6cf0:	d5 2e       	mov	r13, r21
    6cf2:	e6 2e       	mov	r14, r22
    6cf4:	f7 2e       	mov	r15, r23
    6cf6:	08 2f       	mov	r16, r24
    6cf8:	19 2f       	mov	r17, r25
    6cfa:	2a 2c       	mov	r2, r10
    6cfc:	3b 2c       	mov	r3, r11
    6cfe:	4c 2c       	mov	r4, r12
    6d00:	5d 2c       	mov	r5, r13
    6d02:	6e 2c       	mov	r6, r14
    6d04:	7f 2c       	mov	r7, r15
    6d06:	80 2e       	mov	r8, r16
    6d08:	91 2e       	mov	r9, r17
    6d0a:	a2 2c       	mov	r10, r2
    6d0c:	b3 2c       	mov	r11, r3
    6d0e:	c4 2c       	mov	r12, r4
    6d10:	d5 2c       	mov	r13, r5
    6d12:	e6 2c       	mov	r14, r6
    6d14:	f7 2c       	mov	r15, r7
    6d16:	08 2d       	mov	r16, r8
    6d18:	19 2d       	mov	r17, r9
    6d1a:	2a 2d       	mov	r18, r10
    6d1c:	3b 2d       	mov	r19, r11
    6d1e:	4c 2d       	mov	r20, r12
    6d20:	5d 2d       	mov	r21, r13
    6d22:	6e 2d       	mov	r22, r14
    6d24:	7f 2d       	mov	r23, r15
    6d26:	80 2f       	mov	r24, r16
    6d28:	91 2f       	mov	r25, r17
    6d2a:	29 51       	subi	r18, 0x19	; 25
    6d2c:	3c 4f       	sbci	r19, 0xFC	; 252
    6d2e:	4f 4f       	sbci	r20, 0xFF	; 255
    6d30:	5f 4f       	sbci	r21, 0xFF	; 255
    6d32:	6f 4f       	sbci	r22, 0xFF	; 255
    6d34:	7f 4f       	sbci	r23, 0xFF	; 255
    6d36:	8f 4f       	sbci	r24, 0xFF	; 255
    6d38:	9f 4f       	sbci	r25, 0xFF	; 255
    6d3a:	a2 2e       	mov	r10, r18
    6d3c:	b3 2e       	mov	r11, r19
    6d3e:	c4 2e       	mov	r12, r20
    6d40:	d5 2e       	mov	r13, r21
    6d42:	e6 2e       	mov	r14, r22
    6d44:	f7 2e       	mov	r15, r23
    6d46:	08 2f       	mov	r16, r24
    6d48:	19 2f       	mov	r17, r25
    6d4a:	2a 2d       	mov	r18, r10
    6d4c:	3b 2d       	mov	r19, r11
    6d4e:	4c 2d       	mov	r20, r12
    6d50:	5d 2d       	mov	r21, r13
    6d52:	6e 2d       	mov	r22, r14
    6d54:	7f 2d       	mov	r23, r15
    6d56:	80 2f       	mov	r24, r16
    6d58:	91 2f       	mov	r25, r17
    6d5a:	0e 94 f6 01 	call	0x3ec	; 0x3ec <__floatundisf>
    6d5e:	dc 01       	movw	r26, r24
    6d60:	cb 01       	movw	r24, r22
    6d62:	20 e0       	ldi	r18, 0x00	; 0
    6d64:	30 e8       	ldi	r19, 0x80	; 128
    6d66:	4b eb       	ldi	r20, 0xBB	; 187
    6d68:	55 e4       	ldi	r21, 0x45	; 69
    6d6a:	bc 01       	movw	r22, r24
    6d6c:	cd 01       	movw	r24, r26
    6d6e:	0e 94 71 03 	call	0x6e2	; 0x6e2 <__divsf3>
    6d72:	dc 01       	movw	r26, r24
    6d74:	cb 01       	movw	r24, r22
    6d76:	bc 01       	movw	r22, r24
    6d78:	cd 01       	movw	r24, r26
    6d7a:	0e 94 45 01 	call	0x28a	; 0x28a <__fixunssfdi>
    6d7e:	a2 2e       	mov	r10, r18
    6d80:	b3 2e       	mov	r11, r19
    6d82:	c4 2e       	mov	r12, r20
    6d84:	d5 2e       	mov	r13, r21
    6d86:	e6 2e       	mov	r14, r22
    6d88:	f7 2e       	mov	r15, r23
    6d8a:	08 2f       	mov	r16, r24
    6d8c:	19 2f       	mov	r17, r25
    6d8e:	d6 01       	movw	r26, r12
    6d90:	c5 01       	movw	r24, r10
    6d92:	bc 01       	movw	r22, r24
    6d94:	cd 01       	movw	r24, r26
    6d96:	0e 94 bf 17 	call	0x2f7e	; 0x2f7e <__portable_avr_delay_cycles>
					showMeByte(COA_Measurments[0]);
    6d9a:	80 91 63 20 	lds	r24, 0x2063
    6d9e:	90 91 64 20 	lds	r25, 0x2064
    6da2:	a0 91 65 20 	lds	r26, 0x2065
    6da6:	b0 91 66 20 	lds	r27, 0x2066
    6daa:	0e 94 66 1b 	call	0x36cc	; 0x36cc <showMeByte>
					delay_ms(2000);
    6dae:	0e 94 b3 17 	call	0x2f66	; 0x2f66 <sysclk_get_cpu_hz>
    6db2:	dc 01       	movw	r26, r24
    6db4:	cb 01       	movw	r24, r22
    6db6:	8c 01       	movw	r16, r24
    6db8:	9d 01       	movw	r18, r26
    6dba:	40 e0       	ldi	r20, 0x00	; 0
    6dbc:	50 e0       	ldi	r21, 0x00	; 0
    6dbe:	ba 01       	movw	r22, r20
    6dc0:	0e af       	std	Y+62, r16	; 0x3e
    6dc2:	1f af       	std	Y+63, r17	; 0x3f
    6dc4:	21 96       	adiw	r28, 0x01	; 1
    6dc6:	2f af       	std	Y+63, r18	; 0x3f
    6dc8:	21 97       	sbiw	r28, 0x01	; 1
    6dca:	22 96       	adiw	r28, 0x02	; 2
    6dcc:	3f af       	std	Y+63, r19	; 0x3f
    6dce:	22 97       	sbiw	r28, 0x02	; 2
    6dd0:	23 96       	adiw	r28, 0x03	; 3
    6dd2:	4f af       	std	Y+63, r20	; 0x3f
    6dd4:	23 97       	sbiw	r28, 0x03	; 3
    6dd6:	24 96       	adiw	r28, 0x04	; 4
    6dd8:	5f af       	std	Y+63, r21	; 0x3f
    6dda:	24 97       	sbiw	r28, 0x04	; 4
    6ddc:	25 96       	adiw	r28, 0x05	; 5
    6dde:	6f af       	std	Y+63, r22	; 0x3f
    6de0:	25 97       	sbiw	r28, 0x05	; 5
    6de2:	26 96       	adiw	r28, 0x06	; 6
    6de4:	7f af       	std	Y+63, r23	; 0x3f
    6de6:	26 97       	sbiw	r28, 0x06	; 6
    6de8:	1e ad       	ldd	r17, Y+62	; 0x3e
    6dea:	c2 5f       	subi	r28, 0xF2	; 242
    6dec:	de 4f       	sbci	r29, 0xFE	; 254
    6dee:	18 83       	st	Y, r17
    6df0:	ce 50       	subi	r28, 0x0E	; 14
    6df2:	d1 40       	sbci	r29, 0x01	; 1
    6df4:	2f ad       	ldd	r18, Y+63	; 0x3f
    6df6:	c1 5f       	subi	r28, 0xF1	; 241
    6df8:	de 4f       	sbci	r29, 0xFE	; 254
    6dfa:	28 83       	st	Y, r18
    6dfc:	cf 50       	subi	r28, 0x0F	; 15
    6dfe:	d1 40       	sbci	r29, 0x01	; 1
    6e00:	21 96       	adiw	r28, 0x01	; 1
    6e02:	3f ad       	ldd	r19, Y+63	; 0x3f
    6e04:	21 97       	sbiw	r28, 0x01	; 1
    6e06:	c0 5f       	subi	r28, 0xF0	; 240
    6e08:	de 4f       	sbci	r29, 0xFE	; 254
    6e0a:	38 83       	st	Y, r19
    6e0c:	c0 51       	subi	r28, 0x10	; 16
    6e0e:	d1 40       	sbci	r29, 0x01	; 1
    6e10:	22 96       	adiw	r28, 0x02	; 2
    6e12:	4f ad       	ldd	r20, Y+63	; 0x3f
    6e14:	22 97       	sbiw	r28, 0x02	; 2
    6e16:	cf 5e       	subi	r28, 0xEF	; 239
    6e18:	de 4f       	sbci	r29, 0xFE	; 254
    6e1a:	48 83       	st	Y, r20
    6e1c:	c1 51       	subi	r28, 0x11	; 17
    6e1e:	d1 40       	sbci	r29, 0x01	; 1
    6e20:	23 96       	adiw	r28, 0x03	; 3
    6e22:	5f ad       	ldd	r21, Y+63	; 0x3f
    6e24:	23 97       	sbiw	r28, 0x03	; 3
    6e26:	ce 5e       	subi	r28, 0xEE	; 238
    6e28:	de 4f       	sbci	r29, 0xFE	; 254
    6e2a:	58 83       	st	Y, r21
    6e2c:	c2 51       	subi	r28, 0x12	; 18
    6e2e:	d1 40       	sbci	r29, 0x01	; 1
    6e30:	24 96       	adiw	r28, 0x04	; 4
    6e32:	6f ad       	ldd	r22, Y+63	; 0x3f
    6e34:	24 97       	sbiw	r28, 0x04	; 4
    6e36:	cd 5e       	subi	r28, 0xED	; 237
    6e38:	de 4f       	sbci	r29, 0xFE	; 254
    6e3a:	68 83       	st	Y, r22
    6e3c:	c3 51       	subi	r28, 0x13	; 19
    6e3e:	d1 40       	sbci	r29, 0x01	; 1
    6e40:	25 96       	adiw	r28, 0x05	; 5
    6e42:	7f ad       	ldd	r23, Y+63	; 0x3f
    6e44:	25 97       	sbiw	r28, 0x05	; 5
    6e46:	cc 5e       	subi	r28, 0xEC	; 236
    6e48:	de 4f       	sbci	r29, 0xFE	; 254
    6e4a:	78 83       	st	Y, r23
    6e4c:	c4 51       	subi	r28, 0x14	; 20
    6e4e:	d1 40       	sbci	r29, 0x01	; 1
    6e50:	26 96       	adiw	r28, 0x06	; 6
    6e52:	8f ad       	ldd	r24, Y+63	; 0x3f
    6e54:	26 97       	sbiw	r28, 0x06	; 6
    6e56:	cb 5e       	subi	r28, 0xEB	; 235
    6e58:	de 4f       	sbci	r29, 0xFE	; 254
    6e5a:	88 83       	st	Y, r24
    6e5c:	c5 51       	subi	r28, 0x15	; 21
    6e5e:	d1 40       	sbci	r29, 0x01	; 1
    6e60:	c2 5f       	subi	r28, 0xF2	; 242
    6e62:	de 4f       	sbci	r29, 0xFE	; 254
    6e64:	28 81       	ld	r18, Y
    6e66:	ce 50       	subi	r28, 0x0E	; 14
    6e68:	d1 40       	sbci	r29, 0x01	; 1
    6e6a:	c1 5f       	subi	r28, 0xF1	; 241
    6e6c:	de 4f       	sbci	r29, 0xFE	; 254
    6e6e:	38 81       	ld	r19, Y
    6e70:	cf 50       	subi	r28, 0x0F	; 15
    6e72:	d1 40       	sbci	r29, 0x01	; 1
    6e74:	c0 5f       	subi	r28, 0xF0	; 240
    6e76:	de 4f       	sbci	r29, 0xFE	; 254
    6e78:	48 81       	ld	r20, Y
    6e7a:	c0 51       	subi	r28, 0x10	; 16
    6e7c:	d1 40       	sbci	r29, 0x01	; 1
    6e7e:	cf 5e       	subi	r28, 0xEF	; 239
    6e80:	de 4f       	sbci	r29, 0xFE	; 254
    6e82:	58 81       	ld	r21, Y
    6e84:	c1 51       	subi	r28, 0x11	; 17
    6e86:	d1 40       	sbci	r29, 0x01	; 1
    6e88:	ce 5e       	subi	r28, 0xEE	; 238
    6e8a:	de 4f       	sbci	r29, 0xFE	; 254
    6e8c:	68 81       	ld	r22, Y
    6e8e:	c2 51       	subi	r28, 0x12	; 18
    6e90:	d1 40       	sbci	r29, 0x01	; 1
    6e92:	cd 5e       	subi	r28, 0xED	; 237
    6e94:	de 4f       	sbci	r29, 0xFE	; 254
    6e96:	78 81       	ld	r23, Y
    6e98:	c3 51       	subi	r28, 0x13	; 19
    6e9a:	d1 40       	sbci	r29, 0x01	; 1
    6e9c:	cc 5e       	subi	r28, 0xEC	; 236
    6e9e:	de 4f       	sbci	r29, 0xFE	; 254
    6ea0:	88 81       	ld	r24, Y
    6ea2:	c4 51       	subi	r28, 0x14	; 20
    6ea4:	d1 40       	sbci	r29, 0x01	; 1
    6ea6:	cb 5e       	subi	r28, 0xEB	; 235
    6ea8:	de 4f       	sbci	r29, 0xFE	; 254
    6eaa:	98 81       	ld	r25, Y
    6eac:	c5 51       	subi	r28, 0x15	; 21
    6eae:	d1 40       	sbci	r29, 0x01	; 1
    6eb0:	02 e0       	ldi	r16, 0x02	; 2
    6eb2:	2f d2       	rcall	.+1118   	; 0x7312 <__ashldi3>
    6eb4:	a2 2e       	mov	r10, r18
    6eb6:	b3 2e       	mov	r11, r19
    6eb8:	c4 2e       	mov	r12, r20
    6eba:	d5 2e       	mov	r13, r21
    6ebc:	e6 2e       	mov	r14, r22
    6ebe:	f7 2e       	mov	r15, r23
    6ec0:	08 2f       	mov	r16, r24
    6ec2:	19 2f       	mov	r17, r25
    6ec4:	c2 5f       	subi	r28, 0xF2	; 242
    6ec6:	de 4f       	sbci	r29, 0xFE	; 254
    6ec8:	a8 82       	st	Y, r10
    6eca:	ce 50       	subi	r28, 0x0E	; 14
    6ecc:	d1 40       	sbci	r29, 0x01	; 1
    6ece:	c1 5f       	subi	r28, 0xF1	; 241
    6ed0:	de 4f       	sbci	r29, 0xFE	; 254
    6ed2:	b8 82       	st	Y, r11
    6ed4:	cf 50       	subi	r28, 0x0F	; 15
    6ed6:	d1 40       	sbci	r29, 0x01	; 1
    6ed8:	c0 5f       	subi	r28, 0xF0	; 240
    6eda:	de 4f       	sbci	r29, 0xFE	; 254
    6edc:	c8 82       	st	Y, r12
    6ede:	c0 51       	subi	r28, 0x10	; 16
    6ee0:	d1 40       	sbci	r29, 0x01	; 1
    6ee2:	cf 5e       	subi	r28, 0xEF	; 239
    6ee4:	de 4f       	sbci	r29, 0xFE	; 254
    6ee6:	d8 82       	st	Y, r13
    6ee8:	c1 51       	subi	r28, 0x11	; 17
    6eea:	d1 40       	sbci	r29, 0x01	; 1
    6eec:	ce 5e       	subi	r28, 0xEE	; 238
    6eee:	de 4f       	sbci	r29, 0xFE	; 254
    6ef0:	e8 82       	st	Y, r14
    6ef2:	c2 51       	subi	r28, 0x12	; 18
    6ef4:	d1 40       	sbci	r29, 0x01	; 1
    6ef6:	cd 5e       	subi	r28, 0xED	; 237
    6ef8:	de 4f       	sbci	r29, 0xFE	; 254
    6efa:	f8 82       	st	Y, r15
    6efc:	c3 51       	subi	r28, 0x13	; 19
    6efe:	d1 40       	sbci	r29, 0x01	; 1
    6f00:	cc 5e       	subi	r28, 0xEC	; 236
    6f02:	de 4f       	sbci	r29, 0xFE	; 254
    6f04:	08 83       	st	Y, r16
    6f06:	c4 51       	subi	r28, 0x14	; 20
    6f08:	d1 40       	sbci	r29, 0x01	; 1
    6f0a:	cb 5e       	subi	r28, 0xEB	; 235
    6f0c:	de 4f       	sbci	r29, 0xFE	; 254
    6f0e:	18 83       	st	Y, r17
    6f10:	c5 51       	subi	r28, 0x15	; 21
    6f12:	d1 40       	sbci	r29, 0x01	; 1
    6f14:	c2 5f       	subi	r28, 0xF2	; 242
    6f16:	de 4f       	sbci	r29, 0xFE	; 254
    6f18:	28 81       	ld	r18, Y
    6f1a:	ce 50       	subi	r28, 0x0E	; 14
    6f1c:	d1 40       	sbci	r29, 0x01	; 1
    6f1e:	c1 5f       	subi	r28, 0xF1	; 241
    6f20:	de 4f       	sbci	r29, 0xFE	; 254
    6f22:	38 81       	ld	r19, Y
    6f24:	cf 50       	subi	r28, 0x0F	; 15
    6f26:	d1 40       	sbci	r29, 0x01	; 1
    6f28:	c0 5f       	subi	r28, 0xF0	; 240
    6f2a:	de 4f       	sbci	r29, 0xFE	; 254
    6f2c:	48 81       	ld	r20, Y
    6f2e:	c0 51       	subi	r28, 0x10	; 16
    6f30:	d1 40       	sbci	r29, 0x01	; 1
    6f32:	cf 5e       	subi	r28, 0xEF	; 239
    6f34:	de 4f       	sbci	r29, 0xFE	; 254
    6f36:	58 81       	ld	r21, Y
    6f38:	c1 51       	subi	r28, 0x11	; 17
    6f3a:	d1 40       	sbci	r29, 0x01	; 1
    6f3c:	ce 5e       	subi	r28, 0xEE	; 238
    6f3e:	de 4f       	sbci	r29, 0xFE	; 254
    6f40:	68 81       	ld	r22, Y
    6f42:	c2 51       	subi	r28, 0x12	; 18
    6f44:	d1 40       	sbci	r29, 0x01	; 1
    6f46:	cd 5e       	subi	r28, 0xED	; 237
    6f48:	de 4f       	sbci	r29, 0xFE	; 254
    6f4a:	78 81       	ld	r23, Y
    6f4c:	c3 51       	subi	r28, 0x13	; 19
    6f4e:	d1 40       	sbci	r29, 0x01	; 1
    6f50:	cc 5e       	subi	r28, 0xEC	; 236
    6f52:	de 4f       	sbci	r29, 0xFE	; 254
    6f54:	88 81       	ld	r24, Y
    6f56:	c4 51       	subi	r28, 0x14	; 20
    6f58:	d1 40       	sbci	r29, 0x01	; 1
    6f5a:	cb 5e       	subi	r28, 0xEB	; 235
    6f5c:	de 4f       	sbci	r29, 0xFE	; 254
    6f5e:	98 81       	ld	r25, Y
    6f60:	c5 51       	subi	r28, 0x15	; 21
    6f62:	d1 40       	sbci	r29, 0x01	; 1
    6f64:	05 e0       	ldi	r16, 0x05	; 5
    6f66:	d5 d1       	rcall	.+938    	; 0x7312 <__ashldi3>
    6f68:	22 2e       	mov	r2, r18
    6f6a:	33 2e       	mov	r3, r19
    6f6c:	44 2e       	mov	r4, r20
    6f6e:	55 2e       	mov	r5, r21
    6f70:	66 2e       	mov	r6, r22
    6f72:	77 2e       	mov	r7, r23
    6f74:	88 2e       	mov	r8, r24
    6f76:	99 2e       	mov	r9, r25
    6f78:	22 2d       	mov	r18, r2
    6f7a:	33 2d       	mov	r19, r3
    6f7c:	44 2d       	mov	r20, r4
    6f7e:	55 2d       	mov	r21, r5
    6f80:	66 2d       	mov	r22, r6
    6f82:	77 2d       	mov	r23, r7
    6f84:	88 2d       	mov	r24, r8
    6f86:	99 2d       	mov	r25, r9
    6f88:	c2 5f       	subi	r28, 0xF2	; 242
    6f8a:	de 4f       	sbci	r29, 0xFE	; 254
    6f8c:	a8 80       	ld	r10, Y
    6f8e:	ce 50       	subi	r28, 0x0E	; 14
    6f90:	d1 40       	sbci	r29, 0x01	; 1
    6f92:	c1 5f       	subi	r28, 0xF1	; 241
    6f94:	de 4f       	sbci	r29, 0xFE	; 254
    6f96:	b8 80       	ld	r11, Y
    6f98:	cf 50       	subi	r28, 0x0F	; 15
    6f9a:	d1 40       	sbci	r29, 0x01	; 1
    6f9c:	c0 5f       	subi	r28, 0xF0	; 240
    6f9e:	de 4f       	sbci	r29, 0xFE	; 254
    6fa0:	c8 80       	ld	r12, Y
    6fa2:	c0 51       	subi	r28, 0x10	; 16
    6fa4:	d1 40       	sbci	r29, 0x01	; 1
    6fa6:	cf 5e       	subi	r28, 0xEF	; 239
    6fa8:	de 4f       	sbci	r29, 0xFE	; 254
    6faa:	d8 80       	ld	r13, Y
    6fac:	c1 51       	subi	r28, 0x11	; 17
    6fae:	d1 40       	sbci	r29, 0x01	; 1
    6fb0:	ce 5e       	subi	r28, 0xEE	; 238
    6fb2:	de 4f       	sbci	r29, 0xFE	; 254
    6fb4:	e8 80       	ld	r14, Y
    6fb6:	c2 51       	subi	r28, 0x12	; 18
    6fb8:	d1 40       	sbci	r29, 0x01	; 1
    6fba:	cd 5e       	subi	r28, 0xED	; 237
    6fbc:	de 4f       	sbci	r29, 0xFE	; 254
    6fbe:	f8 80       	ld	r15, Y
    6fc0:	c3 51       	subi	r28, 0x13	; 19
    6fc2:	d1 40       	sbci	r29, 0x01	; 1
    6fc4:	cc 5e       	subi	r28, 0xEC	; 236
    6fc6:	de 4f       	sbci	r29, 0xFE	; 254
    6fc8:	08 81       	ld	r16, Y
    6fca:	c4 51       	subi	r28, 0x14	; 20
    6fcc:	d1 40       	sbci	r29, 0x01	; 1
    6fce:	cb 5e       	subi	r28, 0xEB	; 235
    6fd0:	de 4f       	sbci	r29, 0xFE	; 254
    6fd2:	18 81       	ld	r17, Y
    6fd4:	c5 51       	subi	r28, 0x15	; 21
    6fd6:	d1 40       	sbci	r29, 0x01	; 1
    6fd8:	b4 d1       	rcall	.+872    	; 0x7342 <__subdi3>
    6fda:	22 2e       	mov	r2, r18
    6fdc:	33 2e       	mov	r3, r19
    6fde:	44 2e       	mov	r4, r20
    6fe0:	55 2e       	mov	r5, r21
    6fe2:	66 2e       	mov	r6, r22
    6fe4:	77 2e       	mov	r7, r23
    6fe6:	88 2e       	mov	r8, r24
    6fe8:	99 2e       	mov	r9, r25
    6fea:	22 2d       	mov	r18, r2
    6fec:	33 2d       	mov	r19, r3
    6fee:	44 2d       	mov	r20, r4
    6ff0:	55 2d       	mov	r21, r5
    6ff2:	66 2d       	mov	r22, r6
    6ff4:	77 2d       	mov	r23, r7
    6ff6:	88 2d       	mov	r24, r8
    6ff8:	99 2d       	mov	r25, r9
    6ffa:	ae ac       	ldd	r10, Y+62	; 0x3e
    6ffc:	bf ac       	ldd	r11, Y+63	; 0x3f
    6ffe:	21 96       	adiw	r28, 0x01	; 1
    7000:	cf ac       	ldd	r12, Y+63	; 0x3f
    7002:	21 97       	sbiw	r28, 0x01	; 1
    7004:	22 96       	adiw	r28, 0x02	; 2
    7006:	df ac       	ldd	r13, Y+63	; 0x3f
    7008:	22 97       	sbiw	r28, 0x02	; 2
    700a:	23 96       	adiw	r28, 0x03	; 3
    700c:	ef ac       	ldd	r14, Y+63	; 0x3f
    700e:	23 97       	sbiw	r28, 0x03	; 3
    7010:	24 96       	adiw	r28, 0x04	; 4
    7012:	ff ac       	ldd	r15, Y+63	; 0x3f
    7014:	24 97       	sbiw	r28, 0x04	; 4
    7016:	25 96       	adiw	r28, 0x05	; 5
    7018:	0f ad       	ldd	r16, Y+63	; 0x3f
    701a:	25 97       	sbiw	r28, 0x05	; 5
    701c:	26 96       	adiw	r28, 0x06	; 6
    701e:	1f ad       	ldd	r17, Y+63	; 0x3f
    7020:	26 97       	sbiw	r28, 0x06	; 6
    7022:	86 d1       	rcall	.+780    	; 0x7330 <__adddi3>
    7024:	22 2e       	mov	r2, r18
    7026:	33 2e       	mov	r3, r19
    7028:	44 2e       	mov	r4, r20
    702a:	55 2e       	mov	r5, r21
    702c:	66 2e       	mov	r6, r22
    702e:	77 2e       	mov	r7, r23
    7030:	88 2e       	mov	r8, r24
    7032:	99 2e       	mov	r9, r25
    7034:	22 2d       	mov	r18, r2
    7036:	33 2d       	mov	r19, r3
    7038:	44 2d       	mov	r20, r4
    703a:	55 2d       	mov	r21, r5
    703c:	66 2d       	mov	r22, r6
    703e:	77 2d       	mov	r23, r7
    7040:	88 2d       	mov	r24, r8
    7042:	99 2d       	mov	r25, r9
    7044:	04 e0       	ldi	r16, 0x04	; 4
    7046:	65 d1       	rcall	.+714    	; 0x7312 <__ashldi3>
    7048:	a2 2e       	mov	r10, r18
    704a:	b3 2e       	mov	r11, r19
    704c:	c4 2e       	mov	r12, r20
    704e:	d5 2e       	mov	r13, r21
    7050:	e6 2e       	mov	r14, r22
    7052:	f7 2e       	mov	r15, r23
    7054:	08 2f       	mov	r16, r24
    7056:	19 2f       	mov	r17, r25
    7058:	2a 2c       	mov	r2, r10
    705a:	3b 2c       	mov	r3, r11
    705c:	4c 2c       	mov	r4, r12
    705e:	5d 2c       	mov	r5, r13
    7060:	6e 2c       	mov	r6, r14
    7062:	7f 2c       	mov	r7, r15
    7064:	80 2e       	mov	r8, r16
    7066:	91 2e       	mov	r9, r17
    7068:	a2 2c       	mov	r10, r2
    706a:	b3 2c       	mov	r11, r3
    706c:	c4 2c       	mov	r12, r4
    706e:	d5 2c       	mov	r13, r5
    7070:	e6 2c       	mov	r14, r6
    7072:	f7 2c       	mov	r15, r7
    7074:	08 2d       	mov	r16, r8
    7076:	19 2d       	mov	r17, r9
    7078:	2a 2d       	mov	r18, r10
    707a:	3b 2d       	mov	r19, r11
    707c:	4c 2d       	mov	r20, r12
    707e:	5d 2d       	mov	r21, r13
    7080:	6e 2d       	mov	r22, r14
    7082:	7f 2d       	mov	r23, r15
    7084:	80 2f       	mov	r24, r16
    7086:	91 2f       	mov	r25, r17
    7088:	29 51       	subi	r18, 0x19	; 25
    708a:	3c 4f       	sbci	r19, 0xFC	; 252
    708c:	4f 4f       	sbci	r20, 0xFF	; 255
    708e:	5f 4f       	sbci	r21, 0xFF	; 255
    7090:	6f 4f       	sbci	r22, 0xFF	; 255
    7092:	7f 4f       	sbci	r23, 0xFF	; 255
    7094:	8f 4f       	sbci	r24, 0xFF	; 255
    7096:	9f 4f       	sbci	r25, 0xFF	; 255
    7098:	a2 2e       	mov	r10, r18
    709a:	b3 2e       	mov	r11, r19
    709c:	c4 2e       	mov	r12, r20
    709e:	d5 2e       	mov	r13, r21
    70a0:	e6 2e       	mov	r14, r22
    70a2:	f7 2e       	mov	r15, r23
    70a4:	08 2f       	mov	r16, r24
    70a6:	19 2f       	mov	r17, r25
    70a8:	2a 2d       	mov	r18, r10
    70aa:	3b 2d       	mov	r19, r11
    70ac:	4c 2d       	mov	r20, r12
    70ae:	5d 2d       	mov	r21, r13
    70b0:	6e 2d       	mov	r22, r14
    70b2:	7f 2d       	mov	r23, r15
    70b4:	80 2f       	mov	r24, r16
    70b6:	91 2f       	mov	r25, r17
    70b8:	0e 94 f6 01 	call	0x3ec	; 0x3ec <__floatundisf>
    70bc:	dc 01       	movw	r26, r24
    70be:	cb 01       	movw	r24, r22
    70c0:	20 e0       	ldi	r18, 0x00	; 0
    70c2:	30 e8       	ldi	r19, 0x80	; 128
    70c4:	4b eb       	ldi	r20, 0xBB	; 187
    70c6:	55 e4       	ldi	r21, 0x45	; 69
    70c8:	bc 01       	movw	r22, r24
    70ca:	cd 01       	movw	r24, r26
    70cc:	0e 94 71 03 	call	0x6e2	; 0x6e2 <__divsf3>
    70d0:	dc 01       	movw	r26, r24
    70d2:	cb 01       	movw	r24, r22
    70d4:	bc 01       	movw	r22, r24
    70d6:	cd 01       	movw	r24, r26
    70d8:	0e 94 45 01 	call	0x28a	; 0x28a <__fixunssfdi>
    70dc:	a2 2e       	mov	r10, r18
    70de:	b3 2e       	mov	r11, r19
    70e0:	c4 2e       	mov	r12, r20
    70e2:	d5 2e       	mov	r13, r21
    70e4:	e6 2e       	mov	r14, r22
    70e6:	f7 2e       	mov	r15, r23
    70e8:	08 2f       	mov	r16, r24
    70ea:	19 2f       	mov	r17, r25
    70ec:	d6 01       	movw	r26, r12
    70ee:	c5 01       	movw	r24, r10
    70f0:	bc 01       	movw	r22, r24
    70f2:	cd 01       	movw	r24, r26
    70f4:	0e 94 bf 17 	call	0x2f7e	; 0x2f7e <__portable_avr_delay_cycles>

				break;
    70f8:	03 c0       	rjmp	.+6      	; 0x7100 <main+0x2b3e>
		{
			case 1: delay_ms(1000);
					gpio_toggle_pin(LED_VD1);
				break;
			case 2: //showMeByte(duoByte);
				break;
    70fa:	00 00       	nop
    70fc:	01 c0       	rjmp	.+2      	; 0x7100 <main+0x2b3e>
			case 3: //showMeByte(duoByte >> 8);
				break;
    70fe:	00 00       	nop
					showMeByte(COA_Measurments[0]);
					delay_ms(2000);

				break;
		}
	}
    7100:	0c 94 4d 2a 	jmp	0x549a	; 0x549a <main+0xed8>

00007104 <ioport_configure_pin>:
 * \param pin The pin to configure
 * \param flags Bitmask of flags specifying additional configuration
 * parameters.
 */
static inline void ioport_configure_pin(port_pin_t pin, port_pin_flags_t flags)
{
    7104:	cf 93       	push	r28
    7106:	df 93       	push	r29
    7108:	cd b7       	in	r28, 0x3d	; 61
    710a:	de b7       	in	r29, 0x3e	; 62
    710c:	27 97       	sbiw	r28, 0x07	; 7
    710e:	cd bf       	out	0x3d, r28	; 61
    7110:	de bf       	out	0x3e, r29	; 62
    7112:	8d 83       	std	Y+5, r24	; 0x05
    7114:	6e 83       	std	Y+6, r22	; 0x06
    7116:	7f 83       	std	Y+7, r23	; 0x07
    7118:	8d 81       	ldd	r24, Y+5	; 0x05
    711a:	89 83       	std	Y+1, r24	; 0x01
	return arch_ioport_port_to_base(arch_ioport_pin_to_port_id(pin));
}

__always_inline static ioport_port_mask_t arch_ioport_pin_to_mask(ioport_pin_t pin)
{
	return 1U << (pin & 0x07);
    711c:	89 81       	ldd	r24, Y+1	; 0x01
    711e:	88 2f       	mov	r24, r24
    7120:	90 e0       	ldi	r25, 0x00	; 0
    7122:	9c 01       	movw	r18, r24
    7124:	27 70       	andi	r18, 0x07	; 7
    7126:	33 27       	eor	r19, r19
    7128:	81 e0       	ldi	r24, 0x01	; 1
    712a:	90 e0       	ldi	r25, 0x00	; 0
    712c:	02 c0       	rjmp	.+4      	; 0x7132 <ioport_configure_pin+0x2e>
    712e:	88 0f       	add	r24, r24
    7130:	99 1f       	adc	r25, r25
    7132:	2a 95       	dec	r18
    7134:	e2 f7       	brpl	.-8      	; 0x712e <ioport_configure_pin+0x2a>
	ioport_configure_port_pin(arch_ioport_pin_to_base(pin),
    7136:	68 2f       	mov	r22, r24
    7138:	8d 81       	ldd	r24, Y+5	; 0x05
    713a:	8a 83       	std	Y+2, r24	; 0x02
    713c:	8a 81       	ldd	r24, Y+2	; 0x02
    713e:	8b 83       	std	Y+3, r24	; 0x03
typedef uint8_t ioport_port_t;
typedef uint8_t ioport_port_mask_t;

__always_inline static ioport_port_t arch_ioport_pin_to_port_id(ioport_pin_t pin)
{
	return pin >> 3;
    7140:	8b 81       	ldd	r24, Y+3	; 0x03
    7142:	86 95       	lsr	r24
    7144:	86 95       	lsr	r24
    7146:	86 95       	lsr	r24
    7148:	8c 83       	std	Y+4, r24	; 0x04
}

__always_inline static PORT_t *arch_ioport_port_to_base(ioport_port_t port)
{
	return (PORT_t *)((uintptr_t)IOPORT_BASE_ADDRESS +
	       (port * IOPORT_PORT_OFFSET));
    714a:	8c 81       	ldd	r24, Y+4	; 0x04
    714c:	88 2f       	mov	r24, r24
    714e:	90 e0       	ldi	r25, 0x00	; 0
    7150:	88 0f       	add	r24, r24
    7152:	99 1f       	adc	r25, r25
    7154:	82 95       	swap	r24
    7156:	92 95       	swap	r25
    7158:	90 7f       	andi	r25, 0xF0	; 240
    715a:	98 27       	eor	r25, r24
    715c:	80 7f       	andi	r24, 0xF0	; 240
    715e:	98 27       	eor	r25, r24
	return pin >> 3;
}

__always_inline static PORT_t *arch_ioport_port_to_base(ioport_port_t port)
{
	return (PORT_t *)((uintptr_t)IOPORT_BASE_ADDRESS +
    7160:	9a 5f       	subi	r25, 0xFA	; 250
    7162:	2e 81       	ldd	r18, Y+6	; 0x06
    7164:	3f 81       	ldd	r19, Y+7	; 0x07
    7166:	a9 01       	movw	r20, r18
    7168:	0e 94 3c 09 	call	0x1278	; 0x1278 <ioport_configure_port_pin>
			arch_ioport_pin_to_mask(pin), flags);
}
    716c:	27 96       	adiw	r28, 0x07	; 7
    716e:	cd bf       	out	0x3d, r28	; 61
    7170:	de bf       	out	0x3e, r29	; 62
    7172:	df 91       	pop	r29
    7174:	cf 91       	pop	r28
    7176:	08 95       	ret

00007178 <board_init>:
#include <asf.h>
#include <board.h>
#include <conf_board.h>

void board_init(void)
{
    7178:	cf 93       	push	r28
    717a:	df 93       	push	r29
    717c:	cd b7       	in	r28, 0x3d	; 61
    717e:	de b7       	in	r29, 0x3e	; 62
	
#ifdef BOARD_TEST
//------------------------------------  ---------------------------------------
///*
	//LEDs
	gpio_configure_pin(LED_VD1,IOPORT_INIT_LOW | IOPORT_DIR_OUTPUT);
    7180:	61 e0       	ldi	r22, 0x01	; 1
    7182:	70 e0       	ldi	r23, 0x00	; 0
    7184:	88 e0       	ldi	r24, 0x08	; 8
    7186:	be df       	rcall	.-132    	; 0x7104 <ioport_configure_pin>
	gpio_configure_pin(LED_VD2,IOPORT_INIT_LOW | IOPORT_DIR_OUTPUT);
    7188:	61 e0       	ldi	r22, 0x01	; 1
    718a:	70 e0       	ldi	r23, 0x00	; 0
    718c:	8a e0       	ldi	r24, 0x0A	; 10
    718e:	ba df       	rcall	.-140    	; 0x7104 <ioport_configure_pin>
	gpio_configure_pin(LED_VD3,IOPORT_INIT_LOW | IOPORT_DIR_OUTPUT);
    7190:	61 e0       	ldi	r22, 0x01	; 1
    7192:	70 e0       	ldi	r23, 0x00	; 0
    7194:	8b e0       	ldi	r24, 0x0B	; 11
    7196:	b6 df       	rcall	.-148    	; 0x7104 <ioport_configure_pin>
	gpio_configure_pin(LED_VD4,IOPORT_INIT_LOW | IOPORT_DIR_OUTPUT);
    7198:	61 e0       	ldi	r22, 0x01	; 1
    719a:	70 e0       	ldi	r23, 0x00	; 0
    719c:	88 e1       	ldi	r24, 0x18	; 24
    719e:	b2 df       	rcall	.-156    	; 0x7104 <ioport_configure_pin>
	gpio_configure_pin(LED_VD5,IOPORT_INIT_LOW | IOPORT_DIR_OUTPUT);
    71a0:	61 e0       	ldi	r22, 0x01	; 1
    71a2:	70 e0       	ldi	r23, 0x00	; 0
    71a4:	89 e1       	ldi	r24, 0x19	; 25
    71a6:	ae df       	rcall	.-164    	; 0x7104 <ioport_configure_pin>
	gpio_configure_pin(LED_VD6,IOPORT_INIT_LOW | IOPORT_DIR_OUTPUT);
    71a8:	61 e0       	ldi	r22, 0x01	; 1
    71aa:	70 e0       	ldi	r23, 0x00	; 0
    71ac:	8a e1       	ldi	r24, 0x1A	; 26
    71ae:	aa df       	rcall	.-172    	; 0x7104 <ioport_configure_pin>
	gpio_configure_pin(LED_VD7,IOPORT_INIT_LOW | IOPORT_DIR_OUTPUT);
    71b0:	61 e0       	ldi	r22, 0x01	; 1
    71b2:	70 e0       	ldi	r23, 0x00	; 0
    71b4:	8b e1       	ldi	r24, 0x1B	; 27
    71b6:	a6 df       	rcall	.-180    	; 0x7104 <ioport_configure_pin>
	gpio_configure_pin(LED_VD8,IOPORT_INIT_LOW | IOPORT_DIR_OUTPUT);
    71b8:	61 e0       	ldi	r22, 0x01	; 1
    71ba:	70 e0       	ldi	r23, 0x00	; 0
    71bc:	8c e1       	ldi	r24, 0x1C	; 28
    71be:	a2 df       	rcall	.-188    	; 0x7104 <ioport_configure_pin>

	//A0-A7
	ioport_configure_port_pin(&PORTA, PIN0_bm, IOPORT_DIR_INPUT);
    71c0:	40 e0       	ldi	r20, 0x00	; 0
    71c2:	50 e0       	ldi	r21, 0x00	; 0
    71c4:	61 e0       	ldi	r22, 0x01	; 1
    71c6:	80 e0       	ldi	r24, 0x00	; 0
    71c8:	96 e0       	ldi	r25, 0x06	; 6
    71ca:	0e 94 3c 09 	call	0x1278	; 0x1278 <ioport_configure_port_pin>
	ioport_configure_port_pin(&PORTA, PIN1_bm, IOPORT_DIR_INPUT);
    71ce:	40 e0       	ldi	r20, 0x00	; 0
    71d0:	50 e0       	ldi	r21, 0x00	; 0
    71d2:	62 e0       	ldi	r22, 0x02	; 2
    71d4:	80 e0       	ldi	r24, 0x00	; 0
    71d6:	96 e0       	ldi	r25, 0x06	; 6
    71d8:	0e 94 3c 09 	call	0x1278	; 0x1278 <ioport_configure_port_pin>
	ioport_configure_port_pin(&PORTA, PIN2_bm, IOPORT_INIT_LOW | IOPORT_DIR_OUTPUT);
    71dc:	41 e0       	ldi	r20, 0x01	; 1
    71de:	50 e0       	ldi	r21, 0x00	; 0
    71e0:	64 e0       	ldi	r22, 0x04	; 4
    71e2:	80 e0       	ldi	r24, 0x00	; 0
    71e4:	96 e0       	ldi	r25, 0x06	; 6
    71e6:	0e 94 3c 09 	call	0x1278	; 0x1278 <ioport_configure_port_pin>
	ioport_configure_port_pin(&PORTA, PIN3_bm, IOPORT_INIT_LOW | IOPORT_DIR_OUTPUT);
    71ea:	41 e0       	ldi	r20, 0x01	; 1
    71ec:	50 e0       	ldi	r21, 0x00	; 0
    71ee:	68 e0       	ldi	r22, 0x08	; 8
    71f0:	80 e0       	ldi	r24, 0x00	; 0
    71f2:	96 e0       	ldi	r25, 0x06	; 6
    71f4:	0e 94 3c 09 	call	0x1278	; 0x1278 <ioport_configure_port_pin>
	ioport_configure_port_pin(&PORTA, PIN4_bm, IOPORT_DIR_INPUT);
    71f8:	40 e0       	ldi	r20, 0x00	; 0
    71fa:	50 e0       	ldi	r21, 0x00	; 0
    71fc:	60 e1       	ldi	r22, 0x10	; 16
    71fe:	80 e0       	ldi	r24, 0x00	; 0
    7200:	96 e0       	ldi	r25, 0x06	; 6
    7202:	0e 94 3c 09 	call	0x1278	; 0x1278 <ioport_configure_port_pin>
	ioport_configure_port_pin(&PORTA, PIN5_bm, IOPORT_DIR_INPUT);
    7206:	40 e0       	ldi	r20, 0x00	; 0
    7208:	50 e0       	ldi	r21, 0x00	; 0
    720a:	60 e2       	ldi	r22, 0x20	; 32
    720c:	80 e0       	ldi	r24, 0x00	; 0
    720e:	96 e0       	ldi	r25, 0x06	; 6
    7210:	0e 94 3c 09 	call	0x1278	; 0x1278 <ioport_configure_port_pin>
	ioport_configure_port_pin(&PORTA, PIN6_bm, IOPORT_DIR_INPUT);
    7214:	40 e0       	ldi	r20, 0x00	; 0
    7216:	50 e0       	ldi	r21, 0x00	; 0
    7218:	60 e4       	ldi	r22, 0x40	; 64
    721a:	80 e0       	ldi	r24, 0x00	; 0
    721c:	96 e0       	ldi	r25, 0x06	; 6
    721e:	0e 94 3c 09 	call	0x1278	; 0x1278 <ioport_configure_port_pin>
	ioport_configure_port_pin(&PORTA, PIN7_bm, IOPORT_DIR_INPUT);
    7222:	40 e0       	ldi	r20, 0x00	; 0
    7224:	50 e0       	ldi	r21, 0x00	; 0
    7226:	60 e8       	ldi	r22, 0x80	; 128
    7228:	80 e0       	ldi	r24, 0x00	; 0
    722a:	96 e0       	ldi	r25, 0x06	; 6
    722c:	0e 94 3c 09 	call	0x1278	; 0x1278 <ioport_configure_port_pin>
	//USART
	ioport_configure_port_pin(&PORTE, PIN2_bm, IOPORT_DIR_INPUT);
    7230:	40 e0       	ldi	r20, 0x00	; 0
    7232:	50 e0       	ldi	r21, 0x00	; 0
    7234:	64 e0       	ldi	r22, 0x04	; 4
    7236:	80 e8       	ldi	r24, 0x80	; 128
    7238:	96 e0       	ldi	r25, 0x06	; 6
    723a:	0e 94 3c 09 	call	0x1278	; 0x1278 <ioport_configure_port_pin>
	ioport_configure_port_pin(&PORTE, PIN3_bm, IOPORT_INIT_LOW | IOPORT_DIR_OUTPUT);
    723e:	41 e0       	ldi	r20, 0x01	; 1
    7240:	50 e0       	ldi	r21, 0x00	; 0
    7242:	68 e0       	ldi	r22, 0x08	; 8
    7244:	80 e8       	ldi	r24, 0x80	; 128
    7246:	96 e0       	ldi	r25, 0x06	; 6
    7248:	0e 94 3c 09 	call	0x1278	; 0x1278 <ioport_configure_port_pin>
	//SPI
	ioport_configure_port_pin(&PORTC, PIN0_bm, IOPORT_INIT_LOW | IOPORT_DIR_OUTPUT);	// ,        
    724c:	41 e0       	ldi	r20, 0x01	; 1
    724e:	50 e0       	ldi	r21, 0x00	; 0
    7250:	61 e0       	ldi	r22, 0x01	; 1
    7252:	80 e4       	ldi	r24, 0x40	; 64
    7254:	96 e0       	ldi	r25, 0x06	; 6
    7256:	0e 94 3c 09 	call	0x1278	; 0x1278 <ioport_configure_port_pin>
	ioport_configure_port_pin(&PORTC, PIN1_bm, IOPORT_INIT_HIGH | IOPORT_DIR_OUTPUT); 
    725a:	43 e0       	ldi	r20, 0x03	; 3
    725c:	50 e0       	ldi	r21, 0x00	; 0
    725e:	62 e0       	ldi	r22, 0x02	; 2
    7260:	80 e4       	ldi	r24, 0x40	; 64
    7262:	96 e0       	ldi	r25, 0x06	; 6
    7264:	0e 94 3c 09 	call	0x1278	; 0x1278 <ioport_configure_port_pin>
	ioport_configure_port_pin(&PORTC, PIN2_bm, IOPORT_INIT_HIGH | IOPORT_DIR_OUTPUT);
    7268:	43 e0       	ldi	r20, 0x03	; 3
    726a:	50 e0       	ldi	r21, 0x00	; 0
    726c:	64 e0       	ldi	r22, 0x04	; 4
    726e:	80 e4       	ldi	r24, 0x40	; 64
    7270:	96 e0       	ldi	r25, 0x06	; 6
    7272:	0e 94 3c 09 	call	0x1278	; 0x1278 <ioport_configure_port_pin>

	ioport_configure_port_pin(&PORTC, PIN4_bm, IOPORT_PULL_UP | IOPORT_DIR_OUTPUT);//IOPORT_DIR_INPUT);
    7276:	41 e0       	ldi	r20, 0x01	; 1
    7278:	58 e1       	ldi	r21, 0x18	; 24
    727a:	60 e1       	ldi	r22, 0x10	; 16
    727c:	80 e4       	ldi	r24, 0x40	; 64
    727e:	96 e0       	ldi	r25, 0x06	; 6
    7280:	0e 94 3c 09 	call	0x1278	; 0x1278 <ioport_configure_port_pin>
	ioport_configure_port_pin(&PORTC, PIN5_bm, IOPORT_INIT_HIGH | IOPORT_DIR_OUTPUT);
    7284:	43 e0       	ldi	r20, 0x03	; 3
    7286:	50 e0       	ldi	r21, 0x00	; 0
    7288:	60 e2       	ldi	r22, 0x20	; 32
    728a:	80 e4       	ldi	r24, 0x40	; 64
    728c:	96 e0       	ldi	r25, 0x06	; 6
    728e:	0e 94 3c 09 	call	0x1278	; 0x1278 <ioport_configure_port_pin>
	ioport_configure_port_pin(&PORTC, PIN6_bm, IOPORT_DIR_INPUT);
    7292:	40 e0       	ldi	r20, 0x00	; 0
    7294:	50 e0       	ldi	r21, 0x00	; 0
    7296:	60 e4       	ldi	r22, 0x40	; 64
    7298:	80 e4       	ldi	r24, 0x40	; 64
    729a:	96 e0       	ldi	r25, 0x06	; 6
    729c:	0e 94 3c 09 	call	0x1278	; 0x1278 <ioport_configure_port_pin>
	ioport_configure_port_pin(&PORTC, PIN7_bm, IOPORT_INIT_HIGH | IOPORT_DIR_OUTPUT);
    72a0:	43 e0       	ldi	r20, 0x03	; 3
    72a2:	50 e0       	ldi	r21, 0x00	; 0
    72a4:	60 e8       	ldi	r22, 0x80	; 128
    72a6:	80 e4       	ldi	r24, 0x40	; 64
    72a8:	96 e0       	ldi	r25, 0x06	; 6
    72aa:	0e 94 3c 09 	call	0x1278	; 0x1278 <ioport_configure_port_pin>
	
	ioport_configure_port_pin(&PORTD, PIN5_bm, IOPORT_DIR_INPUT);
    72ae:	40 e0       	ldi	r20, 0x00	; 0
    72b0:	50 e0       	ldi	r21, 0x00	; 0
    72b2:	60 e2       	ldi	r22, 0x20	; 32
    72b4:	80 e6       	ldi	r24, 0x60	; 96
    72b6:	96 e0       	ldi	r25, 0x06	; 6
    72b8:	0e 94 3c 09 	call	0x1278	; 0x1278 <ioport_configure_port_pin>
	gpio_configure_pin(pin_COA, IOPORT_DIR_INPUT);
	gpio_configure_pin(pin_COB, IOPORT_DIR_INPUT);
	gpio_configure_pin(pin_COC, IOPORT_DIR_INPUT);
//*/
#endif
}
    72bc:	df 91       	pop	r29
    72be:	cf 91       	pop	r28
    72c0:	08 95       	ret

000072c2 <__udivmodsi4>:
    72c2:	a1 e2       	ldi	r26, 0x21	; 33
    72c4:	1a 2e       	mov	r1, r26
    72c6:	aa 1b       	sub	r26, r26
    72c8:	bb 1b       	sub	r27, r27
    72ca:	fd 01       	movw	r30, r26
    72cc:	0d c0       	rjmp	.+26     	; 0x72e8 <__udivmodsi4_ep>

000072ce <__udivmodsi4_loop>:
    72ce:	aa 1f       	adc	r26, r26
    72d0:	bb 1f       	adc	r27, r27
    72d2:	ee 1f       	adc	r30, r30
    72d4:	ff 1f       	adc	r31, r31
    72d6:	a2 17       	cp	r26, r18
    72d8:	b3 07       	cpc	r27, r19
    72da:	e4 07       	cpc	r30, r20
    72dc:	f5 07       	cpc	r31, r21
    72de:	20 f0       	brcs	.+8      	; 0x72e8 <__udivmodsi4_ep>
    72e0:	a2 1b       	sub	r26, r18
    72e2:	b3 0b       	sbc	r27, r19
    72e4:	e4 0b       	sbc	r30, r20
    72e6:	f5 0b       	sbc	r31, r21

000072e8 <__udivmodsi4_ep>:
    72e8:	66 1f       	adc	r22, r22
    72ea:	77 1f       	adc	r23, r23
    72ec:	88 1f       	adc	r24, r24
    72ee:	99 1f       	adc	r25, r25
    72f0:	1a 94       	dec	r1
    72f2:	69 f7       	brne	.-38     	; 0x72ce <__udivmodsi4_loop>
    72f4:	60 95       	com	r22
    72f6:	70 95       	com	r23
    72f8:	80 95       	com	r24
    72fa:	90 95       	com	r25
    72fc:	9b 01       	movw	r18, r22
    72fe:	ac 01       	movw	r20, r24
    7300:	bd 01       	movw	r22, r26
    7302:	cf 01       	movw	r24, r30
    7304:	08 95       	ret

00007306 <__tablejump2__>:
    7306:	ee 0f       	add	r30, r30
    7308:	ff 1f       	adc	r31, r31

0000730a <__tablejump__>:
    730a:	05 90       	lpm	r0, Z+
    730c:	f4 91       	lpm	r31, Z
    730e:	e0 2d       	mov	r30, r0
    7310:	09 94       	ijmp

00007312 <__ashldi3>:
    7312:	0f 93       	push	r16
    7314:	0f 73       	andi	r16, 0x3F	; 63
    7316:	51 f0       	breq	.+20     	; 0x732c <__ashldi3+0x1a>
    7318:	22 0f       	add	r18, r18
    731a:	33 1f       	adc	r19, r19
    731c:	44 1f       	adc	r20, r20
    731e:	55 1f       	adc	r21, r21
    7320:	66 1f       	adc	r22, r22
    7322:	77 1f       	adc	r23, r23
    7324:	88 1f       	adc	r24, r24
    7326:	99 1f       	adc	r25, r25
    7328:	0a 95       	dec	r16
    732a:	b1 f7       	brne	.-20     	; 0x7318 <__ashldi3+0x6>
    732c:	0f 91       	pop	r16
    732e:	08 95       	ret

00007330 <__adddi3>:
    7330:	2a 0d       	add	r18, r10
    7332:	3b 1d       	adc	r19, r11
    7334:	4c 1d       	adc	r20, r12
    7336:	5d 1d       	adc	r21, r13
    7338:	6e 1d       	adc	r22, r14
    733a:	7f 1d       	adc	r23, r15
    733c:	80 1f       	adc	r24, r16
    733e:	91 1f       	adc	r25, r17
    7340:	08 95       	ret

00007342 <__subdi3>:
    7342:	2a 19       	sub	r18, r10
    7344:	3b 09       	sbc	r19, r11
    7346:	4c 09       	sbc	r20, r12
    7348:	5d 09       	sbc	r21, r13
    734a:	6e 09       	sbc	r22, r14
    734c:	7f 09       	sbc	r23, r15
    734e:	80 0b       	sbc	r24, r16
    7350:	91 0b       	sbc	r25, r17
    7352:	08 95       	ret

00007354 <__clzsi2>:
    7354:	06 d0       	rcall	.+12     	; 0x7362 <__clzhi2>
    7356:	84 ff       	sbrs	r24, 4
    7358:	08 95       	ret
    735a:	cb 01       	movw	r24, r22
    735c:	02 d0       	rcall	.+4      	; 0x7362 <__clzhi2>
    735e:	80 5f       	subi	r24, 0xF0	; 240
    7360:	08 95       	ret

00007362 <__clzhi2>:
    7362:	aa 27       	eor	r26, r26
    7364:	99 23       	and	r25, r25
    7366:	29 f4       	brne	.+10     	; 0x7372 <__clzhi2+0x10>
    7368:	a8 5f       	subi	r26, 0xF8	; 248
    736a:	98 2b       	or	r25, r24
    736c:	11 f4       	brne	.+4      	; 0x7372 <__clzhi2+0x10>
    736e:	80 e1       	ldi	r24, 0x10	; 16
    7370:	08 95       	ret
    7372:	90 31       	cpi	r25, 0x10	; 16
    7374:	18 f4       	brcc	.+6      	; 0x737c <__clzhi2+0x1a>
    7376:	ad 5f       	subi	r26, 0xFD	; 253
    7378:	92 95       	swap	r25
    737a:	a3 95       	inc	r26
    737c:	99 0f       	add	r25, r25
    737e:	e8 f7       	brcc	.-6      	; 0x737a <__clzhi2+0x18>
    7380:	8a 2f       	mov	r24, r26
    7382:	99 27       	eor	r25, r25
    7384:	08 95       	ret

00007386 <__prologue_saves__>:
    7386:	2f 92       	push	r2
    7388:	3f 92       	push	r3
    738a:	4f 92       	push	r4
    738c:	5f 92       	push	r5
    738e:	6f 92       	push	r6
    7390:	7f 92       	push	r7
    7392:	8f 92       	push	r8
    7394:	9f 92       	push	r9
    7396:	af 92       	push	r10
    7398:	bf 92       	push	r11
    739a:	cf 92       	push	r12
    739c:	df 92       	push	r13
    739e:	ef 92       	push	r14
    73a0:	ff 92       	push	r15
    73a2:	0f 93       	push	r16
    73a4:	1f 93       	push	r17
    73a6:	cf 93       	push	r28
    73a8:	df 93       	push	r29
    73aa:	cd b7       	in	r28, 0x3d	; 61
    73ac:	de b7       	in	r29, 0x3e	; 62
    73ae:	ca 1b       	sub	r28, r26
    73b0:	db 0b       	sbc	r29, r27
    73b2:	cd bf       	out	0x3d, r28	; 61
    73b4:	de bf       	out	0x3e, r29	; 62
    73b6:	09 94       	ijmp

000073b8 <__epilogue_restores__>:
    73b8:	2a 88       	ldd	r2, Y+18	; 0x12
    73ba:	39 88       	ldd	r3, Y+17	; 0x11
    73bc:	48 88       	ldd	r4, Y+16	; 0x10
    73be:	5f 84       	ldd	r5, Y+15	; 0x0f
    73c0:	6e 84       	ldd	r6, Y+14	; 0x0e
    73c2:	7d 84       	ldd	r7, Y+13	; 0x0d
    73c4:	8c 84       	ldd	r8, Y+12	; 0x0c
    73c6:	9b 84       	ldd	r9, Y+11	; 0x0b
    73c8:	aa 84       	ldd	r10, Y+10	; 0x0a
    73ca:	b9 84       	ldd	r11, Y+9	; 0x09
    73cc:	c8 84       	ldd	r12, Y+8	; 0x08
    73ce:	df 80       	ldd	r13, Y+7	; 0x07
    73d0:	ee 80       	ldd	r14, Y+6	; 0x06
    73d2:	fd 80       	ldd	r15, Y+5	; 0x05
    73d4:	0c 81       	ldd	r16, Y+4	; 0x04
    73d6:	1b 81       	ldd	r17, Y+3	; 0x03
    73d8:	aa 81       	ldd	r26, Y+2	; 0x02
    73da:	b9 81       	ldd	r27, Y+1	; 0x01
    73dc:	ce 0f       	add	r28, r30
    73de:	d1 1d       	adc	r29, r1
    73e0:	cd bf       	out	0x3d, r28	; 61
    73e2:	de bf       	out	0x3e, r29	; 62
    73e4:	ed 01       	movw	r28, r26
    73e6:	08 95       	ret

000073e8 <__lshrdi3>:
    73e8:	0f 93       	push	r16
    73ea:	0f 73       	andi	r16, 0x3F	; 63
    73ec:	51 f0       	breq	.+20     	; 0x7402 <__lshrdi3+0x1a>
    73ee:	96 95       	lsr	r25
    73f0:	87 95       	ror	r24
    73f2:	77 95       	ror	r23
    73f4:	67 95       	ror	r22
    73f6:	57 95       	ror	r21
    73f8:	47 95       	ror	r20
    73fa:	37 95       	ror	r19
    73fc:	27 95       	ror	r18
    73fe:	0a 95       	dec	r16
    7400:	b1 f7       	brne	.-20     	; 0x73ee <__lshrdi3+0x6>
    7402:	0f 91       	pop	r16
    7404:	08 95       	ret

00007406 <__cmpdi2>:
    7406:	2a 15       	cp	r18, r10
    7408:	3b 05       	cpc	r19, r11
    740a:	4c 05       	cpc	r20, r12
    740c:	5d 05       	cpc	r21, r13
    740e:	6e 05       	cpc	r22, r14
    7410:	7f 05       	cpc	r23, r15
    7412:	80 07       	cpc	r24, r16
    7414:	91 07       	cpc	r25, r17
    7416:	08 95       	ret

00007418 <_exit>:
    7418:	f8 94       	cli

0000741a <__stop_program>:
    741a:	ff cf       	rjmp	.-2      	; 0x741a <__stop_program>
