
Xmega32A4U_testBoard.elf:     file format elf32-avr

Sections:
Idx Name          Size      VMA       LMA       File off  Algn
  0 .text         00005fcc  00000000  00000000  00000094  2**1
                  CONTENTS, ALLOC, LOAD, READONLY, CODE
  1 .data         0000001c  00802000  00005fcc  00006060  2**0
                  CONTENTS, ALLOC, LOAD, DATA
  2 .bss          00000053  0080201c  0080201c  0000607c  2**0
                  ALLOC
  3 .stab         00000750  00000000  00000000  0000607c  2**2
                  CONTENTS, READONLY, DEBUGGING
  4 .stabstr      0000010b  00000000  00000000  000067cc  2**0
                  CONTENTS, READONLY, DEBUGGING
  5 .comment      0000002f  00000000  00000000  000068d7  2**0
                  CONTENTS, READONLY
  6 .debug_aranges 00000918  00000000  00000000  00006908  2**3
                  CONTENTS, READONLY, DEBUGGING
  7 .debug_info   0000b587  00000000  00000000  00007220  2**0
                  CONTENTS, READONLY, DEBUGGING
  8 .debug_abbrev 00002ced  00000000  00000000  000127a7  2**0
                  CONTENTS, READONLY, DEBUGGING
  9 .debug_line   00008159  00000000  00000000  00015494  2**0
                  CONTENTS, READONLY, DEBUGGING
 10 .debug_frame  000024f8  00000000  00000000  0001d5f0  2**2
                  CONTENTS, READONLY, DEBUGGING
 11 .debug_str    00026ea8  00000000  00000000  0001fae8  2**0
                  CONTENTS, READONLY, DEBUGGING
 12 .debug_loc    00005cc2  00000000  00000000  00046990  2**0
                  CONTENTS, READONLY, DEBUGGING
 13 .debug_ranges 000007b8  00000000  00000000  0004c658  2**3
                  CONTENTS, READONLY, DEBUGGING
 14 .debug_macro  000098fb  00000000  00000000  0004ce10  2**0
                  CONTENTS, READONLY, DEBUGGING

Disassembly of section .text:

00000000 <__vectors>:
       0:	fd c0       	rjmp	.+506    	; 0x1fc <__ctors_end>
       2:	00 00       	nop
       4:	18 c1       	rjmp	.+560    	; 0x236 <__bad_interrupt>
       6:	00 00       	nop
       8:	16 c1       	rjmp	.+556    	; 0x236 <__bad_interrupt>
       a:	00 00       	nop
       c:	14 c1       	rjmp	.+552    	; 0x236 <__bad_interrupt>
       e:	00 00       	nop
      10:	12 c1       	rjmp	.+548    	; 0x236 <__bad_interrupt>
      12:	00 00       	nop
      14:	10 c1       	rjmp	.+544    	; 0x236 <__bad_interrupt>
      16:	00 00       	nop
      18:	0e c1       	rjmp	.+540    	; 0x236 <__bad_interrupt>
      1a:	00 00       	nop
      1c:	0c c1       	rjmp	.+536    	; 0x236 <__bad_interrupt>
      1e:	00 00       	nop
      20:	0a c1       	rjmp	.+532    	; 0x236 <__bad_interrupt>
      22:	00 00       	nop
      24:	08 c1       	rjmp	.+528    	; 0x236 <__bad_interrupt>
      26:	00 00       	nop
      28:	0c 94 7b 18 	jmp	0x30f6	; 0x30f6 <__vector_10>
      2c:	0c 94 59 0b 	jmp	0x16b2	; 0x16b2 <__vector_11>
      30:	02 c1       	rjmp	.+516    	; 0x236 <__bad_interrupt>
      32:	00 00       	nop
      34:	00 c1       	rjmp	.+512    	; 0x236 <__bad_interrupt>
      36:	00 00       	nop
      38:	0c 94 f8 0b 	jmp	0x17f0	; 0x17f0 <__vector_14>
      3c:	0c 94 2e 0c 	jmp	0x185c	; 0x185c <__vector_15>
      40:	0c 94 64 0c 	jmp	0x18c8	; 0x18c8 <__vector_16>
      44:	0c 94 9a 0c 	jmp	0x1934	; 0x1934 <__vector_17>
      48:	0c 94 d0 0c 	jmp	0x19a0	; 0x19a0 <__vector_18>
      4c:	0c 94 06 0d 	jmp	0x1a0c	; 0x1a0c <__vector_19>
      50:	0c 94 3c 0d 	jmp	0x1a78	; 0x1a78 <__vector_20>
      54:	0c 94 72 0d 	jmp	0x1ae4	; 0x1ae4 <__vector_21>
      58:	0c 94 a8 0d 	jmp	0x1b50	; 0x1b50 <__vector_22>
      5c:	0c 94 de 0d 	jmp	0x1bbc	; 0x1bbc <__vector_23>
      60:	ea c0       	rjmp	.+468    	; 0x236 <__bad_interrupt>
      62:	00 00       	nop
      64:	e8 c0       	rjmp	.+464    	; 0x236 <__bad_interrupt>
      66:	00 00       	nop
      68:	e6 c0       	rjmp	.+460    	; 0x236 <__bad_interrupt>
      6a:	00 00       	nop
      6c:	e4 c0       	rjmp	.+456    	; 0x236 <__bad_interrupt>
      6e:	00 00       	nop
      70:	e2 c0       	rjmp	.+452    	; 0x236 <__bad_interrupt>
      72:	00 00       	nop
      74:	e0 c0       	rjmp	.+448    	; 0x236 <__bad_interrupt>
      76:	00 00       	nop
      78:	de c0       	rjmp	.+444    	; 0x236 <__bad_interrupt>
      7a:	00 00       	nop
      7c:	dc c0       	rjmp	.+440    	; 0x236 <__bad_interrupt>
      7e:	00 00       	nop
      80:	da c0       	rjmp	.+436    	; 0x236 <__bad_interrupt>
      82:	00 00       	nop
      84:	d8 c0       	rjmp	.+432    	; 0x236 <__bad_interrupt>
      86:	00 00       	nop
      88:	d6 c0       	rjmp	.+428    	; 0x236 <__bad_interrupt>
      8a:	00 00       	nop
      8c:	d4 c0       	rjmp	.+424    	; 0x236 <__bad_interrupt>
      8e:	00 00       	nop
      90:	d2 c0       	rjmp	.+420    	; 0x236 <__bad_interrupt>
      92:	00 00       	nop
      94:	d0 c0       	rjmp	.+416    	; 0x236 <__bad_interrupt>
      96:	00 00       	nop
      98:	ce c0       	rjmp	.+412    	; 0x236 <__bad_interrupt>
      9a:	00 00       	nop
      9c:	cc c0       	rjmp	.+408    	; 0x236 <__bad_interrupt>
      9e:	00 00       	nop
      a0:	ca c0       	rjmp	.+404    	; 0x236 <__bad_interrupt>
      a2:	00 00       	nop
      a4:	c8 c0       	rjmp	.+400    	; 0x236 <__bad_interrupt>
      a6:	00 00       	nop
      a8:	c6 c0       	rjmp	.+396    	; 0x236 <__bad_interrupt>
      aa:	00 00       	nop
      ac:	c4 c0       	rjmp	.+392    	; 0x236 <__bad_interrupt>
      ae:	00 00       	nop
      b0:	c2 c0       	rjmp	.+388    	; 0x236 <__bad_interrupt>
      b2:	00 00       	nop
      b4:	c0 c0       	rjmp	.+384    	; 0x236 <__bad_interrupt>
      b6:	00 00       	nop
      b8:	be c0       	rjmp	.+380    	; 0x236 <__bad_interrupt>
      ba:	00 00       	nop
      bc:	0c 94 c4 0f 	jmp	0x1f88	; 0x1f88 <__vector_47>
      c0:	0c 94 fa 0f 	jmp	0x1ff4	; 0x1ff4 <__vector_48>
      c4:	0c 94 30 10 	jmp	0x2060	; 0x2060 <__vector_49>
      c8:	0c 94 66 10 	jmp	0x20cc	; 0x20cc <__vector_50>
      cc:	0c 94 9c 10 	jmp	0x2138	; 0x2138 <__vector_51>
      d0:	0c 94 d2 10 	jmp	0x21a4	; 0x21a4 <__vector_52>
      d4:	b0 c0       	rjmp	.+352    	; 0x236 <__bad_interrupt>
      d6:	00 00       	nop
      d8:	ae c0       	rjmp	.+348    	; 0x236 <__bad_interrupt>
      da:	00 00       	nop
      dc:	ac c0       	rjmp	.+344    	; 0x236 <__bad_interrupt>
      de:	00 00       	nop
      e0:	aa c0       	rjmp	.+340    	; 0x236 <__bad_interrupt>
      e2:	00 00       	nop
      e4:	a8 c0       	rjmp	.+336    	; 0x236 <__bad_interrupt>
      e6:	00 00       	nop
      e8:	0c 94 80 17 	jmp	0x2f00	; 0x2f00 <__vector_58>
      ec:	a4 c0       	rjmp	.+328    	; 0x236 <__bad_interrupt>
      ee:	00 00       	nop
      f0:	a2 c0       	rjmp	.+324    	; 0x236 <__bad_interrupt>
      f2:	00 00       	nop
      f4:	a0 c0       	rjmp	.+320    	; 0x236 <__bad_interrupt>
      f6:	00 00       	nop
      f8:	9e c0       	rjmp	.+316    	; 0x236 <__bad_interrupt>
      fa:	00 00       	nop
      fc:	9c c0       	rjmp	.+312    	; 0x236 <__bad_interrupt>
      fe:	00 00       	nop
     100:	9a c0       	rjmp	.+308    	; 0x236 <__bad_interrupt>
     102:	00 00       	nop
     104:	98 c0       	rjmp	.+304    	; 0x236 <__bad_interrupt>
     106:	00 00       	nop
     108:	96 c0       	rjmp	.+300    	; 0x236 <__bad_interrupt>
     10a:	00 00       	nop
     10c:	94 c0       	rjmp	.+296    	; 0x236 <__bad_interrupt>
     10e:	00 00       	nop
     110:	92 c0       	rjmp	.+292    	; 0x236 <__bad_interrupt>
     112:	00 00       	nop
     114:	90 c0       	rjmp	.+288    	; 0x236 <__bad_interrupt>
     116:	00 00       	nop
     118:	8e c0       	rjmp	.+284    	; 0x236 <__bad_interrupt>
     11a:	00 00       	nop
     11c:	8c c0       	rjmp	.+280    	; 0x236 <__bad_interrupt>
     11e:	00 00       	nop
     120:	8a c0       	rjmp	.+276    	; 0x236 <__bad_interrupt>
     122:	00 00       	nop
     124:	88 c0       	rjmp	.+272    	; 0x236 <__bad_interrupt>
     126:	00 00       	nop
     128:	86 c0       	rjmp	.+268    	; 0x236 <__bad_interrupt>
     12a:	00 00       	nop
     12c:	84 c0       	rjmp	.+264    	; 0x236 <__bad_interrupt>
     12e:	00 00       	nop
     130:	82 c0       	rjmp	.+260    	; 0x236 <__bad_interrupt>
     132:	00 00       	nop
     134:	80 c0       	rjmp	.+256    	; 0x236 <__bad_interrupt>
     136:	00 00       	nop
     138:	0c 94 14 0e 	jmp	0x1c28	; 0x1c28 <__vector_78>
     13c:	0c 94 4a 0e 	jmp	0x1c94	; 0x1c94 <__vector_79>
     140:	0c 94 80 0e 	jmp	0x1d00	; 0x1d00 <__vector_80>
     144:	0c 94 b6 0e 	jmp	0x1d6c	; 0x1d6c <__vector_81>
     148:	0c 94 ec 0e 	jmp	0x1dd8	; 0x1dd8 <__vector_82>
     14c:	0c 94 d6 18 	jmp	0x31ac	; 0x31ac <__vector_83>
     150:	0c 94 22 0f 	jmp	0x1e44	; 0x1e44 <__vector_84>
     154:	0c 94 58 0f 	jmp	0x1eb0	; 0x1eb0 <__vector_85>
     158:	0c 94 8e 0f 	jmp	0x1f1c	; 0x1f1c <__vector_86>
     15c:	6c c0       	rjmp	.+216    	; 0x236 <__bad_interrupt>
     15e:	00 00       	nop
     160:	6a c0       	rjmp	.+212    	; 0x236 <__bad_interrupt>
     162:	00 00       	nop
     164:	68 c0       	rjmp	.+208    	; 0x236 <__bad_interrupt>
     166:	00 00       	nop
     168:	66 c0       	rjmp	.+204    	; 0x236 <__bad_interrupt>
     16a:	00 00       	nop
     16c:	64 c0       	rjmp	.+200    	; 0x236 <__bad_interrupt>
     16e:	00 00       	nop
     170:	62 c0       	rjmp	.+196    	; 0x236 <__bad_interrupt>
     172:	00 00       	nop
     174:	60 c0       	rjmp	.+192    	; 0x236 <__bad_interrupt>
     176:	00 00       	nop
     178:	5e c0       	rjmp	.+188    	; 0x236 <__bad_interrupt>
     17a:	00 00       	nop
     17c:	5c c0       	rjmp	.+184    	; 0x236 <__bad_interrupt>
     17e:	00 00       	nop
     180:	5a c0       	rjmp	.+180    	; 0x236 <__bad_interrupt>
     182:	00 00       	nop
     184:	58 c0       	rjmp	.+176    	; 0x236 <__bad_interrupt>
     186:	00 00       	nop
     188:	56 c0       	rjmp	.+172    	; 0x236 <__bad_interrupt>
     18a:	00 00       	nop
     18c:	54 c0       	rjmp	.+168    	; 0x236 <__bad_interrupt>
     18e:	00 00       	nop
     190:	52 c0       	rjmp	.+164    	; 0x236 <__bad_interrupt>
     192:	00 00       	nop
     194:	50 c0       	rjmp	.+160    	; 0x236 <__bad_interrupt>
     196:	00 00       	nop
     198:	4e c0       	rjmp	.+156    	; 0x236 <__bad_interrupt>
     19a:	00 00       	nop
     19c:	4c c0       	rjmp	.+152    	; 0x236 <__bad_interrupt>
     19e:	00 00       	nop
     1a0:	4a c0       	rjmp	.+148    	; 0x236 <__bad_interrupt>
     1a2:	00 00       	nop
     1a4:	48 c0       	rjmp	.+144    	; 0x236 <__bad_interrupt>
     1a6:	00 00       	nop
     1a8:	46 c0       	rjmp	.+140    	; 0x236 <__bad_interrupt>
     1aa:	00 00       	nop
     1ac:	44 c0       	rjmp	.+136    	; 0x236 <__bad_interrupt>
     1ae:	00 00       	nop
     1b0:	42 c0       	rjmp	.+132    	; 0x236 <__bad_interrupt>
     1b2:	00 00       	nop
     1b4:	40 c0       	rjmp	.+128    	; 0x236 <__bad_interrupt>
     1b6:	00 00       	nop
     1b8:	3e c0       	rjmp	.+124    	; 0x236 <__bad_interrupt>
     1ba:	00 00       	nop
     1bc:	3c c0       	rjmp	.+120    	; 0x236 <__bad_interrupt>
     1be:	00 00       	nop
     1c0:	3a c0       	rjmp	.+116    	; 0x236 <__bad_interrupt>
     1c2:	00 00       	nop
     1c4:	38 c0       	rjmp	.+112    	; 0x236 <__bad_interrupt>
     1c6:	00 00       	nop
     1c8:	36 c0       	rjmp	.+108    	; 0x236 <__bad_interrupt>
     1ca:	00 00       	nop
     1cc:	34 c0       	rjmp	.+104    	; 0x236 <__bad_interrupt>
     1ce:	00 00       	nop
     1d0:	32 c0       	rjmp	.+100    	; 0x236 <__bad_interrupt>
     1d2:	00 00       	nop
     1d4:	30 c0       	rjmp	.+96     	; 0x236 <__bad_interrupt>
     1d6:	00 00       	nop
     1d8:	2e c0       	rjmp	.+92     	; 0x236 <__bad_interrupt>
     1da:	00 00       	nop
     1dc:	2c c0       	rjmp	.+88     	; 0x236 <__bad_interrupt>
     1de:	00 00       	nop
     1e0:	2a c0       	rjmp	.+84     	; 0x236 <__bad_interrupt>
     1e2:	00 00       	nop
     1e4:	28 c0       	rjmp	.+80     	; 0x236 <__bad_interrupt>
     1e6:	00 00       	nop
     1e8:	26 c0       	rjmp	.+76     	; 0x236 <__bad_interrupt>
     1ea:	00 00       	nop
     1ec:	24 c0       	rjmp	.+72     	; 0x236 <__bad_interrupt>
     1ee:	00 00       	nop
     1f0:	22 c0       	rjmp	.+68     	; 0x236 <__bad_interrupt>
     1f2:	00 00       	nop
     1f4:	20 c0       	rjmp	.+64     	; 0x236 <__bad_interrupt>
     1f6:	00 00       	nop
     1f8:	1e c0       	rjmp	.+60     	; 0x236 <__bad_interrupt>
	...

000001fc <__ctors_end>:
     1fc:	11 24       	eor	r1, r1
     1fe:	1f be       	out	0x3f, r1	; 63
     200:	cf ef       	ldi	r28, 0xFF	; 255
     202:	df e2       	ldi	r29, 0x2F	; 47
     204:	de bf       	out	0x3e, r29	; 62
     206:	cd bf       	out	0x3d, r28	; 61

00000208 <__do_copy_data>:
     208:	10 e2       	ldi	r17, 0x20	; 32
     20a:	a0 e0       	ldi	r26, 0x00	; 0
     20c:	b0 e2       	ldi	r27, 0x20	; 32
     20e:	ec ec       	ldi	r30, 0xCC	; 204
     210:	ff e5       	ldi	r31, 0x5F	; 95
     212:	02 c0       	rjmp	.+4      	; 0x218 <__do_copy_data+0x10>
     214:	05 90       	lpm	r0, Z+
     216:	0d 92       	st	X+, r0
     218:	ac 31       	cpi	r26, 0x1C	; 28
     21a:	b1 07       	cpc	r27, r17
     21c:	d9 f7       	brne	.-10     	; 0x214 <__do_copy_data+0xc>

0000021e <__do_clear_bss>:
     21e:	20 e2       	ldi	r18, 0x20	; 32
     220:	ac e1       	ldi	r26, 0x1C	; 28
     222:	b0 e2       	ldi	r27, 0x20	; 32
     224:	01 c0       	rjmp	.+2      	; 0x228 <.do_clear_bss_start>

00000226 <.do_clear_bss_loop>:
     226:	1d 92       	st	X+, r1

00000228 <.do_clear_bss_start>:
     228:	af 36       	cpi	r26, 0x6F	; 111
     22a:	b2 07       	cpc	r27, r18
     22c:	e1 f7       	brne	.-8      	; 0x226 <.do_clear_bss_loop>
     22e:	0e 94 eb 21 	call	0x43d6	; 0x43d6 <main>
     232:	0c 94 e4 2f 	jmp	0x5fc8	; 0x5fc8 <_exit>

00000236 <__bad_interrupt>:
     236:	e4 ce       	rjmp	.-568    	; 0x0 <__vectors>

00000238 <__fixunssfdi>:
     238:	a0 e0       	ldi	r26, 0x00	; 0
     23a:	b0 e0       	ldi	r27, 0x00	; 0
     23c:	e2 e2       	ldi	r30, 0x22	; 34
     23e:	f1 e0       	ldi	r31, 0x01	; 1
     240:	0c 94 9b 2f 	jmp	0x5f36	; 0x5f36 <__prologue_saves__>
     244:	6b 01       	movw	r12, r22
     246:	7c 01       	movw	r14, r24
     248:	20 e0       	ldi	r18, 0x00	; 0
     24a:	30 e0       	ldi	r19, 0x00	; 0
     24c:	40 e8       	ldi	r20, 0x80	; 128
     24e:	5f e3       	ldi	r21, 0x3F	; 63
     250:	eb d2       	rcall	.+1494   	; 0x828 <__ltsf2>
     252:	87 fd       	sbrc	r24, 7
     254:	80 c0       	rjmp	.+256    	; 0x356 <__fixunssfdi+0x11e>
     256:	20 e0       	ldi	r18, 0x00	; 0
     258:	30 e0       	ldi	r19, 0x00	; 0
     25a:	40 e8       	ldi	r20, 0x80	; 128
     25c:	5f e4       	ldi	r21, 0x4F	; 79
     25e:	c7 01       	movw	r24, r14
     260:	b6 01       	movw	r22, r12
     262:	e2 d2       	rcall	.+1476   	; 0x828 <__ltsf2>
     264:	87 ff       	sbrs	r24, 7
     266:	09 c0       	rjmp	.+18     	; 0x27a <__fixunssfdi+0x42>
     268:	c7 01       	movw	r24, r14
     26a:	b6 01       	movw	r22, r12
     26c:	d9 d3       	rcall	.+1970   	; 0xa20 <__fixunssfsi>
     26e:	4b 01       	movw	r8, r22
     270:	5c 01       	movw	r10, r24
     272:	c1 2c       	mov	r12, r1
     274:	d1 2c       	mov	r13, r1
     276:	76 01       	movw	r14, r12
     278:	87 c0       	rjmp	.+270    	; 0x388 <__fixunssfdi+0x150>
     27a:	20 e0       	ldi	r18, 0x00	; 0
     27c:	30 e0       	ldi	r19, 0x00	; 0
     27e:	40 e8       	ldi	r20, 0x80	; 128
     280:	5f e5       	ldi	r21, 0x5F	; 95
     282:	c7 01       	movw	r24, r14
     284:	b6 01       	movw	r22, r12
     286:	d0 d2       	rcall	.+1440   	; 0x828 <__ltsf2>
     288:	87 ff       	sbrs	r24, 7
     28a:	6e c0       	rjmp	.+220    	; 0x368 <__fixunssfdi+0x130>
     28c:	20 e0       	ldi	r18, 0x00	; 0
     28e:	30 e0       	ldi	r19, 0x00	; 0
     290:	40 e8       	ldi	r20, 0x80	; 128
     292:	5f e2       	ldi	r21, 0x2F	; 47
     294:	c7 01       	movw	r24, r14
     296:	b6 01       	movw	r22, r12
     298:	19 d1       	rcall	.+562    	; 0x4cc <__mulsf3>
     29a:	8b 01       	movw	r16, r22
     29c:	d8 2f       	mov	r29, r24
     29e:	c9 2f       	mov	r28, r25
     2a0:	95 e0       	ldi	r25, 0x05	; 5
     2a2:	29 2e       	mov	r2, r25
     2a4:	31 2c       	mov	r3, r1
     2a6:	20 e1       	ldi	r18, 0x10	; 16
     2a8:	c2 2e       	mov	r12, r18
     2aa:	d1 2c       	mov	r13, r1
     2ac:	e1 2c       	mov	r14, r1
     2ae:	f1 2c       	mov	r15, r1
     2b0:	81 2c       	mov	r8, r1
     2b2:	91 2c       	mov	r9, r1
     2b4:	54 01       	movw	r10, r8
     2b6:	61 e0       	ldi	r22, 0x01	; 1
     2b8:	70 e0       	ldi	r23, 0x00	; 0
     2ba:	80 e0       	ldi	r24, 0x00	; 0
     2bc:	90 e0       	ldi	r25, 0x00	; 0
     2be:	0c 2c       	mov	r0, r12
     2c0:	04 c0       	rjmp	.+8      	; 0x2ca <__fixunssfdi+0x92>
     2c2:	66 0f       	add	r22, r22
     2c4:	77 1f       	adc	r23, r23
     2c6:	88 1f       	adc	r24, r24
     2c8:	99 1f       	adc	r25, r25
     2ca:	0a 94       	dec	r0
     2cc:	d2 f7       	brpl	.-12     	; 0x2c2 <__fixunssfdi+0x8a>
     2ce:	33 d3       	rcall	.+1638   	; 0x936 <__floatunsisf>
     2d0:	2b 01       	movw	r4, r22
     2d2:	3c 01       	movw	r6, r24
     2d4:	76 2f       	mov	r23, r22
     2d6:	27 2f       	mov	r18, r23
     2d8:	35 2d       	mov	r19, r5
     2da:	46 2d       	mov	r20, r6
     2dc:	57 2d       	mov	r21, r7
     2de:	fe 01       	movw	r30, r28
     2e0:	60 2f       	mov	r22, r16
     2e2:	71 2f       	mov	r23, r17
     2e4:	8f 2f       	mov	r24, r31
     2e6:	9c 2f       	mov	r25, r28
     2e8:	73 d2       	rcall	.+1254   	; 0x7d0 <__gesf2>
     2ea:	87 fd       	sbrc	r24, 7
     2ec:	11 c0       	rjmp	.+34     	; 0x310 <__fixunssfdi+0xd8>
     2ee:	8c 28       	or	r8, r12
     2f0:	9d 28       	or	r9, r13
     2f2:	ae 28       	or	r10, r14
     2f4:	bf 28       	or	r11, r15
     2f6:	24 2d       	mov	r18, r4
     2f8:	35 2d       	mov	r19, r5
     2fa:	46 2d       	mov	r20, r6
     2fc:	57 2d       	mov	r21, r7
     2fe:	fe 01       	movw	r30, r28
     300:	60 2f       	mov	r22, r16
     302:	71 2f       	mov	r23, r17
     304:	8f 2f       	mov	r24, r31
     306:	9c 2f       	mov	r25, r28
     308:	c3 d1       	rcall	.+902    	; 0x690 <__divsf3>
     30a:	8b 01       	movw	r16, r22
     30c:	d8 2f       	mov	r29, r24
     30e:	c9 2f       	mov	r28, r25
     310:	f6 94       	lsr	r15
     312:	e7 94       	ror	r14
     314:	d7 94       	ror	r13
     316:	c7 94       	ror	r12
     318:	81 e0       	ldi	r24, 0x01	; 1
     31a:	28 1a       	sub	r2, r24
     31c:	31 08       	sbc	r3, r1
     31e:	59 f6       	brne	.-106    	; 0x2b6 <__fixunssfdi+0x7e>
     320:	20 e0       	ldi	r18, 0x00	; 0
     322:	30 e0       	ldi	r19, 0x00	; 0
     324:	40 e8       	ldi	r20, 0x80	; 128
     326:	5f e4       	ldi	r21, 0x4F	; 79
     328:	fe 01       	movw	r30, r28
     32a:	60 2f       	mov	r22, r16
     32c:	71 2f       	mov	r23, r17
     32e:	8f 2f       	mov	r24, r31
     330:	9c 2f       	mov	r25, r28
     332:	cc d0       	rcall	.+408    	; 0x4cc <__mulsf3>
     334:	75 d3       	rcall	.+1770   	; 0xa20 <__fixunssfsi>
     336:	dc 01       	movw	r26, r24
     338:	cb 01       	movw	r24, r22
     33a:	9c 01       	movw	r18, r24
     33c:	ad 01       	movw	r20, r26
     33e:	60 e0       	ldi	r22, 0x00	; 0
     340:	70 e0       	ldi	r23, 0x00	; 0
     342:	80 e0       	ldi	r24, 0x00	; 0
     344:	90 e0       	ldi	r25, 0x00	; 0
     346:	08 2d       	mov	r16, r8
     348:	0e 94 61 2f 	call	0x5ec2	; 0x5ec2 <__ashldi3>
     34c:	49 01       	movw	r8, r18
     34e:	5a 01       	movw	r10, r20
     350:	6b 01       	movw	r12, r22
     352:	7c 01       	movw	r14, r24
     354:	19 c0       	rjmp	.+50     	; 0x388 <__fixunssfdi+0x150>
     356:	81 2c       	mov	r8, r1
     358:	91 2c       	mov	r9, r1
     35a:	a1 2c       	mov	r10, r1
     35c:	b1 2c       	mov	r11, r1
     35e:	c1 2c       	mov	r12, r1
     360:	d1 2c       	mov	r13, r1
     362:	e1 2c       	mov	r14, r1
     364:	f1 2c       	mov	r15, r1
     366:	10 c0       	rjmp	.+32     	; 0x388 <__fixunssfdi+0x150>
     368:	88 24       	eor	r8, r8
     36a:	8a 94       	dec	r8
     36c:	99 24       	eor	r9, r9
     36e:	9a 94       	dec	r9
     370:	aa 24       	eor	r10, r10
     372:	aa 94       	dec	r10
     374:	bb 24       	eor	r11, r11
     376:	ba 94       	dec	r11
     378:	cc 24       	eor	r12, r12
     37a:	ca 94       	dec	r12
     37c:	dd 24       	eor	r13, r13
     37e:	da 94       	dec	r13
     380:	ee 24       	eor	r14, r14
     382:	ea 94       	dec	r14
     384:	ff 24       	eor	r15, r15
     386:	fa 94       	dec	r15
     388:	94 01       	movw	r18, r8
     38a:	a5 01       	movw	r20, r10
     38c:	b6 01       	movw	r22, r12
     38e:	c7 01       	movw	r24, r14
     390:	cd b7       	in	r28, 0x3d	; 61
     392:	de b7       	in	r29, 0x3e	; 62
     394:	e2 e1       	ldi	r30, 0x12	; 18
     396:	0c 94 b4 2f 	jmp	0x5f68	; 0x5f68 <__epilogue_restores__>

0000039a <__floatundisf>:
     39a:	2f 92       	push	r2
     39c:	3f 92       	push	r3
     39e:	4f 92       	push	r4
     3a0:	5f 92       	push	r5
     3a2:	6f 92       	push	r6
     3a4:	7f 92       	push	r7
     3a6:	8f 92       	push	r8
     3a8:	9f 92       	push	r9
     3aa:	af 92       	push	r10
     3ac:	bf 92       	push	r11
     3ae:	cf 92       	push	r12
     3b0:	df 92       	push	r13
     3b2:	ef 92       	push	r14
     3b4:	ff 92       	push	r15
     3b6:	0f 93       	push	r16
     3b8:	1f 93       	push	r17
     3ba:	cf 93       	push	r28
     3bc:	19 01       	movw	r2, r18
     3be:	2a 01       	movw	r4, r20
     3c0:	3b 01       	movw	r6, r22
     3c2:	4c 01       	movw	r8, r24
     3c4:	60 e0       	ldi	r22, 0x00	; 0
     3c6:	70 e0       	ldi	r23, 0x00	; 0
     3c8:	80 e0       	ldi	r24, 0x00	; 0
     3ca:	90 e0       	ldi	r25, 0x00	; 0
     3cc:	51 01       	movw	r10, r2
     3ce:	62 01       	movw	r12, r4
     3d0:	73 01       	movw	r14, r6
     3d2:	84 01       	movw	r16, r8
     3d4:	0e 94 db 2f 	call	0x5fb6	; 0x5fb6 <__cmpdi2>
     3d8:	21 f4       	brne	.+8      	; 0x3e2 <__floatundisf+0x48>
     3da:	b1 01       	movw	r22, r2
     3dc:	c2 01       	movw	r24, r4
     3de:	ab d2       	rcall	.+1366   	; 0x936 <__floatunsisf>
     3e0:	63 c0       	rjmp	.+198    	; 0x4a8 <__floatundisf+0x10e>
     3e2:	91 01       	movw	r18, r2
     3e4:	a2 01       	movw	r20, r4
     3e6:	b3 01       	movw	r22, r6
     3e8:	c4 01       	movw	r24, r8
     3ea:	00 e2       	ldi	r16, 0x20	; 32
     3ec:	0e 94 cc 2f 	call	0x5f98	; 0x5f98 <__lshrdi3>
     3f0:	b9 01       	movw	r22, r18
     3f2:	ca 01       	movw	r24, r20
     3f4:	0e 94 82 2f 	call	0x5f04	; 0x5f04 <__clzsi2>
     3f8:	aa 27       	eor	r26, r26
     3fa:	97 fd       	sbrc	r25, 7
     3fc:	a0 95       	com	r26
     3fe:	ba 2f       	mov	r27, r26
     400:	20 e2       	ldi	r18, 0x20	; 32
     402:	c2 2e       	mov	r12, r18
     404:	d1 2c       	mov	r13, r1
     406:	e1 2c       	mov	r14, r1
     408:	f1 2c       	mov	r15, r1
     40a:	c8 1a       	sub	r12, r24
     40c:	d9 0a       	sbc	r13, r25
     40e:	ea 0a       	sbc	r14, r26
     410:	fb 0a       	sbc	r15, r27
     412:	cc 2d       	mov	r28, r12
     414:	91 01       	movw	r18, r2
     416:	a2 01       	movw	r20, r4
     418:	b3 01       	movw	r22, r6
     41a:	c4 01       	movw	r24, r8
     41c:	0c 2d       	mov	r16, r12
     41e:	0e 94 cc 2f 	call	0x5f98	; 0x5f98 <__lshrdi3>
     422:	60 e2       	ldi	r22, 0x20	; 32
     424:	70 e0       	ldi	r23, 0x00	; 0
     426:	6c 19       	sub	r22, r12
     428:	7d 09       	sbc	r23, r13
     42a:	04 c0       	rjmp	.+8      	; 0x434 <__floatundisf+0x9a>
     42c:	22 0c       	add	r2, r2
     42e:	33 1c       	adc	r3, r3
     430:	44 1c       	adc	r4, r4
     432:	55 1c       	adc	r5, r5
     434:	6a 95       	dec	r22
     436:	d2 f7       	brpl	.-12     	; 0x42c <__floatundisf+0x92>
     438:	62 2f       	mov	r22, r18
     43a:	23 28       	or	r2, r3
     43c:	24 28       	or	r2, r4
     43e:	25 28       	or	r2, r5
     440:	09 f4       	brne	.+2      	; 0x444 <__floatundisf+0xaa>
     442:	01 c0       	rjmp	.+2      	; 0x446 <__floatundisf+0xac>
     444:	61 60       	ori	r22, 0x01	; 1
     446:	73 2f       	mov	r23, r19
     448:	ca 01       	movw	r24, r20
     44a:	75 d2       	rcall	.+1258   	; 0x936 <__floatunsisf>
     44c:	3b 01       	movw	r6, r22
     44e:	4c 01       	movw	r8, r24
     450:	80 e2       	ldi	r24, 0x20	; 32
     452:	c8 16       	cp	r12, r24
     454:	d1 04       	cpc	r13, r1
     456:	e1 04       	cpc	r14, r1
     458:	f1 04       	cpc	r15, r1
     45a:	a1 f0       	breq	.+40     	; 0x484 <__floatundisf+0xea>
     45c:	9f e1       	ldi	r25, 0x1F	; 31
     45e:	c9 16       	cp	r12, r25
     460:	d1 04       	cpc	r13, r1
     462:	e1 04       	cpc	r14, r1
     464:	f1 04       	cpc	r15, r1
     466:	91 f0       	breq	.+36     	; 0x48c <__floatundisf+0xf2>
     468:	61 e0       	ldi	r22, 0x01	; 1
     46a:	70 e0       	ldi	r23, 0x00	; 0
     46c:	80 e0       	ldi	r24, 0x00	; 0
     46e:	90 e0       	ldi	r25, 0x00	; 0
     470:	04 c0       	rjmp	.+8      	; 0x47a <__floatundisf+0xe0>
     472:	66 0f       	add	r22, r22
     474:	77 1f       	adc	r23, r23
     476:	88 1f       	adc	r24, r24
     478:	99 1f       	adc	r25, r25
     47a:	ca 95       	dec	r28
     47c:	d2 f7       	brpl	.-12     	; 0x472 <__floatundisf+0xd8>
     47e:	00 d2       	rcall	.+1024   	; 0x880 <__floatsisf>
     480:	27 2f       	mov	r18, r23
     482:	08 c0       	rjmp	.+16     	; 0x494 <__floatundisf+0xfa>
     484:	60 e0       	ldi	r22, 0x00	; 0
     486:	20 e0       	ldi	r18, 0x00	; 0
     488:	80 e8       	ldi	r24, 0x80	; 128
     48a:	03 c0       	rjmp	.+6      	; 0x492 <__floatundisf+0xf8>
     48c:	60 e0       	ldi	r22, 0x00	; 0
     48e:	20 e0       	ldi	r18, 0x00	; 0
     490:	80 e0       	ldi	r24, 0x00	; 0
     492:	9f e4       	ldi	r25, 0x4F	; 79
     494:	f2 2f       	mov	r31, r18
     496:	26 2f       	mov	r18, r22
     498:	3f 2f       	mov	r19, r31
     49a:	48 2f       	mov	r20, r24
     49c:	59 2f       	mov	r21, r25
     49e:	66 2d       	mov	r22, r6
     4a0:	77 2d       	mov	r23, r7
     4a2:	88 2d       	mov	r24, r8
     4a4:	99 2d       	mov	r25, r9
     4a6:	12 d0       	rcall	.+36     	; 0x4cc <__mulsf3>
     4a8:	cf 91       	pop	r28
     4aa:	1f 91       	pop	r17
     4ac:	0f 91       	pop	r16
     4ae:	ff 90       	pop	r15
     4b0:	ef 90       	pop	r14
     4b2:	df 90       	pop	r13
     4b4:	cf 90       	pop	r12
     4b6:	bf 90       	pop	r11
     4b8:	af 90       	pop	r10
     4ba:	9f 90       	pop	r9
     4bc:	8f 90       	pop	r8
     4be:	7f 90       	pop	r7
     4c0:	6f 90       	pop	r6
     4c2:	5f 90       	pop	r5
     4c4:	4f 90       	pop	r4
     4c6:	3f 90       	pop	r3
     4c8:	2f 90       	pop	r2
     4ca:	08 95       	ret

000004cc <__mulsf3>:
     4cc:	a0 e2       	ldi	r26, 0x20	; 32
     4ce:	b0 e0       	ldi	r27, 0x00	; 0
     4d0:	ec e6       	ldi	r30, 0x6C	; 108
     4d2:	f2 e0       	ldi	r31, 0x02	; 2
     4d4:	0c 94 9d 2f 	jmp	0x5f3a	; 0x5f3a <__prologue_saves__+0x4>
     4d8:	6d 8f       	std	Y+29, r22	; 0x1d
     4da:	7e 8f       	std	Y+30, r23	; 0x1e
     4dc:	8f 8f       	std	Y+31, r24	; 0x1f
     4de:	98 a3       	std	Y+32, r25	; 0x20
     4e0:	29 8f       	std	Y+25, r18	; 0x19
     4e2:	3a 8f       	std	Y+26, r19	; 0x1a
     4e4:	4b 8f       	std	Y+27, r20	; 0x1b
     4e6:	5c 8f       	std	Y+28, r21	; 0x1c
     4e8:	be 01       	movw	r22, r28
     4ea:	6f 5e       	subi	r22, 0xEF	; 239
     4ec:	7f 4f       	sbci	r23, 0xFF	; 255
     4ee:	ce 01       	movw	r24, r28
     4f0:	4d 96       	adiw	r24, 0x1d	; 29
     4f2:	89 d3       	rcall	.+1810   	; 0xc06 <__unpack_f>
     4f4:	be 01       	movw	r22, r28
     4f6:	67 5f       	subi	r22, 0xF7	; 247
     4f8:	7f 4f       	sbci	r23, 0xFF	; 255
     4fa:	ce 01       	movw	r24, r28
     4fc:	49 96       	adiw	r24, 0x19	; 25
     4fe:	83 d3       	rcall	.+1798   	; 0xc06 <__unpack_f>
     500:	99 89       	ldd	r25, Y+17	; 0x11
     502:	92 30       	cpi	r25, 0x02	; 2
     504:	08 f4       	brcc	.+2      	; 0x508 <__mulsf3+0x3c>
     506:	12 c0       	rjmp	.+36     	; 0x52c <__mulsf3+0x60>
     508:	89 85       	ldd	r24, Y+9	; 0x09
     50a:	82 30       	cpi	r24, 0x02	; 2
     50c:	08 f4       	brcc	.+2      	; 0x510 <__mulsf3+0x44>
     50e:	1a c0       	rjmp	.+52     	; 0x544 <__mulsf3+0x78>
     510:	94 30       	cpi	r25, 0x04	; 4
     512:	21 f4       	brne	.+8      	; 0x51c <__mulsf3+0x50>
     514:	82 30       	cpi	r24, 0x02	; 2
     516:	09 f4       	brne	.+2      	; 0x51a <__mulsf3+0x4e>
     518:	b4 c0       	rjmp	.+360    	; 0x682 <__mulsf3+0x1b6>
     51a:	08 c0       	rjmp	.+16     	; 0x52c <__mulsf3+0x60>
     51c:	84 30       	cpi	r24, 0x04	; 4
     51e:	21 f4       	brne	.+8      	; 0x528 <__mulsf3+0x5c>
     520:	92 30       	cpi	r25, 0x02	; 2
     522:	09 f4       	brne	.+2      	; 0x526 <__mulsf3+0x5a>
     524:	ae c0       	rjmp	.+348    	; 0x682 <__mulsf3+0x1b6>
     526:	0e c0       	rjmp	.+28     	; 0x544 <__mulsf3+0x78>
     528:	92 30       	cpi	r25, 0x02	; 2
     52a:	51 f4       	brne	.+20     	; 0x540 <__mulsf3+0x74>
     52c:	81 e0       	ldi	r24, 0x01	; 1
     52e:	2a 89       	ldd	r18, Y+18	; 0x12
     530:	9a 85       	ldd	r25, Y+10	; 0x0a
     532:	29 13       	cpse	r18, r25
     534:	01 c0       	rjmp	.+2      	; 0x538 <__mulsf3+0x6c>
     536:	80 e0       	ldi	r24, 0x00	; 0
     538:	8a 8b       	std	Y+18, r24	; 0x12
     53a:	ce 01       	movw	r24, r28
     53c:	41 96       	adiw	r24, 0x11	; 17
     53e:	a3 c0       	rjmp	.+326    	; 0x686 <__mulsf3+0x1ba>
     540:	82 30       	cpi	r24, 0x02	; 2
     542:	51 f4       	brne	.+20     	; 0x558 <__mulsf3+0x8c>
     544:	81 e0       	ldi	r24, 0x01	; 1
     546:	2a 89       	ldd	r18, Y+18	; 0x12
     548:	9a 85       	ldd	r25, Y+10	; 0x0a
     54a:	29 13       	cpse	r18, r25
     54c:	01 c0       	rjmp	.+2      	; 0x550 <__mulsf3+0x84>
     54e:	80 e0       	ldi	r24, 0x00	; 0
     550:	8a 87       	std	Y+10, r24	; 0x0a
     552:	ce 01       	movw	r24, r28
     554:	09 96       	adiw	r24, 0x09	; 9
     556:	97 c0       	rjmp	.+302    	; 0x686 <__mulsf3+0x1ba>
     558:	8d 88       	ldd	r8, Y+21	; 0x15
     55a:	9e 88       	ldd	r9, Y+22	; 0x16
     55c:	af 88       	ldd	r10, Y+23	; 0x17
     55e:	b8 8c       	ldd	r11, Y+24	; 0x18
     560:	0d 85       	ldd	r16, Y+13	; 0x0d
     562:	1e 85       	ldd	r17, Y+14	; 0x0e
     564:	2f 85       	ldd	r18, Y+15	; 0x0f
     566:	38 89       	ldd	r19, Y+16	; 0x10
     568:	e0 e2       	ldi	r30, 0x20	; 32
     56a:	f0 e0       	ldi	r31, 0x00	; 0
     56c:	80 e0       	ldi	r24, 0x00	; 0
     56e:	90 e0       	ldi	r25, 0x00	; 0
     570:	dc 01       	movw	r26, r24
     572:	c1 2c       	mov	r12, r1
     574:	d1 2c       	mov	r13, r1
     576:	76 01       	movw	r14, r12
     578:	40 e0       	ldi	r20, 0x00	; 0
     57a:	50 e0       	ldi	r21, 0x00	; 0
     57c:	ba 01       	movw	r22, r20
     57e:	80 fe       	sbrs	r8, 0
     580:	18 c0       	rjmp	.+48     	; 0x5b2 <__mulsf3+0xe6>
     582:	40 0f       	add	r20, r16
     584:	51 1f       	adc	r21, r17
     586:	62 1f       	adc	r22, r18
     588:	73 1f       	adc	r23, r19
     58a:	8c 0d       	add	r24, r12
     58c:	9d 1d       	adc	r25, r13
     58e:	ae 1d       	adc	r26, r14
     590:	bf 1d       	adc	r27, r15
     592:	41 2c       	mov	r4, r1
     594:	51 2c       	mov	r5, r1
     596:	32 01       	movw	r6, r4
     598:	43 94       	inc	r4
     59a:	40 17       	cp	r20, r16
     59c:	51 07       	cpc	r21, r17
     59e:	62 07       	cpc	r22, r18
     5a0:	73 07       	cpc	r23, r19
     5a2:	18 f0       	brcs	.+6      	; 0x5aa <__mulsf3+0xde>
     5a4:	41 2c       	mov	r4, r1
     5a6:	51 2c       	mov	r5, r1
     5a8:	32 01       	movw	r6, r4
     5aa:	84 0d       	add	r24, r4
     5ac:	95 1d       	adc	r25, r5
     5ae:	a6 1d       	adc	r26, r6
     5b0:	b7 1d       	adc	r27, r7
     5b2:	cc 0c       	add	r12, r12
     5b4:	dd 1c       	adc	r13, r13
     5b6:	ee 1c       	adc	r14, r14
     5b8:	ff 1c       	adc	r15, r15
     5ba:	37 ff       	sbrs	r19, 7
     5bc:	02 c0       	rjmp	.+4      	; 0x5c2 <__mulsf3+0xf6>
     5be:	68 94       	set
     5c0:	c0 f8       	bld	r12, 0
     5c2:	00 0f       	add	r16, r16
     5c4:	11 1f       	adc	r17, r17
     5c6:	22 1f       	adc	r18, r18
     5c8:	33 1f       	adc	r19, r19
     5ca:	b6 94       	lsr	r11
     5cc:	a7 94       	ror	r10
     5ce:	97 94       	ror	r9
     5d0:	87 94       	ror	r8
     5d2:	31 97       	sbiw	r30, 0x01	; 1
     5d4:	a1 f6       	brne	.-88     	; 0x57e <__mulsf3+0xb2>
     5d6:	2b 89       	ldd	r18, Y+19	; 0x13
     5d8:	3c 89       	ldd	r19, Y+20	; 0x14
     5da:	eb 85       	ldd	r30, Y+11	; 0x0b
     5dc:	fc 85       	ldd	r31, Y+12	; 0x0c
     5de:	2e 0f       	add	r18, r30
     5e0:	3f 1f       	adc	r19, r31
     5e2:	2e 5f       	subi	r18, 0xFE	; 254
     5e4:	3f 4f       	sbci	r19, 0xFF	; 255
     5e6:	2b 83       	std	Y+3, r18	; 0x03
     5e8:	3c 83       	std	Y+4, r19	; 0x04
     5ea:	21 e0       	ldi	r18, 0x01	; 1
     5ec:	ea 89       	ldd	r30, Y+18	; 0x12
     5ee:	3a 85       	ldd	r19, Y+10	; 0x0a
     5f0:	e3 13       	cpse	r30, r19
     5f2:	01 c0       	rjmp	.+2      	; 0x5f6 <__mulsf3+0x12a>
     5f4:	20 e0       	ldi	r18, 0x00	; 0
     5f6:	2a 83       	std	Y+2, r18	; 0x02
     5f8:	eb 81       	ldd	r30, Y+3	; 0x03
     5fa:	fc 81       	ldd	r31, Y+4	; 0x04
     5fc:	0c c0       	rjmp	.+24     	; 0x616 <__mulsf3+0x14a>
     5fe:	80 ff       	sbrs	r24, 0
     600:	05 c0       	rjmp	.+10     	; 0x60c <__mulsf3+0x140>
     602:	76 95       	lsr	r23
     604:	67 95       	ror	r22
     606:	57 95       	ror	r21
     608:	47 95       	ror	r20
     60a:	70 68       	ori	r23, 0x80	; 128
     60c:	b6 95       	lsr	r27
     60e:	a7 95       	ror	r26
     610:	97 95       	ror	r25
     612:	87 95       	ror	r24
     614:	31 96       	adiw	r30, 0x01	; 1
     616:	b7 fd       	sbrc	r27, 7
     618:	f2 cf       	rjmp	.-28     	; 0x5fe <__mulsf3+0x132>
     61a:	9f 01       	movw	r18, r30
     61c:	0c c0       	rjmp	.+24     	; 0x636 <__mulsf3+0x16a>
     61e:	88 0f       	add	r24, r24
     620:	99 1f       	adc	r25, r25
     622:	aa 1f       	adc	r26, r26
     624:	bb 1f       	adc	r27, r27
     626:	77 fd       	sbrc	r23, 7
     628:	81 60       	ori	r24, 0x01	; 1
     62a:	44 0f       	add	r20, r20
     62c:	55 1f       	adc	r21, r21
     62e:	66 1f       	adc	r22, r22
     630:	77 1f       	adc	r23, r23
     632:	21 50       	subi	r18, 0x01	; 1
     634:	31 09       	sbc	r19, r1
     636:	00 97       	sbiw	r24, 0x00	; 0
     638:	a1 05       	cpc	r26, r1
     63a:	e0 e4       	ldi	r30, 0x40	; 64
     63c:	be 07       	cpc	r27, r30
     63e:	78 f3       	brcs	.-34     	; 0x61e <__mulsf3+0x152>
     640:	2b 83       	std	Y+3, r18	; 0x03
     642:	3c 83       	std	Y+4, r19	; 0x04
     644:	8c 01       	movw	r16, r24
     646:	9d 01       	movw	r18, r26
     648:	0f 77       	andi	r16, 0x7F	; 127
     64a:	11 27       	eor	r17, r17
     64c:	22 27       	eor	r18, r18
     64e:	33 27       	eor	r19, r19
     650:	00 34       	cpi	r16, 0x40	; 64
     652:	11 05       	cpc	r17, r1
     654:	21 05       	cpc	r18, r1
     656:	31 05       	cpc	r19, r1
     658:	59 f4       	brne	.+22     	; 0x670 <__mulsf3+0x1a4>
     65a:	87 fd       	sbrc	r24, 7
     65c:	09 c0       	rjmp	.+18     	; 0x670 <__mulsf3+0x1a4>
     65e:	45 2b       	or	r20, r21
     660:	46 2b       	or	r20, r22
     662:	47 2b       	or	r20, r23
     664:	29 f0       	breq	.+10     	; 0x670 <__mulsf3+0x1a4>
     666:	80 5c       	subi	r24, 0xC0	; 192
     668:	9f 4f       	sbci	r25, 0xFF	; 255
     66a:	af 4f       	sbci	r26, 0xFF	; 255
     66c:	bf 4f       	sbci	r27, 0xFF	; 255
     66e:	80 78       	andi	r24, 0x80	; 128
     670:	8d 83       	std	Y+5, r24	; 0x05
     672:	9e 83       	std	Y+6, r25	; 0x06
     674:	af 83       	std	Y+7, r26	; 0x07
     676:	b8 87       	std	Y+8, r27	; 0x08
     678:	83 e0       	ldi	r24, 0x03	; 3
     67a:	89 83       	std	Y+1, r24	; 0x01
     67c:	ce 01       	movw	r24, r28
     67e:	01 96       	adiw	r24, 0x01	; 1
     680:	02 c0       	rjmp	.+4      	; 0x686 <__mulsf3+0x1ba>
     682:	83 e1       	ldi	r24, 0x13	; 19
     684:	90 e2       	ldi	r25, 0x20	; 32
     686:	f5 d1       	rcall	.+1002   	; 0xa72 <__pack_f>
     688:	a0 96       	adiw	r28, 0x20	; 32
     68a:	e0 e1       	ldi	r30, 0x10	; 16
     68c:	0c 94 b6 2f 	jmp	0x5f6c	; 0x5f6c <__epilogue_restores__+0x4>

00000690 <__divsf3>:
     690:	a8 e1       	ldi	r26, 0x18	; 24
     692:	b0 e0       	ldi	r27, 0x00	; 0
     694:	ee e4       	ldi	r30, 0x4E	; 78
     696:	f3 e0       	ldi	r31, 0x03	; 3
     698:	0c 94 a5 2f 	jmp	0x5f4a	; 0x5f4a <__prologue_saves__+0x14>
     69c:	6d 8b       	std	Y+21, r22	; 0x15
     69e:	7e 8b       	std	Y+22, r23	; 0x16
     6a0:	8f 8b       	std	Y+23, r24	; 0x17
     6a2:	98 8f       	std	Y+24, r25	; 0x18
     6a4:	29 8b       	std	Y+17, r18	; 0x11
     6a6:	3a 8b       	std	Y+18, r19	; 0x12
     6a8:	4b 8b       	std	Y+19, r20	; 0x13
     6aa:	5c 8b       	std	Y+20, r21	; 0x14
     6ac:	be 01       	movw	r22, r28
     6ae:	67 5f       	subi	r22, 0xF7	; 247
     6b0:	7f 4f       	sbci	r23, 0xFF	; 255
     6b2:	ce 01       	movw	r24, r28
     6b4:	45 96       	adiw	r24, 0x15	; 21
     6b6:	a7 d2       	rcall	.+1358   	; 0xc06 <__unpack_f>
     6b8:	be 01       	movw	r22, r28
     6ba:	6f 5f       	subi	r22, 0xFF	; 255
     6bc:	7f 4f       	sbci	r23, 0xFF	; 255
     6be:	ce 01       	movw	r24, r28
     6c0:	41 96       	adiw	r24, 0x11	; 17
     6c2:	a1 d2       	rcall	.+1346   	; 0xc06 <__unpack_f>
     6c4:	99 85       	ldd	r25, Y+9	; 0x09
     6c6:	92 30       	cpi	r25, 0x02	; 2
     6c8:	08 f4       	brcc	.+2      	; 0x6cc <__divsf3+0x3c>
     6ca:	75 c0       	rjmp	.+234    	; 0x7b6 <__divsf3+0x126>
     6cc:	89 81       	ldd	r24, Y+1	; 0x01
     6ce:	82 30       	cpi	r24, 0x02	; 2
     6d0:	08 f4       	brcc	.+2      	; 0x6d4 <__divsf3+0x44>
     6d2:	74 c0       	rjmp	.+232    	; 0x7bc <__divsf3+0x12c>
     6d4:	2a 85       	ldd	r18, Y+10	; 0x0a
     6d6:	3a 81       	ldd	r19, Y+2	; 0x02
     6d8:	23 27       	eor	r18, r19
     6da:	2a 87       	std	Y+10, r18	; 0x0a
     6dc:	94 30       	cpi	r25, 0x04	; 4
     6de:	11 f0       	breq	.+4      	; 0x6e4 <__divsf3+0x54>
     6e0:	92 30       	cpi	r25, 0x02	; 2
     6e2:	19 f4       	brne	.+6      	; 0x6ea <__divsf3+0x5a>
     6e4:	98 13       	cpse	r25, r24
     6e6:	67 c0       	rjmp	.+206    	; 0x7b6 <__divsf3+0x126>
     6e8:	6c c0       	rjmp	.+216    	; 0x7c2 <__divsf3+0x132>
     6ea:	84 30       	cpi	r24, 0x04	; 4
     6ec:	39 f4       	brne	.+14     	; 0x6fc <__divsf3+0x6c>
     6ee:	1d 86       	std	Y+13, r1	; 0x0d
     6f0:	1e 86       	std	Y+14, r1	; 0x0e
     6f2:	1f 86       	std	Y+15, r1	; 0x0f
     6f4:	18 8a       	std	Y+16, r1	; 0x10
     6f6:	1b 86       	std	Y+11, r1	; 0x0b
     6f8:	1c 86       	std	Y+12, r1	; 0x0c
     6fa:	04 c0       	rjmp	.+8      	; 0x704 <__divsf3+0x74>
     6fc:	82 30       	cpi	r24, 0x02	; 2
     6fe:	29 f4       	brne	.+10     	; 0x70a <__divsf3+0x7a>
     700:	84 e0       	ldi	r24, 0x04	; 4
     702:	89 87       	std	Y+9, r24	; 0x09
     704:	ce 01       	movw	r24, r28
     706:	09 96       	adiw	r24, 0x09	; 9
     708:	5e c0       	rjmp	.+188    	; 0x7c6 <__divsf3+0x136>
     70a:	8b 85       	ldd	r24, Y+11	; 0x0b
     70c:	9c 85       	ldd	r25, Y+12	; 0x0c
     70e:	2b 81       	ldd	r18, Y+3	; 0x03
     710:	3c 81       	ldd	r19, Y+4	; 0x04
     712:	82 1b       	sub	r24, r18
     714:	93 0b       	sbc	r25, r19
     716:	8b 87       	std	Y+11, r24	; 0x0b
     718:	9c 87       	std	Y+12, r25	; 0x0c
     71a:	4d 85       	ldd	r20, Y+13	; 0x0d
     71c:	5e 85       	ldd	r21, Y+14	; 0x0e
     71e:	6f 85       	ldd	r22, Y+15	; 0x0f
     720:	78 89       	ldd	r23, Y+16	; 0x10
     722:	cd 80       	ldd	r12, Y+5	; 0x05
     724:	de 80       	ldd	r13, Y+6	; 0x06
     726:	ef 80       	ldd	r14, Y+7	; 0x07
     728:	f8 84       	ldd	r15, Y+8	; 0x08
     72a:	4c 15       	cp	r20, r12
     72c:	5d 05       	cpc	r21, r13
     72e:	6e 05       	cpc	r22, r14
     730:	7f 05       	cpc	r23, r15
     732:	38 f4       	brcc	.+14     	; 0x742 <__divsf3+0xb2>
     734:	44 0f       	add	r20, r20
     736:	55 1f       	adc	r21, r21
     738:	66 1f       	adc	r22, r22
     73a:	77 1f       	adc	r23, r23
     73c:	01 97       	sbiw	r24, 0x01	; 1
     73e:	8b 87       	std	Y+11, r24	; 0x0b
     740:	9c 87       	std	Y+12, r25	; 0x0c
     742:	ef e1       	ldi	r30, 0x1F	; 31
     744:	f0 e0       	ldi	r31, 0x00	; 0
     746:	00 e0       	ldi	r16, 0x00	; 0
     748:	10 e0       	ldi	r17, 0x00	; 0
     74a:	20 e0       	ldi	r18, 0x00	; 0
     74c:	30 e4       	ldi	r19, 0x40	; 64
     74e:	80 e0       	ldi	r24, 0x00	; 0
     750:	90 e0       	ldi	r25, 0x00	; 0
     752:	dc 01       	movw	r26, r24
     754:	4c 15       	cp	r20, r12
     756:	5d 05       	cpc	r21, r13
     758:	6e 05       	cpc	r22, r14
     75a:	7f 05       	cpc	r23, r15
     75c:	40 f0       	brcs	.+16     	; 0x76e <__divsf3+0xde>
     75e:	80 2b       	or	r24, r16
     760:	91 2b       	or	r25, r17
     762:	a2 2b       	or	r26, r18
     764:	b3 2b       	or	r27, r19
     766:	4c 19       	sub	r20, r12
     768:	5d 09       	sbc	r21, r13
     76a:	6e 09       	sbc	r22, r14
     76c:	7f 09       	sbc	r23, r15
     76e:	36 95       	lsr	r19
     770:	27 95       	ror	r18
     772:	17 95       	ror	r17
     774:	07 95       	ror	r16
     776:	44 0f       	add	r20, r20
     778:	55 1f       	adc	r21, r21
     77a:	66 1f       	adc	r22, r22
     77c:	77 1f       	adc	r23, r23
     77e:	31 97       	sbiw	r30, 0x01	; 1
     780:	49 f7       	brne	.-46     	; 0x754 <__divsf3+0xc4>
     782:	8c 01       	movw	r16, r24
     784:	9d 01       	movw	r18, r26
     786:	0f 77       	andi	r16, 0x7F	; 127
     788:	11 27       	eor	r17, r17
     78a:	22 27       	eor	r18, r18
     78c:	33 27       	eor	r19, r19
     78e:	00 34       	cpi	r16, 0x40	; 64
     790:	11 05       	cpc	r17, r1
     792:	21 05       	cpc	r18, r1
     794:	31 05       	cpc	r19, r1
     796:	59 f4       	brne	.+22     	; 0x7ae <__divsf3+0x11e>
     798:	87 fd       	sbrc	r24, 7
     79a:	09 c0       	rjmp	.+18     	; 0x7ae <__divsf3+0x11e>
     79c:	45 2b       	or	r20, r21
     79e:	46 2b       	or	r20, r22
     7a0:	47 2b       	or	r20, r23
     7a2:	29 f0       	breq	.+10     	; 0x7ae <__divsf3+0x11e>
     7a4:	80 5c       	subi	r24, 0xC0	; 192
     7a6:	9f 4f       	sbci	r25, 0xFF	; 255
     7a8:	af 4f       	sbci	r26, 0xFF	; 255
     7aa:	bf 4f       	sbci	r27, 0xFF	; 255
     7ac:	80 78       	andi	r24, 0x80	; 128
     7ae:	8d 87       	std	Y+13, r24	; 0x0d
     7b0:	9e 87       	std	Y+14, r25	; 0x0e
     7b2:	af 87       	std	Y+15, r26	; 0x0f
     7b4:	b8 8b       	std	Y+16, r27	; 0x10
     7b6:	ce 01       	movw	r24, r28
     7b8:	09 96       	adiw	r24, 0x09	; 9
     7ba:	05 c0       	rjmp	.+10     	; 0x7c6 <__divsf3+0x136>
     7bc:	ce 01       	movw	r24, r28
     7be:	01 96       	adiw	r24, 0x01	; 1
     7c0:	02 c0       	rjmp	.+4      	; 0x7c6 <__divsf3+0x136>
     7c2:	83 e1       	ldi	r24, 0x13	; 19
     7c4:	90 e2       	ldi	r25, 0x20	; 32
     7c6:	55 d1       	rcall	.+682    	; 0xa72 <__pack_f>
     7c8:	68 96       	adiw	r28, 0x18	; 24
     7ca:	e8 e0       	ldi	r30, 0x08	; 8
     7cc:	0c 94 be 2f 	jmp	0x5f7c	; 0x5f7c <__epilogue_restores__+0x14>

000007d0 <__gesf2>:
     7d0:	a8 e1       	ldi	r26, 0x18	; 24
     7d2:	b0 e0       	ldi	r27, 0x00	; 0
     7d4:	ee ee       	ldi	r30, 0xEE	; 238
     7d6:	f3 e0       	ldi	r31, 0x03	; 3
     7d8:	0c 94 ab 2f 	jmp	0x5f56	; 0x5f56 <__prologue_saves__+0x20>
     7dc:	6d 8b       	std	Y+21, r22	; 0x15
     7de:	7e 8b       	std	Y+22, r23	; 0x16
     7e0:	8f 8b       	std	Y+23, r24	; 0x17
     7e2:	98 8f       	std	Y+24, r25	; 0x18
     7e4:	29 8b       	std	Y+17, r18	; 0x11
     7e6:	3a 8b       	std	Y+18, r19	; 0x12
     7e8:	4b 8b       	std	Y+19, r20	; 0x13
     7ea:	5c 8b       	std	Y+20, r21	; 0x14
     7ec:	be 01       	movw	r22, r28
     7ee:	67 5f       	subi	r22, 0xF7	; 247
     7f0:	7f 4f       	sbci	r23, 0xFF	; 255
     7f2:	ce 01       	movw	r24, r28
     7f4:	45 96       	adiw	r24, 0x15	; 21
     7f6:	07 d2       	rcall	.+1038   	; 0xc06 <__unpack_f>
     7f8:	be 01       	movw	r22, r28
     7fa:	6f 5f       	subi	r22, 0xFF	; 255
     7fc:	7f 4f       	sbci	r23, 0xFF	; 255
     7fe:	ce 01       	movw	r24, r28
     800:	41 96       	adiw	r24, 0x11	; 17
     802:	01 d2       	rcall	.+1026   	; 0xc06 <__unpack_f>
     804:	89 85       	ldd	r24, Y+9	; 0x09
     806:	82 30       	cpi	r24, 0x02	; 2
     808:	50 f0       	brcs	.+20     	; 0x81e <__gesf2+0x4e>
     80a:	89 81       	ldd	r24, Y+1	; 0x01
     80c:	82 30       	cpi	r24, 0x02	; 2
     80e:	38 f0       	brcs	.+14     	; 0x81e <__gesf2+0x4e>
     810:	be 01       	movw	r22, r28
     812:	6f 5f       	subi	r22, 0xFF	; 255
     814:	7f 4f       	sbci	r23, 0xFF	; 255
     816:	ce 01       	movw	r24, r28
     818:	09 96       	adiw	r24, 0x09	; 9
     81a:	14 d4       	rcall	.+2088   	; 0x1044 <__fpcmp_parts_f>
     81c:	01 c0       	rjmp	.+2      	; 0x820 <__gesf2+0x50>
     81e:	8f ef       	ldi	r24, 0xFF	; 255
     820:	68 96       	adiw	r28, 0x18	; 24
     822:	e2 e0       	ldi	r30, 0x02	; 2
     824:	0c 94 c4 2f 	jmp	0x5f88	; 0x5f88 <__epilogue_restores__+0x20>

00000828 <__ltsf2>:
     828:	a8 e1       	ldi	r26, 0x18	; 24
     82a:	b0 e0       	ldi	r27, 0x00	; 0
     82c:	ea e1       	ldi	r30, 0x1A	; 26
     82e:	f4 e0       	ldi	r31, 0x04	; 4
     830:	0c 94 ab 2f 	jmp	0x5f56	; 0x5f56 <__prologue_saves__+0x20>
     834:	6d 8b       	std	Y+21, r22	; 0x15
     836:	7e 8b       	std	Y+22, r23	; 0x16
     838:	8f 8b       	std	Y+23, r24	; 0x17
     83a:	98 8f       	std	Y+24, r25	; 0x18
     83c:	29 8b       	std	Y+17, r18	; 0x11
     83e:	3a 8b       	std	Y+18, r19	; 0x12
     840:	4b 8b       	std	Y+19, r20	; 0x13
     842:	5c 8b       	std	Y+20, r21	; 0x14
     844:	be 01       	movw	r22, r28
     846:	67 5f       	subi	r22, 0xF7	; 247
     848:	7f 4f       	sbci	r23, 0xFF	; 255
     84a:	ce 01       	movw	r24, r28
     84c:	45 96       	adiw	r24, 0x15	; 21
     84e:	db d1       	rcall	.+950    	; 0xc06 <__unpack_f>
     850:	be 01       	movw	r22, r28
     852:	6f 5f       	subi	r22, 0xFF	; 255
     854:	7f 4f       	sbci	r23, 0xFF	; 255
     856:	ce 01       	movw	r24, r28
     858:	41 96       	adiw	r24, 0x11	; 17
     85a:	d5 d1       	rcall	.+938    	; 0xc06 <__unpack_f>
     85c:	89 85       	ldd	r24, Y+9	; 0x09
     85e:	82 30       	cpi	r24, 0x02	; 2
     860:	50 f0       	brcs	.+20     	; 0x876 <__ltsf2+0x4e>
     862:	89 81       	ldd	r24, Y+1	; 0x01
     864:	82 30       	cpi	r24, 0x02	; 2
     866:	38 f0       	brcs	.+14     	; 0x876 <__ltsf2+0x4e>
     868:	be 01       	movw	r22, r28
     86a:	6f 5f       	subi	r22, 0xFF	; 255
     86c:	7f 4f       	sbci	r23, 0xFF	; 255
     86e:	ce 01       	movw	r24, r28
     870:	09 96       	adiw	r24, 0x09	; 9
     872:	e8 d3       	rcall	.+2000   	; 0x1044 <__fpcmp_parts_f>
     874:	01 c0       	rjmp	.+2      	; 0x878 <__ltsf2+0x50>
     876:	81 e0       	ldi	r24, 0x01	; 1
     878:	68 96       	adiw	r28, 0x18	; 24
     87a:	e2 e0       	ldi	r30, 0x02	; 2
     87c:	0c 94 c4 2f 	jmp	0x5f88	; 0x5f88 <__epilogue_restores__+0x20>

00000880 <__floatsisf>:
     880:	a8 e0       	ldi	r26, 0x08	; 8
     882:	b0 e0       	ldi	r27, 0x00	; 0
     884:	e6 e4       	ldi	r30, 0x46	; 70
     886:	f4 e0       	ldi	r31, 0x04	; 4
     888:	0c 94 a9 2f 	jmp	0x5f52	; 0x5f52 <__prologue_saves__+0x1c>
     88c:	23 e0       	ldi	r18, 0x03	; 3
     88e:	29 83       	std	Y+1, r18	; 0x01
     890:	8b 01       	movw	r16, r22
     892:	9c 01       	movw	r18, r24
     894:	00 27       	eor	r16, r16
     896:	37 fd       	sbrc	r19, 7
     898:	03 95       	inc	r16
     89a:	11 27       	eor	r17, r17
     89c:	22 27       	eor	r18, r18
     89e:	33 27       	eor	r19, r19
     8a0:	40 2f       	mov	r20, r16
     8a2:	0a 83       	std	Y+2, r16	; 0x02
     8a4:	61 15       	cp	r22, r1
     8a6:	71 05       	cpc	r23, r1
     8a8:	81 05       	cpc	r24, r1
     8aa:	91 05       	cpc	r25, r1
     8ac:	19 f4       	brne	.+6      	; 0x8b4 <__floatsisf+0x34>
     8ae:	82 e0       	ldi	r24, 0x02	; 2
     8b0:	89 83       	std	Y+1, r24	; 0x01
     8b2:	35 c0       	rjmp	.+106    	; 0x91e <__floatsisf+0x9e>
     8b4:	2e e1       	ldi	r18, 0x1E	; 30
     8b6:	30 e0       	ldi	r19, 0x00	; 0
     8b8:	2b 83       	std	Y+3, r18	; 0x03
     8ba:	3c 83       	std	Y+4, r19	; 0x04
     8bc:	44 23       	and	r20, r20
     8be:	71 f0       	breq	.+28     	; 0x8dc <__floatsisf+0x5c>
     8c0:	61 15       	cp	r22, r1
     8c2:	71 05       	cpc	r23, r1
     8c4:	81 05       	cpc	r24, r1
     8c6:	20 e8       	ldi	r18, 0x80	; 128
     8c8:	92 07       	cpc	r25, r18
     8ca:	69 f1       	breq	.+90     	; 0x926 <__floatsisf+0xa6>
     8cc:	00 27       	eor	r16, r16
     8ce:	11 27       	eor	r17, r17
     8d0:	98 01       	movw	r18, r16
     8d2:	06 1b       	sub	r16, r22
     8d4:	17 0b       	sbc	r17, r23
     8d6:	28 0b       	sbc	r18, r24
     8d8:	39 0b       	sbc	r19, r25
     8da:	02 c0       	rjmp	.+4      	; 0x8e0 <__floatsisf+0x60>
     8dc:	8b 01       	movw	r16, r22
     8de:	9c 01       	movw	r18, r24
     8e0:	c9 01       	movw	r24, r18
     8e2:	b8 01       	movw	r22, r16
     8e4:	0e 94 82 2f 	call	0x5f04	; 0x5f04 <__clzsi2>
     8e8:	01 97       	sbiw	r24, 0x01	; 1
     8ea:	18 16       	cp	r1, r24
     8ec:	19 06       	cpc	r1, r25
     8ee:	2c f0       	brlt	.+10     	; 0x8fa <__floatsisf+0x7a>
     8f0:	0d 83       	std	Y+5, r16	; 0x05
     8f2:	1e 83       	std	Y+6, r17	; 0x06
     8f4:	2f 83       	std	Y+7, r18	; 0x07
     8f6:	38 87       	std	Y+8, r19	; 0x08
     8f8:	12 c0       	rjmp	.+36     	; 0x91e <__floatsisf+0x9e>
     8fa:	08 2e       	mov	r0, r24
     8fc:	04 c0       	rjmp	.+8      	; 0x906 <__floatsisf+0x86>
     8fe:	00 0f       	add	r16, r16
     900:	11 1f       	adc	r17, r17
     902:	22 1f       	adc	r18, r18
     904:	33 1f       	adc	r19, r19
     906:	0a 94       	dec	r0
     908:	d2 f7       	brpl	.-12     	; 0x8fe <__floatsisf+0x7e>
     90a:	0d 83       	std	Y+5, r16	; 0x05
     90c:	1e 83       	std	Y+6, r17	; 0x06
     90e:	2f 83       	std	Y+7, r18	; 0x07
     910:	38 87       	std	Y+8, r19	; 0x08
     912:	2e e1       	ldi	r18, 0x1E	; 30
     914:	30 e0       	ldi	r19, 0x00	; 0
     916:	28 1b       	sub	r18, r24
     918:	39 0b       	sbc	r19, r25
     91a:	2b 83       	std	Y+3, r18	; 0x03
     91c:	3c 83       	std	Y+4, r19	; 0x04
     91e:	ce 01       	movw	r24, r28
     920:	01 96       	adiw	r24, 0x01	; 1
     922:	a7 d0       	rcall	.+334    	; 0xa72 <__pack_f>
     924:	04 c0       	rjmp	.+8      	; 0x92e <__floatsisf+0xae>
     926:	60 e0       	ldi	r22, 0x00	; 0
     928:	70 e0       	ldi	r23, 0x00	; 0
     92a:	80 e0       	ldi	r24, 0x00	; 0
     92c:	9f ec       	ldi	r25, 0xCF	; 207
     92e:	28 96       	adiw	r28, 0x08	; 8
     930:	e4 e0       	ldi	r30, 0x04	; 4
     932:	0c 94 c2 2f 	jmp	0x5f84	; 0x5f84 <__epilogue_restores__+0x1c>

00000936 <__floatunsisf>:
     936:	a8 e0       	ldi	r26, 0x08	; 8
     938:	b0 e0       	ldi	r27, 0x00	; 0
     93a:	e1 ea       	ldi	r30, 0xA1	; 161
     93c:	f4 e0       	ldi	r31, 0x04	; 4
     93e:	0c 94 a5 2f 	jmp	0x5f4a	; 0x5f4a <__prologue_saves__+0x14>
     942:	8b 01       	movw	r16, r22
     944:	9c 01       	movw	r18, r24
     946:	1a 82       	std	Y+2, r1	; 0x02
     948:	61 15       	cp	r22, r1
     94a:	71 05       	cpc	r23, r1
     94c:	81 05       	cpc	r24, r1
     94e:	91 05       	cpc	r25, r1
     950:	19 f4       	brne	.+6      	; 0x958 <__floatunsisf+0x22>
     952:	82 e0       	ldi	r24, 0x02	; 2
     954:	89 83       	std	Y+1, r24	; 0x01
     956:	5d c0       	rjmp	.+186    	; 0xa12 <__floatunsisf+0xdc>
     958:	83 e0       	ldi	r24, 0x03	; 3
     95a:	89 83       	std	Y+1, r24	; 0x01
     95c:	4e e1       	ldi	r20, 0x1E	; 30
     95e:	50 e0       	ldi	r21, 0x00	; 0
     960:	4b 83       	std	Y+3, r20	; 0x03
     962:	5c 83       	std	Y+4, r21	; 0x04
     964:	c9 01       	movw	r24, r18
     966:	b8 01       	movw	r22, r16
     968:	0e 94 82 2f 	call	0x5f04	; 0x5f04 <__clzsi2>
     96c:	01 97       	sbiw	r24, 0x01	; 1
     96e:	97 ff       	sbrs	r25, 7
     970:	39 c0       	rjmp	.+114    	; 0x9e4 <__floatunsisf+0xae>
     972:	ee 27       	eor	r30, r30
     974:	ff 27       	eor	r31, r31
     976:	e8 1b       	sub	r30, r24
     978:	f9 0b       	sbc	r31, r25
     97a:	41 e0       	ldi	r20, 0x01	; 1
     97c:	50 e0       	ldi	r21, 0x00	; 0
     97e:	60 e0       	ldi	r22, 0x00	; 0
     980:	70 e0       	ldi	r23, 0x00	; 0
     982:	0e 2e       	mov	r0, r30
     984:	04 c0       	rjmp	.+8      	; 0x98e <__floatunsisf+0x58>
     986:	44 0f       	add	r20, r20
     988:	55 1f       	adc	r21, r21
     98a:	66 1f       	adc	r22, r22
     98c:	77 1f       	adc	r23, r23
     98e:	0a 94       	dec	r0
     990:	d2 f7       	brpl	.-12     	; 0x986 <__floatunsisf+0x50>
     992:	41 50       	subi	r20, 0x01	; 1
     994:	51 09       	sbc	r21, r1
     996:	61 09       	sbc	r22, r1
     998:	71 09       	sbc	r23, r1
     99a:	40 23       	and	r20, r16
     99c:	51 23       	and	r21, r17
     99e:	62 23       	and	r22, r18
     9a0:	73 23       	and	r23, r19
     9a2:	c1 2c       	mov	r12, r1
     9a4:	d1 2c       	mov	r13, r1
     9a6:	76 01       	movw	r14, r12
     9a8:	c3 94       	inc	r12
     9aa:	45 2b       	or	r20, r21
     9ac:	46 2b       	or	r20, r22
     9ae:	47 2b       	or	r20, r23
     9b0:	19 f4       	brne	.+6      	; 0x9b8 <__floatunsisf+0x82>
     9b2:	c1 2c       	mov	r12, r1
     9b4:	d1 2c       	mov	r13, r1
     9b6:	76 01       	movw	r14, r12
     9b8:	04 c0       	rjmp	.+8      	; 0x9c2 <__floatunsisf+0x8c>
     9ba:	36 95       	lsr	r19
     9bc:	27 95       	ror	r18
     9be:	17 95       	ror	r17
     9c0:	07 95       	ror	r16
     9c2:	ea 95       	dec	r30
     9c4:	d2 f7       	brpl	.-12     	; 0x9ba <__floatunsisf+0x84>
     9c6:	0c 29       	or	r16, r12
     9c8:	1d 29       	or	r17, r13
     9ca:	2e 29       	or	r18, r14
     9cc:	3f 29       	or	r19, r15
     9ce:	0d 83       	std	Y+5, r16	; 0x05
     9d0:	1e 83       	std	Y+6, r17	; 0x06
     9d2:	2f 83       	std	Y+7, r18	; 0x07
     9d4:	38 87       	std	Y+8, r19	; 0x08
     9d6:	2e e1       	ldi	r18, 0x1E	; 30
     9d8:	30 e0       	ldi	r19, 0x00	; 0
     9da:	28 1b       	sub	r18, r24
     9dc:	39 0b       	sbc	r19, r25
     9de:	2b 83       	std	Y+3, r18	; 0x03
     9e0:	3c 83       	std	Y+4, r19	; 0x04
     9e2:	17 c0       	rjmp	.+46     	; 0xa12 <__floatunsisf+0xdc>
     9e4:	00 97       	sbiw	r24, 0x00	; 0
     9e6:	29 f4       	brne	.+10     	; 0x9f2 <__floatunsisf+0xbc>
     9e8:	0d 83       	std	Y+5, r16	; 0x05
     9ea:	1e 83       	std	Y+6, r17	; 0x06
     9ec:	2f 83       	std	Y+7, r18	; 0x07
     9ee:	38 87       	std	Y+8, r19	; 0x08
     9f0:	10 c0       	rjmp	.+32     	; 0xa12 <__floatunsisf+0xdc>
     9f2:	08 2e       	mov	r0, r24
     9f4:	04 c0       	rjmp	.+8      	; 0x9fe <__floatunsisf+0xc8>
     9f6:	00 0f       	add	r16, r16
     9f8:	11 1f       	adc	r17, r17
     9fa:	22 1f       	adc	r18, r18
     9fc:	33 1f       	adc	r19, r19
     9fe:	0a 94       	dec	r0
     a00:	d2 f7       	brpl	.-12     	; 0x9f6 <__floatunsisf+0xc0>
     a02:	0d 83       	std	Y+5, r16	; 0x05
     a04:	1e 83       	std	Y+6, r17	; 0x06
     a06:	2f 83       	std	Y+7, r18	; 0x07
     a08:	38 87       	std	Y+8, r19	; 0x08
     a0a:	48 1b       	sub	r20, r24
     a0c:	59 0b       	sbc	r21, r25
     a0e:	4b 83       	std	Y+3, r20	; 0x03
     a10:	5c 83       	std	Y+4, r21	; 0x04
     a12:	ce 01       	movw	r24, r28
     a14:	01 96       	adiw	r24, 0x01	; 1
     a16:	2d d0       	rcall	.+90     	; 0xa72 <__pack_f>
     a18:	28 96       	adiw	r28, 0x08	; 8
     a1a:	e8 e0       	ldi	r30, 0x08	; 8
     a1c:	0c 94 be 2f 	jmp	0x5f7c	; 0x5f7c <__epilogue_restores__+0x14>

00000a20 <__fixunssfsi>:
     a20:	cf 92       	push	r12
     a22:	df 92       	push	r13
     a24:	ef 92       	push	r14
     a26:	ff 92       	push	r15
     a28:	0f 93       	push	r16
     a2a:	1f 93       	push	r17
     a2c:	6b 01       	movw	r12, r22
     a2e:	7c 01       	movw	r14, r24
     a30:	20 e0       	ldi	r18, 0x00	; 0
     a32:	30 e0       	ldi	r19, 0x00	; 0
     a34:	40 e0       	ldi	r20, 0x00	; 0
     a36:	5f e4       	ldi	r21, 0x4F	; 79
     a38:	cb de       	rcall	.-618    	; 0x7d0 <__gesf2>
     a3a:	87 fd       	sbrc	r24, 7
     a3c:	0c c0       	rjmp	.+24     	; 0xa56 <__fixunssfsi+0x36>
     a3e:	20 e0       	ldi	r18, 0x00	; 0
     a40:	30 e0       	ldi	r19, 0x00	; 0
     a42:	40 e0       	ldi	r20, 0x00	; 0
     a44:	5f e4       	ldi	r21, 0x4F	; 79
     a46:	c7 01       	movw	r24, r14
     a48:	b6 01       	movw	r22, r12
     a4a:	d0 d2       	rcall	.+1440   	; 0xfec <__subsf3>
     a4c:	5c d3       	rcall	.+1720   	; 0x1106 <__fixsfsi>
     a4e:	8b 01       	movw	r16, r22
     a50:	9c 01       	movw	r18, r24
     a52:	30 58       	subi	r19, 0x80	; 128
     a54:	05 c0       	rjmp	.+10     	; 0xa60 <__fixunssfsi+0x40>
     a56:	c7 01       	movw	r24, r14
     a58:	b6 01       	movw	r22, r12
     a5a:	55 d3       	rcall	.+1706   	; 0x1106 <__fixsfsi>
     a5c:	8b 01       	movw	r16, r22
     a5e:	9c 01       	movw	r18, r24
     a60:	b8 01       	movw	r22, r16
     a62:	c9 01       	movw	r24, r18
     a64:	1f 91       	pop	r17
     a66:	0f 91       	pop	r16
     a68:	ff 90       	pop	r15
     a6a:	ef 90       	pop	r14
     a6c:	df 90       	pop	r13
     a6e:	cf 90       	pop	r12
     a70:	08 95       	ret

00000a72 <__pack_f>:
     a72:	0f 93       	push	r16
     a74:	1f 93       	push	r17
     a76:	cf 93       	push	r28
     a78:	df 93       	push	r29
     a7a:	dc 01       	movw	r26, r24
     a7c:	14 96       	adiw	r26, 0x04	; 4
     a7e:	4d 91       	ld	r20, X+
     a80:	5d 91       	ld	r21, X+
     a82:	6d 91       	ld	r22, X+
     a84:	7c 91       	ld	r23, X
     a86:	17 97       	sbiw	r26, 0x07	; 7
     a88:	11 96       	adiw	r26, 0x01	; 1
     a8a:	ec 91       	ld	r30, X
     a8c:	11 97       	sbiw	r26, 0x01	; 1
     a8e:	8c 91       	ld	r24, X
     a90:	82 30       	cpi	r24, 0x02	; 2
     a92:	20 f4       	brcc	.+8      	; 0xa9c <__pack_f+0x2a>
     a94:	60 61       	ori	r22, 0x10	; 16
     a96:	8f ef       	ldi	r24, 0xFF	; 255
     a98:	90 e0       	ldi	r25, 0x00	; 0
     a9a:	a6 c0       	rjmp	.+332    	; 0xbe8 <__pack_f+0x176>
     a9c:	84 30       	cpi	r24, 0x04	; 4
     a9e:	09 f4       	brne	.+2      	; 0xaa2 <__pack_f+0x30>
     aa0:	9e c0       	rjmp	.+316    	; 0xbde <__pack_f+0x16c>
     aa2:	82 30       	cpi	r24, 0x02	; 2
     aa4:	09 f4       	brne	.+2      	; 0xaa8 <__pack_f+0x36>
     aa6:	95 c0       	rjmp	.+298    	; 0xbd2 <__pack_f+0x160>
     aa8:	41 15       	cp	r20, r1
     aaa:	51 05       	cpc	r21, r1
     aac:	61 05       	cpc	r22, r1
     aae:	71 05       	cpc	r23, r1
     ab0:	09 f4       	brne	.+2      	; 0xab4 <__pack_f+0x42>
     ab2:	92 c0       	rjmp	.+292    	; 0xbd8 <__pack_f+0x166>
     ab4:	12 96       	adiw	r26, 0x02	; 2
     ab6:	2d 91       	ld	r18, X+
     ab8:	3c 91       	ld	r19, X
     aba:	13 97       	sbiw	r26, 0x03	; 3
     abc:	22 38       	cpi	r18, 0x82	; 130
     abe:	8f ef       	ldi	r24, 0xFF	; 255
     ac0:	38 07       	cpc	r19, r24
     ac2:	0c f0       	brlt	.+2      	; 0xac6 <__pack_f+0x54>
     ac4:	58 c0       	rjmp	.+176    	; 0xb76 <__pack_f+0x104>
     ac6:	c2 e8       	ldi	r28, 0x82	; 130
     ac8:	df ef       	ldi	r29, 0xFF	; 255
     aca:	c2 1b       	sub	r28, r18
     acc:	d3 0b       	sbc	r29, r19
     ace:	ca 31       	cpi	r28, 0x1A	; 26
     ad0:	d1 05       	cpc	r29, r1
     ad2:	6c f5       	brge	.+90     	; 0xb2e <__pack_f+0xbc>
     ad4:	8a 01       	movw	r16, r20
     ad6:	9b 01       	movw	r18, r22
     ad8:	0c 2e       	mov	r0, r28
     ada:	04 c0       	rjmp	.+8      	; 0xae4 <__pack_f+0x72>
     adc:	36 95       	lsr	r19
     ade:	27 95       	ror	r18
     ae0:	17 95       	ror	r17
     ae2:	07 95       	ror	r16
     ae4:	0a 94       	dec	r0
     ae6:	d2 f7       	brpl	.-12     	; 0xadc <__pack_f+0x6a>
     ae8:	81 e0       	ldi	r24, 0x01	; 1
     aea:	90 e0       	ldi	r25, 0x00	; 0
     aec:	a0 e0       	ldi	r26, 0x00	; 0
     aee:	b0 e0       	ldi	r27, 0x00	; 0
     af0:	0c 2e       	mov	r0, r28
     af2:	04 c0       	rjmp	.+8      	; 0xafc <__pack_f+0x8a>
     af4:	88 0f       	add	r24, r24
     af6:	99 1f       	adc	r25, r25
     af8:	aa 1f       	adc	r26, r26
     afa:	bb 1f       	adc	r27, r27
     afc:	0a 94       	dec	r0
     afe:	d2 f7       	brpl	.-12     	; 0xaf4 <__pack_f+0x82>
     b00:	01 97       	sbiw	r24, 0x01	; 1
     b02:	a1 09       	sbc	r26, r1
     b04:	b1 09       	sbc	r27, r1
     b06:	84 23       	and	r24, r20
     b08:	95 23       	and	r25, r21
     b0a:	a6 23       	and	r26, r22
     b0c:	b7 23       	and	r27, r23
     b0e:	41 e0       	ldi	r20, 0x01	; 1
     b10:	50 e0       	ldi	r21, 0x00	; 0
     b12:	60 e0       	ldi	r22, 0x00	; 0
     b14:	70 e0       	ldi	r23, 0x00	; 0
     b16:	89 2b       	or	r24, r25
     b18:	8a 2b       	or	r24, r26
     b1a:	8b 2b       	or	r24, r27
     b1c:	19 f4       	brne	.+6      	; 0xb24 <__pack_f+0xb2>
     b1e:	40 e0       	ldi	r20, 0x00	; 0
     b20:	50 e0       	ldi	r21, 0x00	; 0
     b22:	ba 01       	movw	r22, r20
     b24:	40 2b       	or	r20, r16
     b26:	51 2b       	or	r21, r17
     b28:	62 2b       	or	r22, r18
     b2a:	73 2b       	or	r23, r19
     b2c:	03 c0       	rjmp	.+6      	; 0xb34 <__pack_f+0xc2>
     b2e:	40 e0       	ldi	r20, 0x00	; 0
     b30:	50 e0       	ldi	r21, 0x00	; 0
     b32:	ba 01       	movw	r22, r20
     b34:	db 01       	movw	r26, r22
     b36:	ca 01       	movw	r24, r20
     b38:	8f 77       	andi	r24, 0x7F	; 127
     b3a:	99 27       	eor	r25, r25
     b3c:	aa 27       	eor	r26, r26
     b3e:	bb 27       	eor	r27, r27
     b40:	80 34       	cpi	r24, 0x40	; 64
     b42:	91 05       	cpc	r25, r1
     b44:	a1 05       	cpc	r26, r1
     b46:	b1 05       	cpc	r27, r1
     b48:	39 f4       	brne	.+14     	; 0xb58 <__pack_f+0xe6>
     b4a:	47 ff       	sbrs	r20, 7
     b4c:	09 c0       	rjmp	.+18     	; 0xb60 <__pack_f+0xee>
     b4e:	40 5c       	subi	r20, 0xC0	; 192
     b50:	5f 4f       	sbci	r21, 0xFF	; 255
     b52:	6f 4f       	sbci	r22, 0xFF	; 255
     b54:	7f 4f       	sbci	r23, 0xFF	; 255
     b56:	04 c0       	rjmp	.+8      	; 0xb60 <__pack_f+0xee>
     b58:	41 5c       	subi	r20, 0xC1	; 193
     b5a:	5f 4f       	sbci	r21, 0xFF	; 255
     b5c:	6f 4f       	sbci	r22, 0xFF	; 255
     b5e:	7f 4f       	sbci	r23, 0xFF	; 255
     b60:	81 e0       	ldi	r24, 0x01	; 1
     b62:	90 e0       	ldi	r25, 0x00	; 0
     b64:	41 15       	cp	r20, r1
     b66:	51 05       	cpc	r21, r1
     b68:	61 05       	cpc	r22, r1
     b6a:	20 e4       	ldi	r18, 0x40	; 64
     b6c:	72 07       	cpc	r23, r18
     b6e:	48 f5       	brcc	.+82     	; 0xbc2 <__pack_f+0x150>
     b70:	80 e0       	ldi	r24, 0x00	; 0
     b72:	90 e0       	ldi	r25, 0x00	; 0
     b74:	26 c0       	rjmp	.+76     	; 0xbc2 <__pack_f+0x150>
     b76:	20 38       	cpi	r18, 0x80	; 128
     b78:	31 05       	cpc	r19, r1
     b7a:	8c f5       	brge	.+98     	; 0xbde <__pack_f+0x16c>
     b7c:	db 01       	movw	r26, r22
     b7e:	ca 01       	movw	r24, r20
     b80:	8f 77       	andi	r24, 0x7F	; 127
     b82:	99 27       	eor	r25, r25
     b84:	aa 27       	eor	r26, r26
     b86:	bb 27       	eor	r27, r27
     b88:	80 34       	cpi	r24, 0x40	; 64
     b8a:	91 05       	cpc	r25, r1
     b8c:	a1 05       	cpc	r26, r1
     b8e:	b1 05       	cpc	r27, r1
     b90:	39 f4       	brne	.+14     	; 0xba0 <__pack_f+0x12e>
     b92:	47 ff       	sbrs	r20, 7
     b94:	09 c0       	rjmp	.+18     	; 0xba8 <__pack_f+0x136>
     b96:	40 5c       	subi	r20, 0xC0	; 192
     b98:	5f 4f       	sbci	r21, 0xFF	; 255
     b9a:	6f 4f       	sbci	r22, 0xFF	; 255
     b9c:	7f 4f       	sbci	r23, 0xFF	; 255
     b9e:	04 c0       	rjmp	.+8      	; 0xba8 <__pack_f+0x136>
     ba0:	41 5c       	subi	r20, 0xC1	; 193
     ba2:	5f 4f       	sbci	r21, 0xFF	; 255
     ba4:	6f 4f       	sbci	r22, 0xFF	; 255
     ba6:	7f 4f       	sbci	r23, 0xFF	; 255
     ba8:	77 fd       	sbrc	r23, 7
     baa:	04 c0       	rjmp	.+8      	; 0xbb4 <__pack_f+0x142>
     bac:	c9 01       	movw	r24, r18
     bae:	81 58       	subi	r24, 0x81	; 129
     bb0:	9f 4f       	sbci	r25, 0xFF	; 255
     bb2:	07 c0       	rjmp	.+14     	; 0xbc2 <__pack_f+0x150>
     bb4:	76 95       	lsr	r23
     bb6:	67 95       	ror	r22
     bb8:	57 95       	ror	r21
     bba:	47 95       	ror	r20
     bbc:	c9 01       	movw	r24, r18
     bbe:	80 58       	subi	r24, 0x80	; 128
     bc0:	9f 4f       	sbci	r25, 0xFF	; 255
     bc2:	97 e0       	ldi	r25, 0x07	; 7
     bc4:	76 95       	lsr	r23
     bc6:	67 95       	ror	r22
     bc8:	57 95       	ror	r21
     bca:	47 95       	ror	r20
     bcc:	9a 95       	dec	r25
     bce:	d1 f7       	brne	.-12     	; 0xbc4 <__pack_f+0x152>
     bd0:	0b c0       	rjmp	.+22     	; 0xbe8 <__pack_f+0x176>
     bd2:	80 e0       	ldi	r24, 0x00	; 0
     bd4:	90 e0       	ldi	r25, 0x00	; 0
     bd6:	05 c0       	rjmp	.+10     	; 0xbe2 <__pack_f+0x170>
     bd8:	80 e0       	ldi	r24, 0x00	; 0
     bda:	90 e0       	ldi	r25, 0x00	; 0
     bdc:	05 c0       	rjmp	.+10     	; 0xbe8 <__pack_f+0x176>
     bde:	8f ef       	ldi	r24, 0xFF	; 255
     be0:	90 e0       	ldi	r25, 0x00	; 0
     be2:	40 e0       	ldi	r20, 0x00	; 0
     be4:	50 e0       	ldi	r21, 0x00	; 0
     be6:	ba 01       	movw	r22, r20
     be8:	98 2f       	mov	r25, r24
     bea:	96 95       	lsr	r25
     bec:	e0 fb       	bst	r30, 0
     bee:	97 f9       	bld	r25, 7
     bf0:	36 2f       	mov	r19, r22
     bf2:	80 fb       	bst	r24, 0
     bf4:	37 f9       	bld	r19, 7
     bf6:	64 2f       	mov	r22, r20
     bf8:	75 2f       	mov	r23, r21
     bfa:	83 2f       	mov	r24, r19
     bfc:	df 91       	pop	r29
     bfe:	cf 91       	pop	r28
     c00:	1f 91       	pop	r17
     c02:	0f 91       	pop	r16
     c04:	08 95       	ret

00000c06 <__unpack_f>:
     c06:	cf 92       	push	r12
     c08:	df 92       	push	r13
     c0a:	ef 92       	push	r14
     c0c:	dc 01       	movw	r26, r24
     c0e:	fb 01       	movw	r30, r22
     c10:	cc 90       	ld	r12, X
     c12:	11 96       	adiw	r26, 0x01	; 1
     c14:	dc 90       	ld	r13, X
     c16:	11 97       	sbiw	r26, 0x01	; 1
     c18:	12 96       	adiw	r26, 0x02	; 2
     c1a:	8c 91       	ld	r24, X
     c1c:	12 97       	sbiw	r26, 0x02	; 2
     c1e:	3f e7       	ldi	r19, 0x7F	; 127
     c20:	e3 2e       	mov	r14, r19
     c22:	e8 22       	and	r14, r24
     c24:	6e 2d       	mov	r22, r14
     c26:	a6 01       	movw	r20, r12
     c28:	70 e0       	ldi	r23, 0x00	; 0
     c2a:	98 2f       	mov	r25, r24
     c2c:	99 1f       	adc	r25, r25
     c2e:	99 27       	eor	r25, r25
     c30:	99 1f       	adc	r25, r25
     c32:	13 96       	adiw	r26, 0x03	; 3
     c34:	2c 91       	ld	r18, X
     c36:	82 2f       	mov	r24, r18
     c38:	88 0f       	add	r24, r24
     c3a:	89 2b       	or	r24, r25
     c3c:	90 e0       	ldi	r25, 0x00	; 0
     c3e:	27 fb       	bst	r18, 7
     c40:	22 27       	eor	r18, r18
     c42:	20 f9       	bld	r18, 0
     c44:	21 83       	std	Z+1, r18	; 0x01
     c46:	00 97       	sbiw	r24, 0x00	; 0
     c48:	29 f5       	brne	.+74     	; 0xc94 <__unpack_f+0x8e>
     c4a:	41 15       	cp	r20, r1
     c4c:	51 05       	cpc	r21, r1
     c4e:	61 05       	cpc	r22, r1
     c50:	71 05       	cpc	r23, r1
     c52:	11 f4       	brne	.+4      	; 0xc58 <__unpack_f+0x52>
     c54:	82 e0       	ldi	r24, 0x02	; 2
     c56:	27 c0       	rjmp	.+78     	; 0xca6 <__unpack_f+0xa0>
     c58:	82 e8       	ldi	r24, 0x82	; 130
     c5a:	9f ef       	ldi	r25, 0xFF	; 255
     c5c:	82 83       	std	Z+2, r24	; 0x02
     c5e:	93 83       	std	Z+3, r25	; 0x03
     c60:	27 e0       	ldi	r18, 0x07	; 7
     c62:	44 0f       	add	r20, r20
     c64:	55 1f       	adc	r21, r21
     c66:	66 1f       	adc	r22, r22
     c68:	77 1f       	adc	r23, r23
     c6a:	2a 95       	dec	r18
     c6c:	d1 f7       	brne	.-12     	; 0xc62 <__unpack_f+0x5c>
     c6e:	83 e0       	ldi	r24, 0x03	; 3
     c70:	80 83       	st	Z, r24
     c72:	09 c0       	rjmp	.+18     	; 0xc86 <__unpack_f+0x80>
     c74:	44 0f       	add	r20, r20
     c76:	55 1f       	adc	r21, r21
     c78:	66 1f       	adc	r22, r22
     c7a:	77 1f       	adc	r23, r23
     c7c:	82 81       	ldd	r24, Z+2	; 0x02
     c7e:	93 81       	ldd	r25, Z+3	; 0x03
     c80:	01 97       	sbiw	r24, 0x01	; 1
     c82:	82 83       	std	Z+2, r24	; 0x02
     c84:	93 83       	std	Z+3, r25	; 0x03
     c86:	41 15       	cp	r20, r1
     c88:	51 05       	cpc	r21, r1
     c8a:	61 05       	cpc	r22, r1
     c8c:	80 e4       	ldi	r24, 0x40	; 64
     c8e:	78 07       	cpc	r23, r24
     c90:	88 f3       	brcs	.-30     	; 0xc74 <__unpack_f+0x6e>
     c92:	20 c0       	rjmp	.+64     	; 0xcd4 <__unpack_f+0xce>
     c94:	8f 3f       	cpi	r24, 0xFF	; 255
     c96:	91 05       	cpc	r25, r1
     c98:	79 f4       	brne	.+30     	; 0xcb8 <__unpack_f+0xb2>
     c9a:	41 15       	cp	r20, r1
     c9c:	51 05       	cpc	r21, r1
     c9e:	61 05       	cpc	r22, r1
     ca0:	71 05       	cpc	r23, r1
     ca2:	19 f4       	brne	.+6      	; 0xcaa <__unpack_f+0xa4>
     ca4:	84 e0       	ldi	r24, 0x04	; 4
     ca6:	80 83       	st	Z, r24
     ca8:	19 c0       	rjmp	.+50     	; 0xcdc <__unpack_f+0xd6>
     caa:	e4 fe       	sbrs	r14, 4
     cac:	03 c0       	rjmp	.+6      	; 0xcb4 <__unpack_f+0xae>
     cae:	81 e0       	ldi	r24, 0x01	; 1
     cb0:	80 83       	st	Z, r24
     cb2:	10 c0       	rjmp	.+32     	; 0xcd4 <__unpack_f+0xce>
     cb4:	10 82       	st	Z, r1
     cb6:	0e c0       	rjmp	.+28     	; 0xcd4 <__unpack_f+0xce>
     cb8:	8f 57       	subi	r24, 0x7F	; 127
     cba:	91 09       	sbc	r25, r1
     cbc:	82 83       	std	Z+2, r24	; 0x02
     cbe:	93 83       	std	Z+3, r25	; 0x03
     cc0:	83 e0       	ldi	r24, 0x03	; 3
     cc2:	80 83       	st	Z, r24
     cc4:	87 e0       	ldi	r24, 0x07	; 7
     cc6:	44 0f       	add	r20, r20
     cc8:	55 1f       	adc	r21, r21
     cca:	66 1f       	adc	r22, r22
     ccc:	77 1f       	adc	r23, r23
     cce:	8a 95       	dec	r24
     cd0:	d1 f7       	brne	.-12     	; 0xcc6 <__unpack_f+0xc0>
     cd2:	70 64       	ori	r23, 0x40	; 64
     cd4:	44 83       	std	Z+4, r20	; 0x04
     cd6:	55 83       	std	Z+5, r21	; 0x05
     cd8:	66 83       	std	Z+6, r22	; 0x06
     cda:	77 83       	std	Z+7, r23	; 0x07
     cdc:	ef 90       	pop	r14
     cde:	df 90       	pop	r13
     ce0:	cf 90       	pop	r12
     ce2:	08 95       	ret

00000ce4 <_fpadd_parts>:
     ce4:	a4 e0       	ldi	r26, 0x04	; 4
     ce6:	b0 e0       	ldi	r27, 0x00	; 0
     ce8:	e8 e7       	ldi	r30, 0x78	; 120
     cea:	f6 e0       	ldi	r31, 0x06	; 6
     cec:	0c 94 9d 2f 	jmp	0x5f3a	; 0x5f3a <__prologue_saves__+0x4>
     cf0:	7c 01       	movw	r14, r24
     cf2:	6a 01       	movw	r12, r20
     cf4:	fc 01       	movw	r30, r24
     cf6:	80 81       	ld	r24, Z
     cf8:	82 30       	cpi	r24, 0x02	; 2
     cfa:	08 f4       	brcc	.+2      	; 0xcfe <_fpadd_parts+0x1a>
     cfc:	4a c1       	rjmp	.+660    	; 0xf92 <_fpadd_parts+0x2ae>
     cfe:	fb 01       	movw	r30, r22
     d00:	90 81       	ld	r25, Z
     d02:	92 30       	cpi	r25, 0x02	; 2
     d04:	08 f4       	brcc	.+2      	; 0xd08 <_fpadd_parts+0x24>
     d06:	42 c1       	rjmp	.+644    	; 0xf8c <_fpadd_parts+0x2a8>
     d08:	84 30       	cpi	r24, 0x04	; 4
     d0a:	79 f4       	brne	.+30     	; 0xd2a <_fpadd_parts+0x46>
     d0c:	94 30       	cpi	r25, 0x04	; 4
     d0e:	09 f0       	breq	.+2      	; 0xd12 <_fpadd_parts+0x2e>
     d10:	40 c1       	rjmp	.+640    	; 0xf92 <_fpadd_parts+0x2ae>
     d12:	f7 01       	movw	r30, r14
     d14:	91 81       	ldd	r25, Z+1	; 0x01
     d16:	fb 01       	movw	r30, r22
     d18:	81 81       	ldd	r24, Z+1	; 0x01
     d1a:	98 17       	cp	r25, r24
     d1c:	09 f4       	brne	.+2      	; 0xd20 <_fpadd_parts+0x3c>
     d1e:	39 c1       	rjmp	.+626    	; 0xf92 <_fpadd_parts+0x2ae>
     d20:	a3 e1       	ldi	r26, 0x13	; 19
     d22:	ea 2e       	mov	r14, r26
     d24:	a0 e2       	ldi	r26, 0x20	; 32
     d26:	fa 2e       	mov	r15, r26
     d28:	34 c1       	rjmp	.+616    	; 0xf92 <_fpadd_parts+0x2ae>
     d2a:	94 30       	cpi	r25, 0x04	; 4
     d2c:	09 f4       	brne	.+2      	; 0xd30 <_fpadd_parts+0x4c>
     d2e:	2e c1       	rjmp	.+604    	; 0xf8c <_fpadd_parts+0x2a8>
     d30:	92 30       	cpi	r25, 0x02	; 2
     d32:	91 f4       	brne	.+36     	; 0xd58 <_fpadd_parts+0x74>
     d34:	82 30       	cpi	r24, 0x02	; 2
     d36:	09 f0       	breq	.+2      	; 0xd3a <_fpadd_parts+0x56>
     d38:	2c c1       	rjmp	.+600    	; 0xf92 <_fpadd_parts+0x2ae>
     d3a:	88 e0       	ldi	r24, 0x08	; 8
     d3c:	f7 01       	movw	r30, r14
     d3e:	da 01       	movw	r26, r20
     d40:	01 90       	ld	r0, Z+
     d42:	0d 92       	st	X+, r0
     d44:	8a 95       	dec	r24
     d46:	e1 f7       	brne	.-8      	; 0xd40 <_fpadd_parts+0x5c>
     d48:	fb 01       	movw	r30, r22
     d4a:	81 81       	ldd	r24, Z+1	; 0x01
     d4c:	f7 01       	movw	r30, r14
     d4e:	91 81       	ldd	r25, Z+1	; 0x01
     d50:	89 23       	and	r24, r25
     d52:	fa 01       	movw	r30, r20
     d54:	81 83       	std	Z+1, r24	; 0x01
     d56:	1c c1       	rjmp	.+568    	; 0xf90 <_fpadd_parts+0x2ac>
     d58:	82 30       	cpi	r24, 0x02	; 2
     d5a:	09 f4       	brne	.+2      	; 0xd5e <_fpadd_parts+0x7a>
     d5c:	17 c1       	rjmp	.+558    	; 0xf8c <_fpadd_parts+0x2a8>
     d5e:	f7 01       	movw	r30, r14
     d60:	82 81       	ldd	r24, Z+2	; 0x02
     d62:	93 81       	ldd	r25, Z+3	; 0x03
     d64:	fb 01       	movw	r30, r22
     d66:	a2 81       	ldd	r26, Z+2	; 0x02
     d68:	b3 81       	ldd	r27, Z+3	; 0x03
     d6a:	f7 01       	movw	r30, r14
     d6c:	04 81       	ldd	r16, Z+4	; 0x04
     d6e:	15 81       	ldd	r17, Z+5	; 0x05
     d70:	26 81       	ldd	r18, Z+6	; 0x06
     d72:	37 81       	ldd	r19, Z+7	; 0x07
     d74:	fb 01       	movw	r30, r22
     d76:	84 80       	ldd	r8, Z+4	; 0x04
     d78:	95 80       	ldd	r9, Z+5	; 0x05
     d7a:	a6 80       	ldd	r10, Z+6	; 0x06
     d7c:	b7 80       	ldd	r11, Z+7	; 0x07
     d7e:	fc 01       	movw	r30, r24
     d80:	ea 1b       	sub	r30, r26
     d82:	fb 0b       	sbc	r31, r27
     d84:	af 01       	movw	r20, r30
     d86:	f7 ff       	sbrs	r31, 7
     d88:	04 c0       	rjmp	.+8      	; 0xd92 <_fpadd_parts+0xae>
     d8a:	44 27       	eor	r20, r20
     d8c:	55 27       	eor	r21, r21
     d8e:	4e 1b       	sub	r20, r30
     d90:	5f 0b       	sbc	r21, r31
     d92:	40 32       	cpi	r20, 0x20	; 32
     d94:	51 05       	cpc	r21, r1
     d96:	0c f0       	brlt	.+2      	; 0xd9a <_fpadd_parts+0xb6>
     d98:	74 c0       	rjmp	.+232    	; 0xe82 <_fpadd_parts+0x19e>
     d9a:	1e 16       	cp	r1, r30
     d9c:	1f 06       	cpc	r1, r31
     d9e:	b4 f5       	brge	.+108    	; 0xe0c <_fpadd_parts+0x128>
     da0:	24 01       	movw	r4, r8
     da2:	35 01       	movw	r6, r10
     da4:	04 2e       	mov	r0, r20
     da6:	04 c0       	rjmp	.+8      	; 0xdb0 <_fpadd_parts+0xcc>
     da8:	76 94       	lsr	r7
     daa:	67 94       	ror	r6
     dac:	57 94       	ror	r5
     dae:	47 94       	ror	r4
     db0:	0a 94       	dec	r0
     db2:	d2 f7       	brpl	.-12     	; 0xda8 <_fpadd_parts+0xc4>
     db4:	49 82       	std	Y+1, r4	; 0x01
     db6:	5a 82       	std	Y+2, r5	; 0x02
     db8:	6b 82       	std	Y+3, r6	; 0x03
     dba:	7c 82       	std	Y+4, r7	; 0x04
     dbc:	41 2c       	mov	r4, r1
     dbe:	51 2c       	mov	r5, r1
     dc0:	32 01       	movw	r6, r4
     dc2:	43 94       	inc	r4
     dc4:	04 c0       	rjmp	.+8      	; 0xdce <_fpadd_parts+0xea>
     dc6:	44 0c       	add	r4, r4
     dc8:	55 1c       	adc	r5, r5
     dca:	66 1c       	adc	r6, r6
     dcc:	77 1c       	adc	r7, r7
     dce:	4a 95       	dec	r20
     dd0:	d2 f7       	brpl	.-12     	; 0xdc6 <_fpadd_parts+0xe2>
     dd2:	41 e0       	ldi	r20, 0x01	; 1
     dd4:	44 1a       	sub	r4, r20
     dd6:	51 08       	sbc	r5, r1
     dd8:	61 08       	sbc	r6, r1
     dda:	71 08       	sbc	r7, r1
     ddc:	48 20       	and	r4, r8
     dde:	59 20       	and	r5, r9
     de0:	6a 20       	and	r6, r10
     de2:	7b 20       	and	r7, r11
     de4:	81 2c       	mov	r8, r1
     de6:	91 2c       	mov	r9, r1
     de8:	54 01       	movw	r10, r8
     dea:	83 94       	inc	r8
     dec:	45 28       	or	r4, r5
     dee:	46 28       	or	r4, r6
     df0:	47 28       	or	r4, r7
     df2:	19 f4       	brne	.+6      	; 0xdfa <_fpadd_parts+0x116>
     df4:	81 2c       	mov	r8, r1
     df6:	91 2c       	mov	r9, r1
     df8:	54 01       	movw	r10, r8
     dfa:	49 80       	ldd	r4, Y+1	; 0x01
     dfc:	5a 80       	ldd	r5, Y+2	; 0x02
     dfe:	6b 80       	ldd	r6, Y+3	; 0x03
     e00:	7c 80       	ldd	r7, Y+4	; 0x04
     e02:	84 28       	or	r8, r4
     e04:	95 28       	or	r9, r5
     e06:	a6 28       	or	r10, r6
     e08:	b7 28       	or	r11, r7
     e0a:	46 c0       	rjmp	.+140    	; 0xe98 <_fpadd_parts+0x1b4>
     e0c:	ef 2b       	or	r30, r31
     e0e:	09 f4       	brne	.+2      	; 0xe12 <_fpadd_parts+0x12e>
     e10:	43 c0       	rjmp	.+134    	; 0xe98 <_fpadd_parts+0x1b4>
     e12:	84 0f       	add	r24, r20
     e14:	95 1f       	adc	r25, r21
     e16:	28 01       	movw	r4, r16
     e18:	39 01       	movw	r6, r18
     e1a:	04 2e       	mov	r0, r20
     e1c:	04 c0       	rjmp	.+8      	; 0xe26 <_fpadd_parts+0x142>
     e1e:	76 94       	lsr	r7
     e20:	67 94       	ror	r6
     e22:	57 94       	ror	r5
     e24:	47 94       	ror	r4
     e26:	0a 94       	dec	r0
     e28:	d2 f7       	brpl	.-12     	; 0xe1e <_fpadd_parts+0x13a>
     e2a:	49 82       	std	Y+1, r4	; 0x01
     e2c:	5a 82       	std	Y+2, r5	; 0x02
     e2e:	6b 82       	std	Y+3, r6	; 0x03
     e30:	7c 82       	std	Y+4, r7	; 0x04
     e32:	41 2c       	mov	r4, r1
     e34:	51 2c       	mov	r5, r1
     e36:	32 01       	movw	r6, r4
     e38:	43 94       	inc	r4
     e3a:	04 c0       	rjmp	.+8      	; 0xe44 <_fpadd_parts+0x160>
     e3c:	44 0c       	add	r4, r4
     e3e:	55 1c       	adc	r5, r5
     e40:	66 1c       	adc	r6, r6
     e42:	77 1c       	adc	r7, r7
     e44:	4a 95       	dec	r20
     e46:	d2 f7       	brpl	.-12     	; 0xe3c <_fpadd_parts+0x158>
     e48:	41 e0       	ldi	r20, 0x01	; 1
     e4a:	44 1a       	sub	r4, r20
     e4c:	51 08       	sbc	r5, r1
     e4e:	61 08       	sbc	r6, r1
     e50:	71 08       	sbc	r7, r1
     e52:	40 22       	and	r4, r16
     e54:	51 22       	and	r5, r17
     e56:	62 22       	and	r6, r18
     e58:	73 22       	and	r7, r19
     e5a:	01 e0       	ldi	r16, 0x01	; 1
     e5c:	10 e0       	ldi	r17, 0x00	; 0
     e5e:	20 e0       	ldi	r18, 0x00	; 0
     e60:	30 e0       	ldi	r19, 0x00	; 0
     e62:	45 28       	or	r4, r5
     e64:	46 28       	or	r4, r6
     e66:	47 28       	or	r4, r7
     e68:	19 f4       	brne	.+6      	; 0xe70 <_fpadd_parts+0x18c>
     e6a:	00 e0       	ldi	r16, 0x00	; 0
     e6c:	10 e0       	ldi	r17, 0x00	; 0
     e6e:	98 01       	movw	r18, r16
     e70:	49 80       	ldd	r4, Y+1	; 0x01
     e72:	5a 80       	ldd	r5, Y+2	; 0x02
     e74:	6b 80       	ldd	r6, Y+3	; 0x03
     e76:	7c 80       	ldd	r7, Y+4	; 0x04
     e78:	04 29       	or	r16, r4
     e7a:	15 29       	or	r17, r5
     e7c:	26 29       	or	r18, r6
     e7e:	37 29       	or	r19, r7
     e80:	0b c0       	rjmp	.+22     	; 0xe98 <_fpadd_parts+0x1b4>
     e82:	a8 17       	cp	r26, r24
     e84:	b9 07       	cpc	r27, r25
     e86:	24 f4       	brge	.+8      	; 0xe90 <_fpadd_parts+0x1ac>
     e88:	81 2c       	mov	r8, r1
     e8a:	91 2c       	mov	r9, r1
     e8c:	54 01       	movw	r10, r8
     e8e:	04 c0       	rjmp	.+8      	; 0xe98 <_fpadd_parts+0x1b4>
     e90:	cd 01       	movw	r24, r26
     e92:	00 e0       	ldi	r16, 0x00	; 0
     e94:	10 e0       	ldi	r17, 0x00	; 0
     e96:	98 01       	movw	r18, r16
     e98:	f7 01       	movw	r30, r14
     e9a:	41 81       	ldd	r20, Z+1	; 0x01
     e9c:	fb 01       	movw	r30, r22
     e9e:	51 81       	ldd	r21, Z+1	; 0x01
     ea0:	45 17       	cp	r20, r21
     ea2:	09 f4       	brne	.+2      	; 0xea6 <_fpadd_parts+0x1c2>
     ea4:	46 c0       	rjmp	.+140    	; 0xf32 <_fpadd_parts+0x24e>
     ea6:	44 23       	and	r20, r20
     ea8:	49 f0       	breq	.+18     	; 0xebc <_fpadd_parts+0x1d8>
     eaa:	24 01       	movw	r4, r8
     eac:	35 01       	movw	r6, r10
     eae:	40 1a       	sub	r4, r16
     eb0:	51 0a       	sbc	r5, r17
     eb2:	62 0a       	sbc	r6, r18
     eb4:	73 0a       	sbc	r7, r19
     eb6:	93 01       	movw	r18, r6
     eb8:	82 01       	movw	r16, r4
     eba:	04 c0       	rjmp	.+8      	; 0xec4 <_fpadd_parts+0x1e0>
     ebc:	08 19       	sub	r16, r8
     ebe:	19 09       	sbc	r17, r9
     ec0:	2a 09       	sbc	r18, r10
     ec2:	3b 09       	sbc	r19, r11
     ec4:	37 fd       	sbrc	r19, 7
     ec6:	05 c0       	rjmp	.+10     	; 0xed2 <_fpadd_parts+0x1ee>
     ec8:	f6 01       	movw	r30, r12
     eca:	11 82       	std	Z+1, r1	; 0x01
     ecc:	82 83       	std	Z+2, r24	; 0x02
     ece:	93 83       	std	Z+3, r25	; 0x03
     ed0:	0c c0       	rjmp	.+24     	; 0xeea <_fpadd_parts+0x206>
     ed2:	41 e0       	ldi	r20, 0x01	; 1
     ed4:	f6 01       	movw	r30, r12
     ed6:	41 83       	std	Z+1, r20	; 0x01
     ed8:	82 83       	std	Z+2, r24	; 0x02
     eda:	93 83       	std	Z+3, r25	; 0x03
     edc:	30 95       	com	r19
     ede:	20 95       	com	r18
     ee0:	10 95       	com	r17
     ee2:	01 95       	neg	r16
     ee4:	1f 4f       	sbci	r17, 0xFF	; 255
     ee6:	2f 4f       	sbci	r18, 0xFF	; 255
     ee8:	3f 4f       	sbci	r19, 0xFF	; 255
     eea:	04 83       	std	Z+4, r16	; 0x04
     eec:	15 83       	std	Z+5, r17	; 0x05
     eee:	26 83       	std	Z+6, r18	; 0x06
     ef0:	37 83       	std	Z+7, r19	; 0x07
     ef2:	0e c0       	rjmp	.+28     	; 0xf10 <_fpadd_parts+0x22c>
     ef4:	88 0f       	add	r24, r24
     ef6:	99 1f       	adc	r25, r25
     ef8:	aa 1f       	adc	r26, r26
     efa:	bb 1f       	adc	r27, r27
     efc:	f6 01       	movw	r30, r12
     efe:	84 83       	std	Z+4, r24	; 0x04
     f00:	95 83       	std	Z+5, r25	; 0x05
     f02:	a6 83       	std	Z+6, r26	; 0x06
     f04:	b7 83       	std	Z+7, r27	; 0x07
     f06:	82 81       	ldd	r24, Z+2	; 0x02
     f08:	93 81       	ldd	r25, Z+3	; 0x03
     f0a:	01 97       	sbiw	r24, 0x01	; 1
     f0c:	82 83       	std	Z+2, r24	; 0x02
     f0e:	93 83       	std	Z+3, r25	; 0x03
     f10:	f6 01       	movw	r30, r12
     f12:	84 81       	ldd	r24, Z+4	; 0x04
     f14:	95 81       	ldd	r25, Z+5	; 0x05
     f16:	a6 81       	ldd	r26, Z+6	; 0x06
     f18:	b7 81       	ldd	r27, Z+7	; 0x07
     f1a:	ac 01       	movw	r20, r24
     f1c:	bd 01       	movw	r22, r26
     f1e:	41 50       	subi	r20, 0x01	; 1
     f20:	51 09       	sbc	r21, r1
     f22:	61 09       	sbc	r22, r1
     f24:	71 09       	sbc	r23, r1
     f26:	4f 3f       	cpi	r20, 0xFF	; 255
     f28:	5f 4f       	sbci	r21, 0xFF	; 255
     f2a:	6f 4f       	sbci	r22, 0xFF	; 255
     f2c:	7f 43       	sbci	r23, 0x3F	; 63
     f2e:	10 f3       	brcs	.-60     	; 0xef4 <_fpadd_parts+0x210>
     f30:	0c c0       	rjmp	.+24     	; 0xf4a <_fpadd_parts+0x266>
     f32:	f6 01       	movw	r30, r12
     f34:	41 83       	std	Z+1, r20	; 0x01
     f36:	82 83       	std	Z+2, r24	; 0x02
     f38:	93 83       	std	Z+3, r25	; 0x03
     f3a:	08 0d       	add	r16, r8
     f3c:	19 1d       	adc	r17, r9
     f3e:	2a 1d       	adc	r18, r10
     f40:	3b 1d       	adc	r19, r11
     f42:	04 83       	std	Z+4, r16	; 0x04
     f44:	15 83       	std	Z+5, r17	; 0x05
     f46:	26 83       	std	Z+6, r18	; 0x06
     f48:	37 83       	std	Z+7, r19	; 0x07
     f4a:	83 e0       	ldi	r24, 0x03	; 3
     f4c:	f6 01       	movw	r30, r12
     f4e:	80 83       	st	Z, r24
     f50:	44 81       	ldd	r20, Z+4	; 0x04
     f52:	55 81       	ldd	r21, Z+5	; 0x05
     f54:	66 81       	ldd	r22, Z+6	; 0x06
     f56:	77 81       	ldd	r23, Z+7	; 0x07
     f58:	77 ff       	sbrs	r23, 7
     f5a:	1a c0       	rjmp	.+52     	; 0xf90 <_fpadd_parts+0x2ac>
     f5c:	db 01       	movw	r26, r22
     f5e:	ca 01       	movw	r24, r20
     f60:	81 70       	andi	r24, 0x01	; 1
     f62:	99 27       	eor	r25, r25
     f64:	aa 27       	eor	r26, r26
     f66:	bb 27       	eor	r27, r27
     f68:	76 95       	lsr	r23
     f6a:	67 95       	ror	r22
     f6c:	57 95       	ror	r21
     f6e:	47 95       	ror	r20
     f70:	84 2b       	or	r24, r20
     f72:	95 2b       	or	r25, r21
     f74:	a6 2b       	or	r26, r22
     f76:	b7 2b       	or	r27, r23
     f78:	84 83       	std	Z+4, r24	; 0x04
     f7a:	95 83       	std	Z+5, r25	; 0x05
     f7c:	a6 83       	std	Z+6, r26	; 0x06
     f7e:	b7 83       	std	Z+7, r27	; 0x07
     f80:	82 81       	ldd	r24, Z+2	; 0x02
     f82:	93 81       	ldd	r25, Z+3	; 0x03
     f84:	01 96       	adiw	r24, 0x01	; 1
     f86:	82 83       	std	Z+2, r24	; 0x02
     f88:	93 83       	std	Z+3, r25	; 0x03
     f8a:	02 c0       	rjmp	.+4      	; 0xf90 <_fpadd_parts+0x2ac>
     f8c:	7b 01       	movw	r14, r22
     f8e:	01 c0       	rjmp	.+2      	; 0xf92 <_fpadd_parts+0x2ae>
     f90:	76 01       	movw	r14, r12
     f92:	c7 01       	movw	r24, r14
     f94:	24 96       	adiw	r28, 0x04	; 4
     f96:	e0 e1       	ldi	r30, 0x10	; 16
     f98:	0c 94 b6 2f 	jmp	0x5f6c	; 0x5f6c <__epilogue_restores__+0x4>

00000f9c <__addsf3>:
     f9c:	a0 e2       	ldi	r26, 0x20	; 32
     f9e:	b0 e0       	ldi	r27, 0x00	; 0
     fa0:	e4 ed       	ldi	r30, 0xD4	; 212
     fa2:	f7 e0       	ldi	r31, 0x07	; 7
     fa4:	0c 94 ab 2f 	jmp	0x5f56	; 0x5f56 <__prologue_saves__+0x20>
     fa8:	6d 8f       	std	Y+29, r22	; 0x1d
     faa:	7e 8f       	std	Y+30, r23	; 0x1e
     fac:	8f 8f       	std	Y+31, r24	; 0x1f
     fae:	98 a3       	std	Y+32, r25	; 0x20
     fb0:	29 8f       	std	Y+25, r18	; 0x19
     fb2:	3a 8f       	std	Y+26, r19	; 0x1a
     fb4:	4b 8f       	std	Y+27, r20	; 0x1b
     fb6:	5c 8f       	std	Y+28, r21	; 0x1c
     fb8:	be 01       	movw	r22, r28
     fba:	6f 5e       	subi	r22, 0xEF	; 239
     fbc:	7f 4f       	sbci	r23, 0xFF	; 255
     fbe:	ce 01       	movw	r24, r28
     fc0:	4d 96       	adiw	r24, 0x1d	; 29
     fc2:	21 de       	rcall	.-958    	; 0xc06 <__unpack_f>
     fc4:	be 01       	movw	r22, r28
     fc6:	67 5f       	subi	r22, 0xF7	; 247
     fc8:	7f 4f       	sbci	r23, 0xFF	; 255
     fca:	ce 01       	movw	r24, r28
     fcc:	49 96       	adiw	r24, 0x19	; 25
     fce:	1b de       	rcall	.-970    	; 0xc06 <__unpack_f>
     fd0:	ae 01       	movw	r20, r28
     fd2:	4f 5f       	subi	r20, 0xFF	; 255
     fd4:	5f 4f       	sbci	r21, 0xFF	; 255
     fd6:	be 01       	movw	r22, r28
     fd8:	67 5f       	subi	r22, 0xF7	; 247
     fda:	7f 4f       	sbci	r23, 0xFF	; 255
     fdc:	ce 01       	movw	r24, r28
     fde:	41 96       	adiw	r24, 0x11	; 17
     fe0:	81 de       	rcall	.-766    	; 0xce4 <_fpadd_parts>
     fe2:	47 dd       	rcall	.-1394   	; 0xa72 <__pack_f>
     fe4:	a0 96       	adiw	r28, 0x20	; 32
     fe6:	e2 e0       	ldi	r30, 0x02	; 2
     fe8:	0c 94 c4 2f 	jmp	0x5f88	; 0x5f88 <__epilogue_restores__+0x20>

00000fec <__subsf3>:
     fec:	a0 e2       	ldi	r26, 0x20	; 32
     fee:	b0 e0       	ldi	r27, 0x00	; 0
     ff0:	ec ef       	ldi	r30, 0xFC	; 252
     ff2:	f7 e0       	ldi	r31, 0x07	; 7
     ff4:	0c 94 ab 2f 	jmp	0x5f56	; 0x5f56 <__prologue_saves__+0x20>
     ff8:	6d 8f       	std	Y+29, r22	; 0x1d
     ffa:	7e 8f       	std	Y+30, r23	; 0x1e
     ffc:	8f 8f       	std	Y+31, r24	; 0x1f
     ffe:	98 a3       	std	Y+32, r25	; 0x20
    1000:	29 8f       	std	Y+25, r18	; 0x19
    1002:	3a 8f       	std	Y+26, r19	; 0x1a
    1004:	4b 8f       	std	Y+27, r20	; 0x1b
    1006:	5c 8f       	std	Y+28, r21	; 0x1c
    1008:	be 01       	movw	r22, r28
    100a:	6f 5e       	subi	r22, 0xEF	; 239
    100c:	7f 4f       	sbci	r23, 0xFF	; 255
    100e:	ce 01       	movw	r24, r28
    1010:	4d 96       	adiw	r24, 0x1d	; 29
    1012:	f9 dd       	rcall	.-1038   	; 0xc06 <__unpack_f>
    1014:	be 01       	movw	r22, r28
    1016:	67 5f       	subi	r22, 0xF7	; 247
    1018:	7f 4f       	sbci	r23, 0xFF	; 255
    101a:	ce 01       	movw	r24, r28
    101c:	49 96       	adiw	r24, 0x19	; 25
    101e:	f3 dd       	rcall	.-1050   	; 0xc06 <__unpack_f>
    1020:	8a 85       	ldd	r24, Y+10	; 0x0a
    1022:	91 e0       	ldi	r25, 0x01	; 1
    1024:	89 27       	eor	r24, r25
    1026:	8a 87       	std	Y+10, r24	; 0x0a
    1028:	ae 01       	movw	r20, r28
    102a:	4f 5f       	subi	r20, 0xFF	; 255
    102c:	5f 4f       	sbci	r21, 0xFF	; 255
    102e:	be 01       	movw	r22, r28
    1030:	67 5f       	subi	r22, 0xF7	; 247
    1032:	7f 4f       	sbci	r23, 0xFF	; 255
    1034:	ce 01       	movw	r24, r28
    1036:	41 96       	adiw	r24, 0x11	; 17
    1038:	55 de       	rcall	.-854    	; 0xce4 <_fpadd_parts>
    103a:	1b dd       	rcall	.-1482   	; 0xa72 <__pack_f>
    103c:	a0 96       	adiw	r28, 0x20	; 32
    103e:	e2 e0       	ldi	r30, 0x02	; 2
    1040:	0c 94 c4 2f 	jmp	0x5f88	; 0x5f88 <__epilogue_restores__+0x20>

00001044 <__fpcmp_parts_f>:
    1044:	cf 93       	push	r28
    1046:	fc 01       	movw	r30, r24
    1048:	db 01       	movw	r26, r22
    104a:	90 81       	ld	r25, Z
    104c:	92 30       	cpi	r25, 0x02	; 2
    104e:	08 f4       	brcc	.+2      	; 0x1052 <__fpcmp_parts_f+0xe>
    1050:	52 c0       	rjmp	.+164    	; 0x10f6 <__fpcmp_parts_f+0xb2>
    1052:	8c 91       	ld	r24, X
    1054:	82 30       	cpi	r24, 0x02	; 2
    1056:	08 f4       	brcc	.+2      	; 0x105a <__fpcmp_parts_f+0x16>
    1058:	4e c0       	rjmp	.+156    	; 0x10f6 <__fpcmp_parts_f+0xb2>
    105a:	94 30       	cpi	r25, 0x04	; 4
    105c:	71 f4       	brne	.+28     	; 0x107a <__fpcmp_parts_f+0x36>
    105e:	84 30       	cpi	r24, 0x04	; 4
    1060:	39 f4       	brne	.+14     	; 0x1070 <__fpcmp_parts_f+0x2c>
    1062:	11 96       	adiw	r26, 0x01	; 1
    1064:	2c 91       	ld	r18, X
    1066:	30 e0       	ldi	r19, 0x00	; 0
    1068:	81 81       	ldd	r24, Z+1	; 0x01
    106a:	28 1b       	sub	r18, r24
    106c:	31 09       	sbc	r19, r1
    106e:	48 c0       	rjmp	.+144    	; 0x1100 <__fpcmp_parts_f+0xbc>
    1070:	81 81       	ldd	r24, Z+1	; 0x01
    1072:	88 23       	and	r24, r24
    1074:	09 f4       	brne	.+2      	; 0x1078 <__fpcmp_parts_f+0x34>
    1076:	3f c0       	rjmp	.+126    	; 0x10f6 <__fpcmp_parts_f+0xb2>
    1078:	3b c0       	rjmp	.+118    	; 0x10f0 <__fpcmp_parts_f+0xac>
    107a:	84 30       	cpi	r24, 0x04	; 4
    107c:	29 f4       	brne	.+10     	; 0x1088 <__fpcmp_parts_f+0x44>
    107e:	11 96       	adiw	r26, 0x01	; 1
    1080:	8c 91       	ld	r24, X
    1082:	81 11       	cpse	r24, r1
    1084:	38 c0       	rjmp	.+112    	; 0x10f6 <__fpcmp_parts_f+0xb2>
    1086:	34 c0       	rjmp	.+104    	; 0x10f0 <__fpcmp_parts_f+0xac>
    1088:	92 30       	cpi	r25, 0x02	; 2
    108a:	19 f4       	brne	.+6      	; 0x1092 <__fpcmp_parts_f+0x4e>
    108c:	82 30       	cpi	r24, 0x02	; 2
    108e:	b9 f7       	brne	.-18     	; 0x107e <__fpcmp_parts_f+0x3a>
    1090:	35 c0       	rjmp	.+106    	; 0x10fc <__fpcmp_parts_f+0xb8>
    1092:	82 30       	cpi	r24, 0x02	; 2
    1094:	69 f3       	breq	.-38     	; 0x1070 <__fpcmp_parts_f+0x2c>
    1096:	c1 81       	ldd	r28, Z+1	; 0x01
    1098:	11 96       	adiw	r26, 0x01	; 1
    109a:	8c 91       	ld	r24, X
    109c:	11 97       	sbiw	r26, 0x01	; 1
    109e:	c8 13       	cpse	r28, r24
    10a0:	1d c0       	rjmp	.+58     	; 0x10dc <__fpcmp_parts_f+0x98>
    10a2:	22 81       	ldd	r18, Z+2	; 0x02
    10a4:	33 81       	ldd	r19, Z+3	; 0x03
    10a6:	12 96       	adiw	r26, 0x02	; 2
    10a8:	8d 91       	ld	r24, X+
    10aa:	9c 91       	ld	r25, X
    10ac:	13 97       	sbiw	r26, 0x03	; 3
    10ae:	82 17       	cp	r24, r18
    10b0:	93 07       	cpc	r25, r19
    10b2:	0c f4       	brge	.+2      	; 0x10b6 <__fpcmp_parts_f+0x72>
    10b4:	13 c0       	rjmp	.+38     	; 0x10dc <__fpcmp_parts_f+0x98>
    10b6:	28 17       	cp	r18, r24
    10b8:	39 07       	cpc	r19, r25
    10ba:	0c f4       	brge	.+2      	; 0x10be <__fpcmp_parts_f+0x7a>
    10bc:	17 c0       	rjmp	.+46     	; 0x10ec <__fpcmp_parts_f+0xa8>
    10be:	44 81       	ldd	r20, Z+4	; 0x04
    10c0:	55 81       	ldd	r21, Z+5	; 0x05
    10c2:	66 81       	ldd	r22, Z+6	; 0x06
    10c4:	77 81       	ldd	r23, Z+7	; 0x07
    10c6:	14 96       	adiw	r26, 0x04	; 4
    10c8:	8d 91       	ld	r24, X+
    10ca:	9d 91       	ld	r25, X+
    10cc:	0d 90       	ld	r0, X+
    10ce:	bc 91       	ld	r27, X
    10d0:	a0 2d       	mov	r26, r0
    10d2:	84 17       	cp	r24, r20
    10d4:	95 07       	cpc	r25, r21
    10d6:	a6 07       	cpc	r26, r22
    10d8:	b7 07       	cpc	r27, r23
    10da:	18 f4       	brcc	.+6      	; 0x10e2 <__fpcmp_parts_f+0x9e>
    10dc:	c1 11       	cpse	r28, r1
    10de:	08 c0       	rjmp	.+16     	; 0x10f0 <__fpcmp_parts_f+0xac>
    10e0:	0a c0       	rjmp	.+20     	; 0x10f6 <__fpcmp_parts_f+0xb2>
    10e2:	48 17       	cp	r20, r24
    10e4:	59 07       	cpc	r21, r25
    10e6:	6a 07       	cpc	r22, r26
    10e8:	7b 07       	cpc	r23, r27
    10ea:	40 f4       	brcc	.+16     	; 0x10fc <__fpcmp_parts_f+0xb8>
    10ec:	c1 11       	cpse	r28, r1
    10ee:	03 c0       	rjmp	.+6      	; 0x10f6 <__fpcmp_parts_f+0xb2>
    10f0:	2f ef       	ldi	r18, 0xFF	; 255
    10f2:	3f ef       	ldi	r19, 0xFF	; 255
    10f4:	05 c0       	rjmp	.+10     	; 0x1100 <__fpcmp_parts_f+0xbc>
    10f6:	21 e0       	ldi	r18, 0x01	; 1
    10f8:	30 e0       	ldi	r19, 0x00	; 0
    10fa:	02 c0       	rjmp	.+4      	; 0x1100 <__fpcmp_parts_f+0xbc>
    10fc:	20 e0       	ldi	r18, 0x00	; 0
    10fe:	30 e0       	ldi	r19, 0x00	; 0
    1100:	c9 01       	movw	r24, r18
    1102:	cf 91       	pop	r28
    1104:	08 95       	ret

00001106 <__fixsfsi>:
    1106:	ac e0       	ldi	r26, 0x0C	; 12
    1108:	b0 e0       	ldi	r27, 0x00	; 0
    110a:	e9 e8       	ldi	r30, 0x89	; 137
    110c:	f8 e0       	ldi	r31, 0x08	; 8
    110e:	0c 94 a9 2f 	jmp	0x5f52	; 0x5f52 <__prologue_saves__+0x1c>
    1112:	69 87       	std	Y+9, r22	; 0x09
    1114:	7a 87       	std	Y+10, r23	; 0x0a
    1116:	8b 87       	std	Y+11, r24	; 0x0b
    1118:	9c 87       	std	Y+12, r25	; 0x0c
    111a:	be 01       	movw	r22, r28
    111c:	6f 5f       	subi	r22, 0xFF	; 255
    111e:	7f 4f       	sbci	r23, 0xFF	; 255
    1120:	ce 01       	movw	r24, r28
    1122:	09 96       	adiw	r24, 0x09	; 9
    1124:	70 dd       	rcall	.-1312   	; 0xc06 <__unpack_f>
    1126:	89 81       	ldd	r24, Y+1	; 0x01
    1128:	82 30       	cpi	r24, 0x02	; 2
    112a:	91 f1       	breq	.+100    	; 0x1190 <__fixsfsi+0x8a>
    112c:	82 30       	cpi	r24, 0x02	; 2
    112e:	80 f1       	brcs	.+96     	; 0x1190 <__fixsfsi+0x8a>
    1130:	84 30       	cpi	r24, 0x04	; 4
    1132:	41 f4       	brne	.+16     	; 0x1144 <__fixsfsi+0x3e>
    1134:	8a 81       	ldd	r24, Y+2	; 0x02
    1136:	88 23       	and	r24, r24
    1138:	31 f1       	breq	.+76     	; 0x1186 <__fixsfsi+0x80>
    113a:	00 e0       	ldi	r16, 0x00	; 0
    113c:	10 e0       	ldi	r17, 0x00	; 0
    113e:	20 e0       	ldi	r18, 0x00	; 0
    1140:	30 e8       	ldi	r19, 0x80	; 128
    1142:	29 c0       	rjmp	.+82     	; 0x1196 <__fixsfsi+0x90>
    1144:	2b 81       	ldd	r18, Y+3	; 0x03
    1146:	3c 81       	ldd	r19, Y+4	; 0x04
    1148:	37 fd       	sbrc	r19, 7
    114a:	22 c0       	rjmp	.+68     	; 0x1190 <__fixsfsi+0x8a>
    114c:	2f 31       	cpi	r18, 0x1F	; 31
    114e:	31 05       	cpc	r19, r1
    1150:	8c f7       	brge	.-30     	; 0x1134 <__fixsfsi+0x2e>
    1152:	8e e1       	ldi	r24, 0x1E	; 30
    1154:	90 e0       	ldi	r25, 0x00	; 0
    1156:	82 1b       	sub	r24, r18
    1158:	93 0b       	sbc	r25, r19
    115a:	0d 81       	ldd	r16, Y+5	; 0x05
    115c:	1e 81       	ldd	r17, Y+6	; 0x06
    115e:	2f 81       	ldd	r18, Y+7	; 0x07
    1160:	38 85       	ldd	r19, Y+8	; 0x08
    1162:	04 c0       	rjmp	.+8      	; 0x116c <__fixsfsi+0x66>
    1164:	36 95       	lsr	r19
    1166:	27 95       	ror	r18
    1168:	17 95       	ror	r17
    116a:	07 95       	ror	r16
    116c:	8a 95       	dec	r24
    116e:	d2 f7       	brpl	.-12     	; 0x1164 <__fixsfsi+0x5e>
    1170:	8a 81       	ldd	r24, Y+2	; 0x02
    1172:	88 23       	and	r24, r24
    1174:	81 f0       	breq	.+32     	; 0x1196 <__fixsfsi+0x90>
    1176:	30 95       	com	r19
    1178:	20 95       	com	r18
    117a:	10 95       	com	r17
    117c:	01 95       	neg	r16
    117e:	1f 4f       	sbci	r17, 0xFF	; 255
    1180:	2f 4f       	sbci	r18, 0xFF	; 255
    1182:	3f 4f       	sbci	r19, 0xFF	; 255
    1184:	08 c0       	rjmp	.+16     	; 0x1196 <__fixsfsi+0x90>
    1186:	0f ef       	ldi	r16, 0xFF	; 255
    1188:	1f ef       	ldi	r17, 0xFF	; 255
    118a:	2f ef       	ldi	r18, 0xFF	; 255
    118c:	3f e7       	ldi	r19, 0x7F	; 127
    118e:	03 c0       	rjmp	.+6      	; 0x1196 <__fixsfsi+0x90>
    1190:	00 e0       	ldi	r16, 0x00	; 0
    1192:	10 e0       	ldi	r17, 0x00	; 0
    1194:	98 01       	movw	r18, r16
    1196:	b8 01       	movw	r22, r16
    1198:	c9 01       	movw	r24, r18
    119a:	2c 96       	adiw	r28, 0x0c	; 12
    119c:	e4 e0       	ldi	r30, 0x04	; 4
    119e:	0c 94 c2 2f 	jmp	0x5f84	; 0x5f84 <__epilogue_restores__+0x1c>

000011a2 <cpu_irq_save>:
    11a2:	cf 93       	push	r28
    11a4:	df 93       	push	r29
    11a6:	1f 92       	push	r1
    11a8:	cd b7       	in	r28, 0x3d	; 61
    11aa:	de b7       	in	r29, 0x3e	; 62
    11ac:	8f e3       	ldi	r24, 0x3F	; 63
    11ae:	90 e0       	ldi	r25, 0x00	; 0
    11b0:	fc 01       	movw	r30, r24
    11b2:	80 81       	ld	r24, Z
    11b4:	89 83       	std	Y+1, r24	; 0x01
    11b6:	f8 94       	cli
    11b8:	89 81       	ldd	r24, Y+1	; 0x01
    11ba:	0f 90       	pop	r0
    11bc:	df 91       	pop	r29
    11be:	cf 91       	pop	r28
    11c0:	08 95       	ret

000011c2 <cpu_irq_restore>:
    11c2:	cf 93       	push	r28
    11c4:	df 93       	push	r29
    11c6:	1f 92       	push	r1
    11c8:	cd b7       	in	r28, 0x3d	; 61
    11ca:	de b7       	in	r29, 0x3e	; 62
    11cc:	89 83       	std	Y+1, r24	; 0x01
    11ce:	8f e3       	ldi	r24, 0x3F	; 63
    11d0:	90 e0       	ldi	r25, 0x00	; 0
    11d2:	29 81       	ldd	r18, Y+1	; 0x01
    11d4:	fc 01       	movw	r30, r24
    11d6:	20 83       	st	Z, r18
    11d8:	0f 90       	pop	r0
    11da:	df 91       	pop	r29
    11dc:	cf 91       	pop	r28
    11de:	08 95       	ret

000011e0 <sysclk_enable_module>:
    11e0:	cf 93       	push	r28
    11e2:	df 93       	push	r29
    11e4:	00 d0       	rcall	.+0      	; 0x11e6 <sysclk_enable_module+0x6>
    11e6:	00 d0       	rcall	.+0      	; 0x11e8 <sysclk_enable_module+0x8>
    11e8:	cd b7       	in	r28, 0x3d	; 61
    11ea:	de b7       	in	r29, 0x3e	; 62
    11ec:	8a 83       	std	Y+2, r24	; 0x02
    11ee:	9b 83       	std	Y+3, r25	; 0x03
    11f0:	6c 83       	std	Y+4, r22	; 0x04
    11f2:	d7 df       	rcall	.-82     	; 0x11a2 <cpu_irq_save>
    11f4:	89 83       	std	Y+1, r24	; 0x01
    11f6:	8a 81       	ldd	r24, Y+2	; 0x02
    11f8:	9b 81       	ldd	r25, Y+3	; 0x03
    11fa:	80 59       	subi	r24, 0x90	; 144
    11fc:	9f 4f       	sbci	r25, 0xFF	; 255
    11fe:	2a 81       	ldd	r18, Y+2	; 0x02
    1200:	3b 81       	ldd	r19, Y+3	; 0x03
    1202:	20 59       	subi	r18, 0x90	; 144
    1204:	3f 4f       	sbci	r19, 0xFF	; 255
    1206:	f9 01       	movw	r30, r18
    1208:	20 81       	ld	r18, Z
    120a:	32 2f       	mov	r19, r18
    120c:	2c 81       	ldd	r18, Y+4	; 0x04
    120e:	20 95       	com	r18
    1210:	23 23       	and	r18, r19
    1212:	fc 01       	movw	r30, r24
    1214:	20 83       	st	Z, r18
    1216:	89 81       	ldd	r24, Y+1	; 0x01
    1218:	d4 df       	rcall	.-88     	; 0x11c2 <cpu_irq_restore>
    121a:	24 96       	adiw	r28, 0x04	; 4
    121c:	cd bf       	out	0x3d, r28	; 61
    121e:	de bf       	out	0x3e, r29	; 62
    1220:	df 91       	pop	r29
    1222:	cf 91       	pop	r28
    1224:	08 95       	ret

00001226 <ioport_configure_port_pin>:
    1226:	cf 93       	push	r28
    1228:	df 93       	push	r29
    122a:	cd b7       	in	r28, 0x3d	; 61
    122c:	de b7       	in	r29, 0x3e	; 62
    122e:	26 97       	sbiw	r28, 0x06	; 6
    1230:	cd bf       	out	0x3d, r28	; 61
    1232:	de bf       	out	0x3e, r29	; 62
    1234:	8a 83       	std	Y+2, r24	; 0x02
    1236:	9b 83       	std	Y+3, r25	; 0x03
    1238:	6c 83       	std	Y+4, r22	; 0x04
    123a:	4d 83       	std	Y+5, r20	; 0x05
    123c:	5e 83       	std	Y+6, r21	; 0x06
    123e:	19 82       	std	Y+1, r1	; 0x01
    1240:	21 c0       	rjmp	.+66     	; 0x1284 <ioport_configure_port_pin+0x5e>
    1242:	8c 81       	ldd	r24, Y+4	; 0x04
    1244:	88 2f       	mov	r24, r24
    1246:	90 e0       	ldi	r25, 0x00	; 0
    1248:	29 81       	ldd	r18, Y+1	; 0x01
    124a:	22 2f       	mov	r18, r18
    124c:	30 e0       	ldi	r19, 0x00	; 0
    124e:	02 2e       	mov	r0, r18
    1250:	02 c0       	rjmp	.+4      	; 0x1256 <ioport_configure_port_pin+0x30>
    1252:	95 95       	asr	r25
    1254:	87 95       	ror	r24
    1256:	0a 94       	dec	r0
    1258:	e2 f7       	brpl	.-8      	; 0x1252 <ioport_configure_port_pin+0x2c>
    125a:	81 70       	andi	r24, 0x01	; 1
    125c:	99 27       	eor	r25, r25
    125e:	00 97       	sbiw	r24, 0x00	; 0
    1260:	71 f0       	breq	.+28     	; 0x127e <ioport_configure_port_pin+0x58>
    1262:	89 81       	ldd	r24, Y+1	; 0x01
    1264:	88 2f       	mov	r24, r24
    1266:	90 e0       	ldi	r25, 0x00	; 0
    1268:	40 96       	adiw	r24, 0x10	; 16
    126a:	2a 81       	ldd	r18, Y+2	; 0x02
    126c:	3b 81       	ldd	r19, Y+3	; 0x03
    126e:	82 0f       	add	r24, r18
    1270:	93 1f       	adc	r25, r19
    1272:	2d 81       	ldd	r18, Y+5	; 0x05
    1274:	3e 81       	ldd	r19, Y+6	; 0x06
    1276:	23 2f       	mov	r18, r19
    1278:	33 27       	eor	r19, r19
    127a:	fc 01       	movw	r30, r24
    127c:	20 83       	st	Z, r18
    127e:	89 81       	ldd	r24, Y+1	; 0x01
    1280:	8f 5f       	subi	r24, 0xFF	; 255
    1282:	89 83       	std	Y+1, r24	; 0x01
    1284:	89 81       	ldd	r24, Y+1	; 0x01
    1286:	88 30       	cpi	r24, 0x08	; 8
    1288:	e0 f2       	brcs	.-72     	; 0x1242 <ioport_configure_port_pin+0x1c>
    128a:	8d 81       	ldd	r24, Y+5	; 0x05
    128c:	9e 81       	ldd	r25, Y+6	; 0x06
    128e:	81 70       	andi	r24, 0x01	; 1
    1290:	99 27       	eor	r25, r25
    1292:	00 97       	sbiw	r24, 0x00	; 0
    1294:	d1 f0       	breq	.+52     	; 0x12ca <ioport_configure_port_pin+0xa4>
    1296:	8d 81       	ldd	r24, Y+5	; 0x05
    1298:	9e 81       	ldd	r25, Y+6	; 0x06
    129a:	82 70       	andi	r24, 0x02	; 2
    129c:	99 27       	eor	r25, r25
    129e:	00 97       	sbiw	r24, 0x00	; 0
    12a0:	39 f0       	breq	.+14     	; 0x12b0 <ioport_configure_port_pin+0x8a>
    12a2:	8a 81       	ldd	r24, Y+2	; 0x02
    12a4:	9b 81       	ldd	r25, Y+3	; 0x03
    12a6:	05 96       	adiw	r24, 0x05	; 5
    12a8:	2c 81       	ldd	r18, Y+4	; 0x04
    12aa:	fc 01       	movw	r30, r24
    12ac:	20 83       	st	Z, r18
    12ae:	06 c0       	rjmp	.+12     	; 0x12bc <ioport_configure_port_pin+0x96>
    12b0:	8a 81       	ldd	r24, Y+2	; 0x02
    12b2:	9b 81       	ldd	r25, Y+3	; 0x03
    12b4:	06 96       	adiw	r24, 0x06	; 6
    12b6:	2c 81       	ldd	r18, Y+4	; 0x04
    12b8:	fc 01       	movw	r30, r24
    12ba:	20 83       	st	Z, r18
    12bc:	8a 81       	ldd	r24, Y+2	; 0x02
    12be:	9b 81       	ldd	r25, Y+3	; 0x03
    12c0:	01 96       	adiw	r24, 0x01	; 1
    12c2:	2c 81       	ldd	r18, Y+4	; 0x04
    12c4:	fc 01       	movw	r30, r24
    12c6:	20 83       	st	Z, r18
    12c8:	06 c0       	rjmp	.+12     	; 0x12d6 <ioport_configure_port_pin+0xb0>
    12ca:	8a 81       	ldd	r24, Y+2	; 0x02
    12cc:	9b 81       	ldd	r25, Y+3	; 0x03
    12ce:	02 96       	adiw	r24, 0x02	; 2
    12d0:	2c 81       	ldd	r18, Y+4	; 0x04
    12d2:	fc 01       	movw	r30, r24
    12d4:	20 83       	st	Z, r18
    12d6:	26 96       	adiw	r28, 0x06	; 6
    12d8:	cd bf       	out	0x3d, r28	; 61
    12da:	de bf       	out	0x3e, r29	; 62
    12dc:	df 91       	pop	r29
    12de:	cf 91       	pop	r28
    12e0:	08 95       	ret

000012e2 <ioport_set_pin_low>:
    12e2:	cf 93       	push	r28
    12e4:	df 93       	push	r29
    12e6:	cd b7       	in	r28, 0x3d	; 61
    12e8:	de b7       	in	r29, 0x3e	; 62
    12ea:	2a 97       	sbiw	r28, 0x0a	; 10
    12ec:	cd bf       	out	0x3d, r28	; 61
    12ee:	de bf       	out	0x3e, r29	; 62
    12f0:	8a 87       	std	Y+10, r24	; 0x0a
    12f2:	8a 85       	ldd	r24, Y+10	; 0x0a
    12f4:	89 83       	std	Y+1, r24	; 0x01
    12f6:	1a 82       	std	Y+2, r1	; 0x02
    12f8:	89 81       	ldd	r24, Y+1	; 0x01
    12fa:	8b 83       	std	Y+3, r24	; 0x03
    12fc:	8b 81       	ldd	r24, Y+3	; 0x03
    12fe:	8c 83       	std	Y+4, r24	; 0x04
    1300:	8c 81       	ldd	r24, Y+4	; 0x04
    1302:	86 95       	lsr	r24
    1304:	86 95       	lsr	r24
    1306:	86 95       	lsr	r24
    1308:	8d 83       	std	Y+5, r24	; 0x05
    130a:	8d 81       	ldd	r24, Y+5	; 0x05
    130c:	88 2f       	mov	r24, r24
    130e:	90 e0       	ldi	r25, 0x00	; 0
    1310:	88 0f       	add	r24, r24
    1312:	99 1f       	adc	r25, r25
    1314:	82 95       	swap	r24
    1316:	92 95       	swap	r25
    1318:	90 7f       	andi	r25, 0xF0	; 240
    131a:	98 27       	eor	r25, r24
    131c:	80 7f       	andi	r24, 0xF0	; 240
    131e:	98 27       	eor	r25, r24
    1320:	9a 5f       	subi	r25, 0xFA	; 250
    1322:	8e 83       	std	Y+6, r24	; 0x06
    1324:	9f 83       	std	Y+7, r25	; 0x07
    1326:	8a 81       	ldd	r24, Y+2	; 0x02
    1328:	88 23       	and	r24, r24
    132a:	a9 f0       	breq	.+42     	; 0x1356 <ioport_set_pin_low+0x74>
    132c:	89 81       	ldd	r24, Y+1	; 0x01
    132e:	88 87       	std	Y+8, r24	; 0x08
    1330:	88 85       	ldd	r24, Y+8	; 0x08
    1332:	88 2f       	mov	r24, r24
    1334:	90 e0       	ldi	r25, 0x00	; 0
    1336:	9c 01       	movw	r18, r24
    1338:	27 70       	andi	r18, 0x07	; 7
    133a:	33 27       	eor	r19, r19
    133c:	81 e0       	ldi	r24, 0x01	; 1
    133e:	90 e0       	ldi	r25, 0x00	; 0
    1340:	02 c0       	rjmp	.+4      	; 0x1346 <ioport_set_pin_low+0x64>
    1342:	88 0f       	add	r24, r24
    1344:	99 1f       	adc	r25, r25
    1346:	2a 95       	dec	r18
    1348:	e2 f7       	brpl	.-8      	; 0x1342 <ioport_set_pin_low+0x60>
    134a:	28 2f       	mov	r18, r24
    134c:	8e 81       	ldd	r24, Y+6	; 0x06
    134e:	9f 81       	ldd	r25, Y+7	; 0x07
    1350:	fc 01       	movw	r30, r24
    1352:	25 83       	std	Z+5, r18	; 0x05
    1354:	14 c0       	rjmp	.+40     	; 0x137e <ioport_set_pin_low+0x9c>
    1356:	89 81       	ldd	r24, Y+1	; 0x01
    1358:	89 87       	std	Y+9, r24	; 0x09
    135a:	89 85       	ldd	r24, Y+9	; 0x09
    135c:	88 2f       	mov	r24, r24
    135e:	90 e0       	ldi	r25, 0x00	; 0
    1360:	9c 01       	movw	r18, r24
    1362:	27 70       	andi	r18, 0x07	; 7
    1364:	33 27       	eor	r19, r19
    1366:	81 e0       	ldi	r24, 0x01	; 1
    1368:	90 e0       	ldi	r25, 0x00	; 0
    136a:	02 c0       	rjmp	.+4      	; 0x1370 <ioport_set_pin_low+0x8e>
    136c:	88 0f       	add	r24, r24
    136e:	99 1f       	adc	r25, r25
    1370:	2a 95       	dec	r18
    1372:	e2 f7       	brpl	.-8      	; 0x136c <ioport_set_pin_low+0x8a>
    1374:	28 2f       	mov	r18, r24
    1376:	8e 81       	ldd	r24, Y+6	; 0x06
    1378:	9f 81       	ldd	r25, Y+7	; 0x07
    137a:	fc 01       	movw	r30, r24
    137c:	26 83       	std	Z+6, r18	; 0x06
    137e:	2a 96       	adiw	r28, 0x0a	; 10
    1380:	cd bf       	out	0x3d, r28	; 61
    1382:	de bf       	out	0x3e, r29	; 62
    1384:	df 91       	pop	r29
    1386:	cf 91       	pop	r28
    1388:	08 95       	ret

0000138a <ioport_set_pin_high>:
    138a:	cf 93       	push	r28
    138c:	df 93       	push	r29
    138e:	cd b7       	in	r28, 0x3d	; 61
    1390:	de b7       	in	r29, 0x3e	; 62
    1392:	2a 97       	sbiw	r28, 0x0a	; 10
    1394:	cd bf       	out	0x3d, r28	; 61
    1396:	de bf       	out	0x3e, r29	; 62
    1398:	8a 87       	std	Y+10, r24	; 0x0a
    139a:	8a 85       	ldd	r24, Y+10	; 0x0a
    139c:	89 83       	std	Y+1, r24	; 0x01
    139e:	81 e0       	ldi	r24, 0x01	; 1
    13a0:	8a 83       	std	Y+2, r24	; 0x02
    13a2:	89 81       	ldd	r24, Y+1	; 0x01
    13a4:	8b 83       	std	Y+3, r24	; 0x03
    13a6:	8b 81       	ldd	r24, Y+3	; 0x03
    13a8:	8c 83       	std	Y+4, r24	; 0x04
    13aa:	8c 81       	ldd	r24, Y+4	; 0x04
    13ac:	86 95       	lsr	r24
    13ae:	86 95       	lsr	r24
    13b0:	86 95       	lsr	r24
    13b2:	8d 83       	std	Y+5, r24	; 0x05
    13b4:	8d 81       	ldd	r24, Y+5	; 0x05
    13b6:	88 2f       	mov	r24, r24
    13b8:	90 e0       	ldi	r25, 0x00	; 0
    13ba:	88 0f       	add	r24, r24
    13bc:	99 1f       	adc	r25, r25
    13be:	82 95       	swap	r24
    13c0:	92 95       	swap	r25
    13c2:	90 7f       	andi	r25, 0xF0	; 240
    13c4:	98 27       	eor	r25, r24
    13c6:	80 7f       	andi	r24, 0xF0	; 240
    13c8:	98 27       	eor	r25, r24
    13ca:	9a 5f       	subi	r25, 0xFA	; 250
    13cc:	8e 83       	std	Y+6, r24	; 0x06
    13ce:	9f 83       	std	Y+7, r25	; 0x07
    13d0:	8a 81       	ldd	r24, Y+2	; 0x02
    13d2:	88 23       	and	r24, r24
    13d4:	a9 f0       	breq	.+42     	; 0x1400 <ioport_set_pin_high+0x76>
    13d6:	89 81       	ldd	r24, Y+1	; 0x01
    13d8:	88 87       	std	Y+8, r24	; 0x08
    13da:	88 85       	ldd	r24, Y+8	; 0x08
    13dc:	88 2f       	mov	r24, r24
    13de:	90 e0       	ldi	r25, 0x00	; 0
    13e0:	9c 01       	movw	r18, r24
    13e2:	27 70       	andi	r18, 0x07	; 7
    13e4:	33 27       	eor	r19, r19
    13e6:	81 e0       	ldi	r24, 0x01	; 1
    13e8:	90 e0       	ldi	r25, 0x00	; 0
    13ea:	02 c0       	rjmp	.+4      	; 0x13f0 <ioport_set_pin_high+0x66>
    13ec:	88 0f       	add	r24, r24
    13ee:	99 1f       	adc	r25, r25
    13f0:	2a 95       	dec	r18
    13f2:	e2 f7       	brpl	.-8      	; 0x13ec <ioport_set_pin_high+0x62>
    13f4:	28 2f       	mov	r18, r24
    13f6:	8e 81       	ldd	r24, Y+6	; 0x06
    13f8:	9f 81       	ldd	r25, Y+7	; 0x07
    13fa:	fc 01       	movw	r30, r24
    13fc:	25 83       	std	Z+5, r18	; 0x05
    13fe:	14 c0       	rjmp	.+40     	; 0x1428 <ioport_set_pin_high+0x9e>
    1400:	89 81       	ldd	r24, Y+1	; 0x01
    1402:	89 87       	std	Y+9, r24	; 0x09
    1404:	89 85       	ldd	r24, Y+9	; 0x09
    1406:	88 2f       	mov	r24, r24
    1408:	90 e0       	ldi	r25, 0x00	; 0
    140a:	9c 01       	movw	r18, r24
    140c:	27 70       	andi	r18, 0x07	; 7
    140e:	33 27       	eor	r19, r19
    1410:	81 e0       	ldi	r24, 0x01	; 1
    1412:	90 e0       	ldi	r25, 0x00	; 0
    1414:	02 c0       	rjmp	.+4      	; 0x141a <ioport_set_pin_high+0x90>
    1416:	88 0f       	add	r24, r24
    1418:	99 1f       	adc	r25, r25
    141a:	2a 95       	dec	r18
    141c:	e2 f7       	brpl	.-8      	; 0x1416 <ioport_set_pin_high+0x8c>
    141e:	28 2f       	mov	r18, r24
    1420:	8e 81       	ldd	r24, Y+6	; 0x06
    1422:	9f 81       	ldd	r25, Y+7	; 0x07
    1424:	fc 01       	movw	r30, r24
    1426:	26 83       	std	Z+6, r18	; 0x06
    1428:	2a 96       	adiw	r28, 0x0a	; 10
    142a:	cd bf       	out	0x3d, r28	; 61
    142c:	de bf       	out	0x3e, r29	; 62
    142e:	df 91       	pop	r29
    1430:	cf 91       	pop	r28
    1432:	08 95       	ret

00001434 <spi_put>:
    1434:	cf 93       	push	r28
    1436:	df 93       	push	r29
    1438:	00 d0       	rcall	.+0      	; 0x143a <spi_put+0x6>
    143a:	1f 92       	push	r1
    143c:	cd b7       	in	r28, 0x3d	; 61
    143e:	de b7       	in	r29, 0x3e	; 62
    1440:	89 83       	std	Y+1, r24	; 0x01
    1442:	9a 83       	std	Y+2, r25	; 0x02
    1444:	6b 83       	std	Y+3, r22	; 0x03
    1446:	89 81       	ldd	r24, Y+1	; 0x01
    1448:	9a 81       	ldd	r25, Y+2	; 0x02
    144a:	2b 81       	ldd	r18, Y+3	; 0x03
    144c:	fc 01       	movw	r30, r24
    144e:	23 83       	std	Z+3, r18	; 0x03
    1450:	23 96       	adiw	r28, 0x03	; 3
    1452:	cd bf       	out	0x3d, r28	; 61
    1454:	de bf       	out	0x3e, r29	; 62
    1456:	df 91       	pop	r29
    1458:	cf 91       	pop	r28
    145a:	08 95       	ret

0000145c <spi_is_tx_ok>:
    145c:	cf 93       	push	r28
    145e:	df 93       	push	r29
    1460:	00 d0       	rcall	.+0      	; 0x1462 <spi_is_tx_ok+0x6>
    1462:	cd b7       	in	r28, 0x3d	; 61
    1464:	de b7       	in	r29, 0x3e	; 62
    1466:	89 83       	std	Y+1, r24	; 0x01
    1468:	9a 83       	std	Y+2, r25	; 0x02
    146a:	89 81       	ldd	r24, Y+1	; 0x01
    146c:	9a 81       	ldd	r25, Y+2	; 0x02
    146e:	fc 01       	movw	r30, r24
    1470:	82 81       	ldd	r24, Z+2	; 0x02
    1472:	88 1f       	adc	r24, r24
    1474:	88 27       	eor	r24, r24
    1476:	88 1f       	adc	r24, r24
    1478:	0f 90       	pop	r0
    147a:	0f 90       	pop	r0
    147c:	df 91       	pop	r29
    147e:	cf 91       	pop	r28
    1480:	08 95       	ret

00001482 <spi_enable_master_mode>:
    1482:	cf 93       	push	r28
    1484:	df 93       	push	r29
    1486:	00 d0       	rcall	.+0      	; 0x1488 <spi_enable_master_mode+0x6>
    1488:	cd b7       	in	r28, 0x3d	; 61
    148a:	de b7       	in	r29, 0x3e	; 62
    148c:	89 83       	std	Y+1, r24	; 0x01
    148e:	9a 83       	std	Y+2, r25	; 0x02
    1490:	89 81       	ldd	r24, Y+1	; 0x01
    1492:	9a 81       	ldd	r25, Y+2	; 0x02
    1494:	fc 01       	movw	r30, r24
    1496:	80 81       	ld	r24, Z
    1498:	28 2f       	mov	r18, r24
    149a:	20 61       	ori	r18, 0x10	; 16
    149c:	89 81       	ldd	r24, Y+1	; 0x01
    149e:	9a 81       	ldd	r25, Y+2	; 0x02
    14a0:	fc 01       	movw	r30, r24
    14a2:	20 83       	st	Z, r18
    14a4:	0f 90       	pop	r0
    14a6:	0f 90       	pop	r0
    14a8:	df 91       	pop	r29
    14aa:	cf 91       	pop	r28
    14ac:	08 95       	ret

000014ae <spi_is_rx_full>:
    14ae:	cf 93       	push	r28
    14b0:	df 93       	push	r29
    14b2:	00 d0       	rcall	.+0      	; 0x14b4 <spi_is_rx_full+0x6>
    14b4:	cd b7       	in	r28, 0x3d	; 61
    14b6:	de b7       	in	r29, 0x3e	; 62
    14b8:	89 83       	std	Y+1, r24	; 0x01
    14ba:	9a 83       	std	Y+2, r25	; 0x02
    14bc:	89 81       	ldd	r24, Y+1	; 0x01
    14be:	9a 81       	ldd	r25, Y+2	; 0x02
    14c0:	cd df       	rcall	.-102    	; 0x145c <spi_is_tx_ok>
    14c2:	0f 90       	pop	r0
    14c4:	0f 90       	pop	r0
    14c6:	df 91       	pop	r29
    14c8:	cf 91       	pop	r28
    14ca:	08 95       	ret

000014cc <spi_master_init>:
    14cc:	cf 93       	push	r28
    14ce:	df 93       	push	r29
    14d0:	00 d0       	rcall	.+0      	; 0x14d2 <spi_master_init+0x6>
    14d2:	cd b7       	in	r28, 0x3d	; 61
    14d4:	de b7       	in	r29, 0x3e	; 62
    14d6:	89 83       	std	Y+1, r24	; 0x01
    14d8:	9a 83       	std	Y+2, r25	; 0x02
    14da:	89 81       	ldd	r24, Y+1	; 0x01
    14dc:	9a 81       	ldd	r25, Y+2	; 0x02
    14de:	80 3c       	cpi	r24, 0xC0	; 192
    14e0:	28 e0       	ldi	r18, 0x08	; 8
    14e2:	92 07       	cpc	r25, r18
    14e4:	21 f4       	brne	.+8      	; 0x14ee <spi_master_init+0x22>
    14e6:	68 e0       	ldi	r22, 0x08	; 8
    14e8:	83 e0       	ldi	r24, 0x03	; 3
    14ea:	90 e0       	ldi	r25, 0x00	; 0
    14ec:	79 de       	rcall	.-782    	; 0x11e0 <sysclk_enable_module>
    14ee:	89 81       	ldd	r24, Y+1	; 0x01
    14f0:	9a 81       	ldd	r25, Y+2	; 0x02
    14f2:	80 3c       	cpi	r24, 0xC0	; 192
    14f4:	29 e0       	ldi	r18, 0x09	; 9
    14f6:	92 07       	cpc	r25, r18
    14f8:	21 f4       	brne	.+8      	; 0x1502 <spi_master_init+0x36>
    14fa:	68 e0       	ldi	r22, 0x08	; 8
    14fc:	84 e0       	ldi	r24, 0x04	; 4
    14fe:	90 e0       	ldi	r25, 0x00	; 0
    1500:	6f de       	rcall	.-802    	; 0x11e0 <sysclk_enable_module>
    1502:	89 81       	ldd	r24, Y+1	; 0x01
    1504:	9a 81       	ldd	r25, Y+2	; 0x02
    1506:	bd df       	rcall	.-134    	; 0x1482 <spi_enable_master_mode>
    1508:	0f 90       	pop	r0
    150a:	0f 90       	pop	r0
    150c:	df 91       	pop	r29
    150e:	cf 91       	pop	r28
    1510:	08 95       	ret

00001512 <spi_write_packet>:
    1512:	cf 93       	push	r28
    1514:	df 93       	push	r29
    1516:	cd b7       	in	r28, 0x3d	; 61
    1518:	de b7       	in	r29, 0x3e	; 62
    151a:	29 97       	sbiw	r28, 0x09	; 9
    151c:	cd bf       	out	0x3d, r28	; 61
    151e:	de bf       	out	0x3e, r29	; 62
    1520:	8c 83       	std	Y+4, r24	; 0x04
    1522:	9d 83       	std	Y+5, r25	; 0x05
    1524:	6e 83       	std	Y+6, r22	; 0x06
    1526:	7f 83       	std	Y+7, r23	; 0x07
    1528:	48 87       	std	Y+8, r20	; 0x08
    152a:	59 87       	std	Y+9, r21	; 0x09
    152c:	1b c0       	rjmp	.+54     	; 0x1564 <spi_write_packet+0x52>
    152e:	8e 81       	ldd	r24, Y+6	; 0x06
    1530:	9f 81       	ldd	r25, Y+7	; 0x07
    1532:	fc 01       	movw	r30, r24
    1534:	20 81       	ld	r18, Z
    1536:	8e 81       	ldd	r24, Y+6	; 0x06
    1538:	9f 81       	ldd	r25, Y+7	; 0x07
    153a:	01 96       	adiw	r24, 0x01	; 1
    153c:	8e 83       	std	Y+6, r24	; 0x06
    153e:	9f 83       	std	Y+7, r25	; 0x07
    1540:	8c 81       	ldd	r24, Y+4	; 0x04
    1542:	9d 81       	ldd	r25, Y+5	; 0x05
    1544:	89 83       	std	Y+1, r24	; 0x01
    1546:	9a 83       	std	Y+2, r25	; 0x02
    1548:	2b 83       	std	Y+3, r18	; 0x03
    154a:	89 81       	ldd	r24, Y+1	; 0x01
    154c:	9a 81       	ldd	r25, Y+2	; 0x02
    154e:	6b 81       	ldd	r22, Y+3	; 0x03
    1550:	71 df       	rcall	.-286    	; 0x1434 <spi_put>
    1552:	00 00       	nop
    1554:	8c 81       	ldd	r24, Y+4	; 0x04
    1556:	9d 81       	ldd	r25, Y+5	; 0x05
    1558:	aa df       	rcall	.-172    	; 0x14ae <spi_is_rx_full>
    155a:	98 2f       	mov	r25, r24
    155c:	81 e0       	ldi	r24, 0x01	; 1
    155e:	89 27       	eor	r24, r25
    1560:	88 23       	and	r24, r24
    1562:	c1 f7       	brne	.-16     	; 0x1554 <spi_write_packet+0x42>
    1564:	21 e0       	ldi	r18, 0x01	; 1
    1566:	88 85       	ldd	r24, Y+8	; 0x08
    1568:	99 85       	ldd	r25, Y+9	; 0x09
    156a:	00 97       	sbiw	r24, 0x00	; 0
    156c:	09 f4       	brne	.+2      	; 0x1570 <spi_write_packet+0x5e>
    156e:	20 e0       	ldi	r18, 0x00	; 0
    1570:	88 85       	ldd	r24, Y+8	; 0x08
    1572:	99 85       	ldd	r25, Y+9	; 0x09
    1574:	01 97       	sbiw	r24, 0x01	; 1
    1576:	88 87       	std	Y+8, r24	; 0x08
    1578:	99 87       	std	Y+9, r25	; 0x09
    157a:	22 23       	and	r18, r18
    157c:	c1 f6       	brne	.-80     	; 0x152e <spi_write_packet+0x1c>
    157e:	80 e0       	ldi	r24, 0x00	; 0
    1580:	90 e0       	ldi	r25, 0x00	; 0
    1582:	29 96       	adiw	r28, 0x09	; 9
    1584:	cd bf       	out	0x3d, r28	; 61
    1586:	de bf       	out	0x3e, r29	; 62
    1588:	df 91       	pop	r29
    158a:	cf 91       	pop	r28
    158c:	08 95       	ret

0000158e <spi_select_device>:
    158e:	cf 93       	push	r28
    1590:	df 93       	push	r29
    1592:	00 d0       	rcall	.+0      	; 0x1594 <spi_select_device+0x6>
    1594:	00 d0       	rcall	.+0      	; 0x1596 <spi_select_device+0x8>
    1596:	cd b7       	in	r28, 0x3d	; 61
    1598:	de b7       	in	r29, 0x3e	; 62
    159a:	89 83       	std	Y+1, r24	; 0x01
    159c:	9a 83       	std	Y+2, r25	; 0x02
    159e:	6b 83       	std	Y+3, r22	; 0x03
    15a0:	7c 83       	std	Y+4, r23	; 0x04
    15a2:	8b 81       	ldd	r24, Y+3	; 0x03
    15a4:	9c 81       	ldd	r25, Y+4	; 0x04
    15a6:	fc 01       	movw	r30, r24
    15a8:	80 81       	ld	r24, Z
    15aa:	9b de       	rcall	.-714    	; 0x12e2 <ioport_set_pin_low>
    15ac:	24 96       	adiw	r28, 0x04	; 4
    15ae:	cd bf       	out	0x3d, r28	; 61
    15b0:	de bf       	out	0x3e, r29	; 62
    15b2:	df 91       	pop	r29
    15b4:	cf 91       	pop	r28
    15b6:	08 95       	ret

000015b8 <spi_deselect_device>:
    15b8:	cf 93       	push	r28
    15ba:	df 93       	push	r29
    15bc:	00 d0       	rcall	.+0      	; 0x15be <spi_deselect_device+0x6>
    15be:	00 d0       	rcall	.+0      	; 0x15c0 <spi_deselect_device+0x8>
    15c0:	cd b7       	in	r28, 0x3d	; 61
    15c2:	de b7       	in	r29, 0x3e	; 62
    15c4:	89 83       	std	Y+1, r24	; 0x01
    15c6:	9a 83       	std	Y+2, r25	; 0x02
    15c8:	6b 83       	std	Y+3, r22	; 0x03
    15ca:	7c 83       	std	Y+4, r23	; 0x04
    15cc:	8b 81       	ldd	r24, Y+3	; 0x03
    15ce:	9c 81       	ldd	r25, Y+4	; 0x04
    15d0:	fc 01       	movw	r30, r24
    15d2:	80 81       	ld	r24, Z
    15d4:	da de       	rcall	.-588    	; 0x138a <ioport_set_pin_high>
    15d6:	24 96       	adiw	r28, 0x04	; 4
    15d8:	cd bf       	out	0x3d, r28	; 61
    15da:	de bf       	out	0x3e, r29	; 62
    15dc:	df 91       	pop	r29
    15de:	cf 91       	pop	r28
    15e0:	08 95       	ret

000015e2 <ccp_write_io>:
    15e2:	1b be       	out	0x3b, r1	; 59
    15e4:	fc 01       	movw	r30, r24
    15e6:	28 ed       	ldi	r18, 0xD8	; 216
    15e8:	24 bf       	out	0x34, r18	; 52
    15ea:	60 83       	st	Z, r22
    15ec:	08 95       	ret

000015ee <cpu_irq_save>:
    15ee:	cf 93       	push	r28
    15f0:	df 93       	push	r29
    15f2:	1f 92       	push	r1
    15f4:	cd b7       	in	r28, 0x3d	; 61
    15f6:	de b7       	in	r29, 0x3e	; 62
    15f8:	8f e3       	ldi	r24, 0x3F	; 63
    15fa:	90 e0       	ldi	r25, 0x00	; 0
    15fc:	fc 01       	movw	r30, r24
    15fe:	80 81       	ld	r24, Z
    1600:	89 83       	std	Y+1, r24	; 0x01
    1602:	f8 94       	cli
    1604:	89 81       	ldd	r24, Y+1	; 0x01
    1606:	0f 90       	pop	r0
    1608:	df 91       	pop	r29
    160a:	cf 91       	pop	r28
    160c:	08 95       	ret

0000160e <cpu_irq_restore>:
    160e:	cf 93       	push	r28
    1610:	df 93       	push	r29
    1612:	1f 92       	push	r1
    1614:	cd b7       	in	r28, 0x3d	; 61
    1616:	de b7       	in	r29, 0x3e	; 62
    1618:	89 83       	std	Y+1, r24	; 0x01
    161a:	8f e3       	ldi	r24, 0x3F	; 63
    161c:	90 e0       	ldi	r25, 0x00	; 0
    161e:	29 81       	ldd	r18, Y+1	; 0x01
    1620:	fc 01       	movw	r30, r24
    1622:	20 83       	st	Z, r18
    1624:	0f 90       	pop	r0
    1626:	df 91       	pop	r29
    1628:	cf 91       	pop	r28
    162a:	08 95       	ret

0000162c <sleepmgr_lock_mode>:
    162c:	cf 93       	push	r28
    162e:	df 93       	push	r29
    1630:	00 d0       	rcall	.+0      	; 0x1632 <sleepmgr_lock_mode+0x6>
    1632:	1f 92       	push	r1
    1634:	cd b7       	in	r28, 0x3d	; 61
    1636:	de b7       	in	r29, 0x3e	; 62
    1638:	8a 83       	std	Y+2, r24	; 0x02
    163a:	9b 83       	std	Y+3, r25	; 0x03
    163c:	d8 df       	rcall	.-80     	; 0x15ee <cpu_irq_save>
    163e:	89 83       	std	Y+1, r24	; 0x01
    1640:	8a 81       	ldd	r24, Y+2	; 0x02
    1642:	9b 81       	ldd	r25, Y+3	; 0x03
    1644:	8f 59       	subi	r24, 0x9F	; 159
    1646:	9f 4d       	sbci	r25, 0xDF	; 223
    1648:	fc 01       	movw	r30, r24
    164a:	80 81       	ld	r24, Z
    164c:	28 2f       	mov	r18, r24
    164e:	2f 5f       	subi	r18, 0xFF	; 255
    1650:	8a 81       	ldd	r24, Y+2	; 0x02
    1652:	9b 81       	ldd	r25, Y+3	; 0x03
    1654:	8f 59       	subi	r24, 0x9F	; 159
    1656:	9f 4d       	sbci	r25, 0xDF	; 223
    1658:	fc 01       	movw	r30, r24
    165a:	20 83       	st	Z, r18
    165c:	89 81       	ldd	r24, Y+1	; 0x01
    165e:	d7 df       	rcall	.-82     	; 0x160e <cpu_irq_restore>
    1660:	23 96       	adiw	r28, 0x03	; 3
    1662:	cd bf       	out	0x3d, r28	; 61
    1664:	de bf       	out	0x3e, r29	; 62
    1666:	df 91       	pop	r29
    1668:	cf 91       	pop	r28
    166a:	08 95       	ret

0000166c <rtc_init>:
    166c:	cf 93       	push	r28
    166e:	df 93       	push	r29
    1670:	cd b7       	in	r28, 0x3d	; 61
    1672:	de b7       	in	r29, 0x3e	; 62
    1674:	64 e0       	ldi	r22, 0x04	; 4
    1676:	80 e0       	ldi	r24, 0x00	; 0
    1678:	90 e0       	ldi	r25, 0x00	; 0
    167a:	b2 dd       	rcall	.-1180   	; 0x11e0 <sysclk_enable_module>
    167c:	80 e0       	ldi	r24, 0x00	; 0
    167e:	94 e0       	ldi	r25, 0x04	; 4
    1680:	2f ef       	ldi	r18, 0xFF	; 255
    1682:	3f ef       	ldi	r19, 0xFF	; 255
    1684:	fc 01       	movw	r30, r24
    1686:	22 87       	std	Z+10, r18	; 0x0a
    1688:	33 87       	std	Z+11, r19	; 0x0b
    168a:	80 e0       	ldi	r24, 0x00	; 0
    168c:	94 e0       	ldi	r25, 0x04	; 4
    168e:	fc 01       	movw	r30, r24
    1690:	10 86       	std	Z+8, r1	; 0x08
    1692:	11 86       	std	Z+9, r1	; 0x09
    1694:	83 e0       	ldi	r24, 0x03	; 3
    1696:	90 e0       	ldi	r25, 0x00	; 0
    1698:	c9 df       	rcall	.-110    	; 0x162c <sleepmgr_lock_mode>
    169a:	80 e0       	ldi	r24, 0x00	; 0
    169c:	94 e0       	ldi	r25, 0x04	; 4
    169e:	23 e0       	ldi	r18, 0x03	; 3
    16a0:	fc 01       	movw	r30, r24
    16a2:	22 83       	std	Z+2, r18	; 0x02
    16a4:	80 e0       	ldi	r24, 0x00	; 0
    16a6:	94 e0       	ldi	r25, 0x04	; 4
    16a8:	fc 01       	movw	r30, r24
    16aa:	10 82       	st	Z, r1
    16ac:	df 91       	pop	r29
    16ae:	cf 91       	pop	r28
    16b0:	08 95       	ret

000016b2 <__vector_11>:
    16b2:	1f 92       	push	r1
    16b4:	0f 92       	push	r0
    16b6:	00 90 3f 00 	lds	r0, 0x003F
    16ba:	0f 92       	push	r0
    16bc:	11 24       	eor	r1, r1
    16be:	2f 93       	push	r18
    16c0:	3f 93       	push	r19
    16c2:	4f 93       	push	r20
    16c4:	5f 93       	push	r21
    16c6:	6f 93       	push	r22
    16c8:	7f 93       	push	r23
    16ca:	8f 93       	push	r24
    16cc:	9f 93       	push	r25
    16ce:	af 93       	push	r26
    16d0:	bf 93       	push	r27
    16d2:	ef 93       	push	r30
    16d4:	ff 93       	push	r31
    16d6:	cf 93       	push	r28
    16d8:	df 93       	push	r29
    16da:	cd b7       	in	r28, 0x3d	; 61
    16dc:	de b7       	in	r29, 0x3e	; 62
    16de:	28 97       	sbiw	r28, 0x08	; 8
    16e0:	cd bf       	out	0x3d, r28	; 61
    16e2:	de bf       	out	0x3e, r29	; 62
    16e4:	20 91 67 20 	lds	r18, 0x2067
    16e8:	30 91 68 20 	lds	r19, 0x2068
    16ec:	80 91 69 20 	lds	r24, 0x2069
    16f0:	90 91 6a 20 	lds	r25, 0x206A
    16f4:	28 17       	cp	r18, r24
    16f6:	39 07       	cpc	r19, r25
    16f8:	08 f4       	brcc	.+2      	; 0x16fc <__vector_11+0x4a>
    16fa:	63 c0       	rjmp	.+198    	; 0x17c2 <__vector_11+0x110>
    16fc:	80 e0       	ldi	r24, 0x00	; 0
    16fe:	94 e0       	ldi	r25, 0x04	; 4
    1700:	23 e0       	ldi	r18, 0x03	; 3
    1702:	fc 01       	movw	r30, r24
    1704:	22 83       	std	Z+2, r18	; 0x02
    1706:	80 91 6d 20 	lds	r24, 0x206D
    170a:	90 91 6e 20 	lds	r25, 0x206E
    170e:	00 97       	sbiw	r24, 0x00	; 0
    1710:	09 f4       	brne	.+2      	; 0x1714 <__vector_11+0x62>
    1712:	57 c0       	rjmp	.+174    	; 0x17c2 <__vector_11+0x110>
    1714:	80 91 67 20 	lds	r24, 0x2067
    1718:	90 91 68 20 	lds	r25, 0x2068
    171c:	cc 01       	movw	r24, r24
    171e:	a0 e0       	ldi	r26, 0x00	; 0
    1720:	b0 e0       	ldi	r27, 0x00	; 0
    1722:	ac 01       	movw	r20, r24
    1724:	33 27       	eor	r19, r19
    1726:	22 27       	eor	r18, r18
    1728:	80 e0       	ldi	r24, 0x00	; 0
    172a:	94 e0       	ldi	r25, 0x04	; 4
    172c:	fc 01       	movw	r30, r24
    172e:	80 85       	ldd	r24, Z+8	; 0x08
    1730:	91 85       	ldd	r25, Z+9	; 0x09
    1732:	cc 01       	movw	r24, r24
    1734:	a0 e0       	ldi	r26, 0x00	; 0
    1736:	b0 e0       	ldi	r27, 0x00	; 0
    1738:	82 2b       	or	r24, r18
    173a:	93 2b       	or	r25, r19
    173c:	a4 2b       	or	r26, r20
    173e:	b5 2b       	or	r27, r21
    1740:	89 83       	std	Y+1, r24	; 0x01
    1742:	9a 83       	std	Y+2, r25	; 0x02
    1744:	ab 83       	std	Y+3, r26	; 0x03
    1746:	bc 83       	std	Y+4, r27	; 0x04
    1748:	80 91 69 20 	lds	r24, 0x2069
    174c:	90 91 6a 20 	lds	r25, 0x206A
    1750:	cc 01       	movw	r24, r24
    1752:	a0 e0       	ldi	r26, 0x00	; 0
    1754:	b0 e0       	ldi	r27, 0x00	; 0
    1756:	ac 01       	movw	r20, r24
    1758:	33 27       	eor	r19, r19
    175a:	22 27       	eor	r18, r18
    175c:	80 91 6b 20 	lds	r24, 0x206B
    1760:	90 91 6c 20 	lds	r25, 0x206C
    1764:	cc 01       	movw	r24, r24
    1766:	a0 e0       	ldi	r26, 0x00	; 0
    1768:	b0 e0       	ldi	r27, 0x00	; 0
    176a:	82 2b       	or	r24, r18
    176c:	93 2b       	or	r25, r19
    176e:	a4 2b       	or	r26, r20
    1770:	b5 2b       	or	r27, r21
    1772:	8d 83       	std	Y+5, r24	; 0x05
    1774:	9e 83       	std	Y+6, r25	; 0x06
    1776:	af 83       	std	Y+7, r26	; 0x07
    1778:	b8 87       	std	Y+8, r27	; 0x08
    177a:	2d 81       	ldd	r18, Y+5	; 0x05
    177c:	3e 81       	ldd	r19, Y+6	; 0x06
    177e:	4f 81       	ldd	r20, Y+7	; 0x07
    1780:	58 85       	ldd	r21, Y+8	; 0x08
    1782:	89 81       	ldd	r24, Y+1	; 0x01
    1784:	9a 81       	ldd	r25, Y+2	; 0x02
    1786:	ab 81       	ldd	r26, Y+3	; 0x03
    1788:	bc 81       	ldd	r27, Y+4	; 0x04
    178a:	28 17       	cp	r18, r24
    178c:	39 07       	cpc	r19, r25
    178e:	4a 07       	cpc	r20, r26
    1790:	5b 07       	cpc	r21, r27
    1792:	58 f0       	brcs	.+22     	; 0x17aa <__vector_11+0xf8>
    1794:	8d 81       	ldd	r24, Y+5	; 0x05
    1796:	9e 81       	ldd	r25, Y+6	; 0x06
    1798:	af 81       	ldd	r26, Y+7	; 0x07
    179a:	b8 85       	ldd	r27, Y+8	; 0x08
    179c:	01 96       	adiw	r24, 0x01	; 1
    179e:	a1 1d       	adc	r26, r1
    17a0:	b1 1d       	adc	r27, r1
    17a2:	89 83       	std	Y+1, r24	; 0x01
    17a4:	9a 83       	std	Y+2, r25	; 0x02
    17a6:	ab 83       	std	Y+3, r26	; 0x03
    17a8:	bc 83       	std	Y+4, r27	; 0x04
    17aa:	20 91 6d 20 	lds	r18, 0x206D
    17ae:	30 91 6e 20 	lds	r19, 0x206E
    17b2:	89 81       	ldd	r24, Y+1	; 0x01
    17b4:	9a 81       	ldd	r25, Y+2	; 0x02
    17b6:	ab 81       	ldd	r26, Y+3	; 0x03
    17b8:	bc 81       	ldd	r27, Y+4	; 0x04
    17ba:	bc 01       	movw	r22, r24
    17bc:	cd 01       	movw	r24, r26
    17be:	f9 01       	movw	r30, r18
    17c0:	09 95       	icall
    17c2:	28 96       	adiw	r28, 0x08	; 8
    17c4:	cd bf       	out	0x3d, r28	; 61
    17c6:	de bf       	out	0x3e, r29	; 62
    17c8:	df 91       	pop	r29
    17ca:	cf 91       	pop	r28
    17cc:	ff 91       	pop	r31
    17ce:	ef 91       	pop	r30
    17d0:	bf 91       	pop	r27
    17d2:	af 91       	pop	r26
    17d4:	9f 91       	pop	r25
    17d6:	8f 91       	pop	r24
    17d8:	7f 91       	pop	r23
    17da:	6f 91       	pop	r22
    17dc:	5f 91       	pop	r21
    17de:	4f 91       	pop	r20
    17e0:	3f 91       	pop	r19
    17e2:	2f 91       	pop	r18
    17e4:	0f 90       	pop	r0
    17e6:	00 92 3f 00 	sts	0x003F, r0
    17ea:	0f 90       	pop	r0
    17ec:	1f 90       	pop	r1
    17ee:	18 95       	reti

000017f0 <__vector_14>:
 *
 * This function will handle interrupt on Timer Counter CO overflow and
 * call the callback function.
 */
ISR(TCC0_OVF_vect)
{
    17f0:	1f 92       	push	r1
    17f2:	0f 92       	push	r0
    17f4:	00 90 3f 00 	lds	r0, 0x003F
    17f8:	0f 92       	push	r0
    17fa:	11 24       	eor	r1, r1
    17fc:	2f 93       	push	r18
    17fe:	3f 93       	push	r19
    1800:	4f 93       	push	r20
    1802:	5f 93       	push	r21
    1804:	6f 93       	push	r22
    1806:	7f 93       	push	r23
    1808:	8f 93       	push	r24
    180a:	9f 93       	push	r25
    180c:	af 93       	push	r26
    180e:	bf 93       	push	r27
    1810:	ef 93       	push	r30
    1812:	ff 93       	push	r31
    1814:	cf 93       	push	r28
    1816:	df 93       	push	r29
    1818:	cd b7       	in	r28, 0x3d	; 61
    181a:	de b7       	in	r29, 0x3e	; 62
	if (tc_tcc0_ovf_callback) {
    181c:	80 91 1c 20 	lds	r24, 0x201C
    1820:	90 91 1d 20 	lds	r25, 0x201D
    1824:	00 97       	sbiw	r24, 0x00	; 0
    1826:	31 f0       	breq	.+12     	; 0x1834 <__vector_14+0x44>
		tc_tcc0_ovf_callback();
    1828:	80 91 1c 20 	lds	r24, 0x201C
    182c:	90 91 1d 20 	lds	r25, 0x201D
    1830:	fc 01       	movw	r30, r24
    1832:	09 95       	icall
	}
}
    1834:	df 91       	pop	r29
    1836:	cf 91       	pop	r28
    1838:	ff 91       	pop	r31
    183a:	ef 91       	pop	r30
    183c:	bf 91       	pop	r27
    183e:	af 91       	pop	r26
    1840:	9f 91       	pop	r25
    1842:	8f 91       	pop	r24
    1844:	7f 91       	pop	r23
    1846:	6f 91       	pop	r22
    1848:	5f 91       	pop	r21
    184a:	4f 91       	pop	r20
    184c:	3f 91       	pop	r19
    184e:	2f 91       	pop	r18
    1850:	0f 90       	pop	r0
    1852:	00 92 3f 00 	sts	0x003F, r0
    1856:	0f 90       	pop	r0
    1858:	1f 90       	pop	r1
    185a:	18 95       	reti

0000185c <__vector_15>:
 *
 * This function will handle interrupt on Timer Counter CO error and
 * call the callback function.
 */
ISR(TCC0_ERR_vect)
{
    185c:	1f 92       	push	r1
    185e:	0f 92       	push	r0
    1860:	00 90 3f 00 	lds	r0, 0x003F
    1864:	0f 92       	push	r0
    1866:	11 24       	eor	r1, r1
    1868:	2f 93       	push	r18
    186a:	3f 93       	push	r19
    186c:	4f 93       	push	r20
    186e:	5f 93       	push	r21
    1870:	6f 93       	push	r22
    1872:	7f 93       	push	r23
    1874:	8f 93       	push	r24
    1876:	9f 93       	push	r25
    1878:	af 93       	push	r26
    187a:	bf 93       	push	r27
    187c:	ef 93       	push	r30
    187e:	ff 93       	push	r31
    1880:	cf 93       	push	r28
    1882:	df 93       	push	r29
    1884:	cd b7       	in	r28, 0x3d	; 61
    1886:	de b7       	in	r29, 0x3e	; 62
	if (tc_tcc0_err_callback) {
    1888:	80 91 1e 20 	lds	r24, 0x201E
    188c:	90 91 1f 20 	lds	r25, 0x201F
    1890:	00 97       	sbiw	r24, 0x00	; 0
    1892:	31 f0       	breq	.+12     	; 0x18a0 <__vector_15+0x44>
		tc_tcc0_err_callback();
    1894:	80 91 1e 20 	lds	r24, 0x201E
    1898:	90 91 1f 20 	lds	r25, 0x201F
    189c:	fc 01       	movw	r30, r24
    189e:	09 95       	icall
	}
}
    18a0:	df 91       	pop	r29
    18a2:	cf 91       	pop	r28
    18a4:	ff 91       	pop	r31
    18a6:	ef 91       	pop	r30
    18a8:	bf 91       	pop	r27
    18aa:	af 91       	pop	r26
    18ac:	9f 91       	pop	r25
    18ae:	8f 91       	pop	r24
    18b0:	7f 91       	pop	r23
    18b2:	6f 91       	pop	r22
    18b4:	5f 91       	pop	r21
    18b6:	4f 91       	pop	r20
    18b8:	3f 91       	pop	r19
    18ba:	2f 91       	pop	r18
    18bc:	0f 90       	pop	r0
    18be:	00 92 3f 00 	sts	0x003F, r0
    18c2:	0f 90       	pop	r0
    18c4:	1f 90       	pop	r1
    18c6:	18 95       	reti

000018c8 <__vector_16>:
 *
 * This function will handle interrupt on Timer Counter CO Compare/CaptureA and
 * call the callback function.
 */
ISR(TCC0_CCA_vect)
{
    18c8:	1f 92       	push	r1
    18ca:	0f 92       	push	r0
    18cc:	00 90 3f 00 	lds	r0, 0x003F
    18d0:	0f 92       	push	r0
    18d2:	11 24       	eor	r1, r1
    18d4:	2f 93       	push	r18
    18d6:	3f 93       	push	r19
    18d8:	4f 93       	push	r20
    18da:	5f 93       	push	r21
    18dc:	6f 93       	push	r22
    18de:	7f 93       	push	r23
    18e0:	8f 93       	push	r24
    18e2:	9f 93       	push	r25
    18e4:	af 93       	push	r26
    18e6:	bf 93       	push	r27
    18e8:	ef 93       	push	r30
    18ea:	ff 93       	push	r31
    18ec:	cf 93       	push	r28
    18ee:	df 93       	push	r29
    18f0:	cd b7       	in	r28, 0x3d	; 61
    18f2:	de b7       	in	r29, 0x3e	; 62
	if (tc_tcc0_cca_callback) {
    18f4:	80 91 20 20 	lds	r24, 0x2020
    18f8:	90 91 21 20 	lds	r25, 0x2021
    18fc:	00 97       	sbiw	r24, 0x00	; 0
    18fe:	31 f0       	breq	.+12     	; 0x190c <__vector_16+0x44>
		tc_tcc0_cca_callback();
    1900:	80 91 20 20 	lds	r24, 0x2020
    1904:	90 91 21 20 	lds	r25, 0x2021
    1908:	fc 01       	movw	r30, r24
    190a:	09 95       	icall
	}
}
    190c:	df 91       	pop	r29
    190e:	cf 91       	pop	r28
    1910:	ff 91       	pop	r31
    1912:	ef 91       	pop	r30
    1914:	bf 91       	pop	r27
    1916:	af 91       	pop	r26
    1918:	9f 91       	pop	r25
    191a:	8f 91       	pop	r24
    191c:	7f 91       	pop	r23
    191e:	6f 91       	pop	r22
    1920:	5f 91       	pop	r21
    1922:	4f 91       	pop	r20
    1924:	3f 91       	pop	r19
    1926:	2f 91       	pop	r18
    1928:	0f 90       	pop	r0
    192a:	00 92 3f 00 	sts	0x003F, r0
    192e:	0f 90       	pop	r0
    1930:	1f 90       	pop	r1
    1932:	18 95       	reti

00001934 <__vector_17>:
 *
 * This function will handle interrupt on Timer Counter CO Compare/CaptureB and
 * call the callback function.
 */
ISR(TCC0_CCB_vect)
{
    1934:	1f 92       	push	r1
    1936:	0f 92       	push	r0
    1938:	00 90 3f 00 	lds	r0, 0x003F
    193c:	0f 92       	push	r0
    193e:	11 24       	eor	r1, r1
    1940:	2f 93       	push	r18
    1942:	3f 93       	push	r19
    1944:	4f 93       	push	r20
    1946:	5f 93       	push	r21
    1948:	6f 93       	push	r22
    194a:	7f 93       	push	r23
    194c:	8f 93       	push	r24
    194e:	9f 93       	push	r25
    1950:	af 93       	push	r26
    1952:	bf 93       	push	r27
    1954:	ef 93       	push	r30
    1956:	ff 93       	push	r31
    1958:	cf 93       	push	r28
    195a:	df 93       	push	r29
    195c:	cd b7       	in	r28, 0x3d	; 61
    195e:	de b7       	in	r29, 0x3e	; 62
	if (tc_tcc0_ccb_callback) {
    1960:	80 91 22 20 	lds	r24, 0x2022
    1964:	90 91 23 20 	lds	r25, 0x2023
    1968:	00 97       	sbiw	r24, 0x00	; 0
    196a:	31 f0       	breq	.+12     	; 0x1978 <__vector_17+0x44>
		tc_tcc0_ccb_callback();
    196c:	80 91 22 20 	lds	r24, 0x2022
    1970:	90 91 23 20 	lds	r25, 0x2023
    1974:	fc 01       	movw	r30, r24
    1976:	09 95       	icall
	}
}
    1978:	df 91       	pop	r29
    197a:	cf 91       	pop	r28
    197c:	ff 91       	pop	r31
    197e:	ef 91       	pop	r30
    1980:	bf 91       	pop	r27
    1982:	af 91       	pop	r26
    1984:	9f 91       	pop	r25
    1986:	8f 91       	pop	r24
    1988:	7f 91       	pop	r23
    198a:	6f 91       	pop	r22
    198c:	5f 91       	pop	r21
    198e:	4f 91       	pop	r20
    1990:	3f 91       	pop	r19
    1992:	2f 91       	pop	r18
    1994:	0f 90       	pop	r0
    1996:	00 92 3f 00 	sts	0x003F, r0
    199a:	0f 90       	pop	r0
    199c:	1f 90       	pop	r1
    199e:	18 95       	reti

000019a0 <__vector_18>:
 *
 * This function will handle interrupt on Timer Counter CO Compare/CaptureC and
 * call the callback function.
 */
ISR(TCC0_CCC_vect)
{
    19a0:	1f 92       	push	r1
    19a2:	0f 92       	push	r0
    19a4:	00 90 3f 00 	lds	r0, 0x003F
    19a8:	0f 92       	push	r0
    19aa:	11 24       	eor	r1, r1
    19ac:	2f 93       	push	r18
    19ae:	3f 93       	push	r19
    19b0:	4f 93       	push	r20
    19b2:	5f 93       	push	r21
    19b4:	6f 93       	push	r22
    19b6:	7f 93       	push	r23
    19b8:	8f 93       	push	r24
    19ba:	9f 93       	push	r25
    19bc:	af 93       	push	r26
    19be:	bf 93       	push	r27
    19c0:	ef 93       	push	r30
    19c2:	ff 93       	push	r31
    19c4:	cf 93       	push	r28
    19c6:	df 93       	push	r29
    19c8:	cd b7       	in	r28, 0x3d	; 61
    19ca:	de b7       	in	r29, 0x3e	; 62
	if (tc_tcc0_ccc_callback) {
    19cc:	80 91 24 20 	lds	r24, 0x2024
    19d0:	90 91 25 20 	lds	r25, 0x2025
    19d4:	00 97       	sbiw	r24, 0x00	; 0
    19d6:	31 f0       	breq	.+12     	; 0x19e4 <__vector_18+0x44>
		tc_tcc0_ccc_callback();
    19d8:	80 91 24 20 	lds	r24, 0x2024
    19dc:	90 91 25 20 	lds	r25, 0x2025
    19e0:	fc 01       	movw	r30, r24
    19e2:	09 95       	icall
	}
}
    19e4:	df 91       	pop	r29
    19e6:	cf 91       	pop	r28
    19e8:	ff 91       	pop	r31
    19ea:	ef 91       	pop	r30
    19ec:	bf 91       	pop	r27
    19ee:	af 91       	pop	r26
    19f0:	9f 91       	pop	r25
    19f2:	8f 91       	pop	r24
    19f4:	7f 91       	pop	r23
    19f6:	6f 91       	pop	r22
    19f8:	5f 91       	pop	r21
    19fa:	4f 91       	pop	r20
    19fc:	3f 91       	pop	r19
    19fe:	2f 91       	pop	r18
    1a00:	0f 90       	pop	r0
    1a02:	00 92 3f 00 	sts	0x003F, r0
    1a06:	0f 90       	pop	r0
    1a08:	1f 90       	pop	r1
    1a0a:	18 95       	reti

00001a0c <__vector_19>:
 *
 * This function will handle interrupt on Timer Counter CO Compare/CaptureD and
 * call the callback function.
 */
ISR(TCC0_CCD_vect)
{
    1a0c:	1f 92       	push	r1
    1a0e:	0f 92       	push	r0
    1a10:	00 90 3f 00 	lds	r0, 0x003F
    1a14:	0f 92       	push	r0
    1a16:	11 24       	eor	r1, r1
    1a18:	2f 93       	push	r18
    1a1a:	3f 93       	push	r19
    1a1c:	4f 93       	push	r20
    1a1e:	5f 93       	push	r21
    1a20:	6f 93       	push	r22
    1a22:	7f 93       	push	r23
    1a24:	8f 93       	push	r24
    1a26:	9f 93       	push	r25
    1a28:	af 93       	push	r26
    1a2a:	bf 93       	push	r27
    1a2c:	ef 93       	push	r30
    1a2e:	ff 93       	push	r31
    1a30:	cf 93       	push	r28
    1a32:	df 93       	push	r29
    1a34:	cd b7       	in	r28, 0x3d	; 61
    1a36:	de b7       	in	r29, 0x3e	; 62
	if (tc_tcc0_ccd_callback) {
    1a38:	80 91 26 20 	lds	r24, 0x2026
    1a3c:	90 91 27 20 	lds	r25, 0x2027
    1a40:	00 97       	sbiw	r24, 0x00	; 0
    1a42:	31 f0       	breq	.+12     	; 0x1a50 <__vector_19+0x44>
		tc_tcc0_ccd_callback();
    1a44:	80 91 26 20 	lds	r24, 0x2026
    1a48:	90 91 27 20 	lds	r25, 0x2027
    1a4c:	fc 01       	movw	r30, r24
    1a4e:	09 95       	icall
	}
}
    1a50:	df 91       	pop	r29
    1a52:	cf 91       	pop	r28
    1a54:	ff 91       	pop	r31
    1a56:	ef 91       	pop	r30
    1a58:	bf 91       	pop	r27
    1a5a:	af 91       	pop	r26
    1a5c:	9f 91       	pop	r25
    1a5e:	8f 91       	pop	r24
    1a60:	7f 91       	pop	r23
    1a62:	6f 91       	pop	r22
    1a64:	5f 91       	pop	r21
    1a66:	4f 91       	pop	r20
    1a68:	3f 91       	pop	r19
    1a6a:	2f 91       	pop	r18
    1a6c:	0f 90       	pop	r0
    1a6e:	00 92 3f 00 	sts	0x003F, r0
    1a72:	0f 90       	pop	r0
    1a74:	1f 90       	pop	r1
    1a76:	18 95       	reti

00001a78 <__vector_20>:
 *
 * This function will handle interrupt on Timer Counter C1 overflow and
 * call the callback function.
 */
ISR(TCC1_OVF_vect)
{
    1a78:	1f 92       	push	r1
    1a7a:	0f 92       	push	r0
    1a7c:	00 90 3f 00 	lds	r0, 0x003F
    1a80:	0f 92       	push	r0
    1a82:	11 24       	eor	r1, r1
    1a84:	2f 93       	push	r18
    1a86:	3f 93       	push	r19
    1a88:	4f 93       	push	r20
    1a8a:	5f 93       	push	r21
    1a8c:	6f 93       	push	r22
    1a8e:	7f 93       	push	r23
    1a90:	8f 93       	push	r24
    1a92:	9f 93       	push	r25
    1a94:	af 93       	push	r26
    1a96:	bf 93       	push	r27
    1a98:	ef 93       	push	r30
    1a9a:	ff 93       	push	r31
    1a9c:	cf 93       	push	r28
    1a9e:	df 93       	push	r29
    1aa0:	cd b7       	in	r28, 0x3d	; 61
    1aa2:	de b7       	in	r29, 0x3e	; 62
	if (tc_tcc1_ovf_callback) {
    1aa4:	80 91 28 20 	lds	r24, 0x2028
    1aa8:	90 91 29 20 	lds	r25, 0x2029
    1aac:	00 97       	sbiw	r24, 0x00	; 0
    1aae:	31 f0       	breq	.+12     	; 0x1abc <__vector_20+0x44>
		tc_tcc1_ovf_callback();
    1ab0:	80 91 28 20 	lds	r24, 0x2028
    1ab4:	90 91 29 20 	lds	r25, 0x2029
    1ab8:	fc 01       	movw	r30, r24
    1aba:	09 95       	icall
	}
}
    1abc:	df 91       	pop	r29
    1abe:	cf 91       	pop	r28
    1ac0:	ff 91       	pop	r31
    1ac2:	ef 91       	pop	r30
    1ac4:	bf 91       	pop	r27
    1ac6:	af 91       	pop	r26
    1ac8:	9f 91       	pop	r25
    1aca:	8f 91       	pop	r24
    1acc:	7f 91       	pop	r23
    1ace:	6f 91       	pop	r22
    1ad0:	5f 91       	pop	r21
    1ad2:	4f 91       	pop	r20
    1ad4:	3f 91       	pop	r19
    1ad6:	2f 91       	pop	r18
    1ad8:	0f 90       	pop	r0
    1ada:	00 92 3f 00 	sts	0x003F, r0
    1ade:	0f 90       	pop	r0
    1ae0:	1f 90       	pop	r1
    1ae2:	18 95       	reti

00001ae4 <__vector_21>:
 *
 * This function will handle interrupt on Timer Counter C1 error and
 * call the callback function.
 */
ISR(TCC1_ERR_vect)
{
    1ae4:	1f 92       	push	r1
    1ae6:	0f 92       	push	r0
    1ae8:	00 90 3f 00 	lds	r0, 0x003F
    1aec:	0f 92       	push	r0
    1aee:	11 24       	eor	r1, r1
    1af0:	2f 93       	push	r18
    1af2:	3f 93       	push	r19
    1af4:	4f 93       	push	r20
    1af6:	5f 93       	push	r21
    1af8:	6f 93       	push	r22
    1afa:	7f 93       	push	r23
    1afc:	8f 93       	push	r24
    1afe:	9f 93       	push	r25
    1b00:	af 93       	push	r26
    1b02:	bf 93       	push	r27
    1b04:	ef 93       	push	r30
    1b06:	ff 93       	push	r31
    1b08:	cf 93       	push	r28
    1b0a:	df 93       	push	r29
    1b0c:	cd b7       	in	r28, 0x3d	; 61
    1b0e:	de b7       	in	r29, 0x3e	; 62
	if (tc_tcc1_err_callback) {
    1b10:	80 91 2a 20 	lds	r24, 0x202A
    1b14:	90 91 2b 20 	lds	r25, 0x202B
    1b18:	00 97       	sbiw	r24, 0x00	; 0
    1b1a:	31 f0       	breq	.+12     	; 0x1b28 <__vector_21+0x44>
		tc_tcc1_err_callback();
    1b1c:	80 91 2a 20 	lds	r24, 0x202A
    1b20:	90 91 2b 20 	lds	r25, 0x202B
    1b24:	fc 01       	movw	r30, r24
    1b26:	09 95       	icall
	}
}
    1b28:	df 91       	pop	r29
    1b2a:	cf 91       	pop	r28
    1b2c:	ff 91       	pop	r31
    1b2e:	ef 91       	pop	r30
    1b30:	bf 91       	pop	r27
    1b32:	af 91       	pop	r26
    1b34:	9f 91       	pop	r25
    1b36:	8f 91       	pop	r24
    1b38:	7f 91       	pop	r23
    1b3a:	6f 91       	pop	r22
    1b3c:	5f 91       	pop	r21
    1b3e:	4f 91       	pop	r20
    1b40:	3f 91       	pop	r19
    1b42:	2f 91       	pop	r18
    1b44:	0f 90       	pop	r0
    1b46:	00 92 3f 00 	sts	0x003F, r0
    1b4a:	0f 90       	pop	r0
    1b4c:	1f 90       	pop	r1
    1b4e:	18 95       	reti

00001b50 <__vector_22>:
 *
 * This function will handle interrupt on Timer Counter C1 Compare/CaptureA and
 * call the callback function.
 */
ISR(TCC1_CCA_vect)
{
    1b50:	1f 92       	push	r1
    1b52:	0f 92       	push	r0
    1b54:	00 90 3f 00 	lds	r0, 0x003F
    1b58:	0f 92       	push	r0
    1b5a:	11 24       	eor	r1, r1
    1b5c:	2f 93       	push	r18
    1b5e:	3f 93       	push	r19
    1b60:	4f 93       	push	r20
    1b62:	5f 93       	push	r21
    1b64:	6f 93       	push	r22
    1b66:	7f 93       	push	r23
    1b68:	8f 93       	push	r24
    1b6a:	9f 93       	push	r25
    1b6c:	af 93       	push	r26
    1b6e:	bf 93       	push	r27
    1b70:	ef 93       	push	r30
    1b72:	ff 93       	push	r31
    1b74:	cf 93       	push	r28
    1b76:	df 93       	push	r29
    1b78:	cd b7       	in	r28, 0x3d	; 61
    1b7a:	de b7       	in	r29, 0x3e	; 62
	if (tc_tcc1_cca_callback) {
    1b7c:	80 91 2c 20 	lds	r24, 0x202C
    1b80:	90 91 2d 20 	lds	r25, 0x202D
    1b84:	00 97       	sbiw	r24, 0x00	; 0
    1b86:	31 f0       	breq	.+12     	; 0x1b94 <__vector_22+0x44>
		tc_tcc1_cca_callback();
    1b88:	80 91 2c 20 	lds	r24, 0x202C
    1b8c:	90 91 2d 20 	lds	r25, 0x202D
    1b90:	fc 01       	movw	r30, r24
    1b92:	09 95       	icall
	}
}
    1b94:	df 91       	pop	r29
    1b96:	cf 91       	pop	r28
    1b98:	ff 91       	pop	r31
    1b9a:	ef 91       	pop	r30
    1b9c:	bf 91       	pop	r27
    1b9e:	af 91       	pop	r26
    1ba0:	9f 91       	pop	r25
    1ba2:	8f 91       	pop	r24
    1ba4:	7f 91       	pop	r23
    1ba6:	6f 91       	pop	r22
    1ba8:	5f 91       	pop	r21
    1baa:	4f 91       	pop	r20
    1bac:	3f 91       	pop	r19
    1bae:	2f 91       	pop	r18
    1bb0:	0f 90       	pop	r0
    1bb2:	00 92 3f 00 	sts	0x003F, r0
    1bb6:	0f 90       	pop	r0
    1bb8:	1f 90       	pop	r1
    1bba:	18 95       	reti

00001bbc <__vector_23>:
 *
 * This function will handle interrupt on Timer Counter C1 Compare/CaptureB and
 * call the callback function.
 */
ISR(TCC1_CCB_vect)
{
    1bbc:	1f 92       	push	r1
    1bbe:	0f 92       	push	r0
    1bc0:	00 90 3f 00 	lds	r0, 0x003F
    1bc4:	0f 92       	push	r0
    1bc6:	11 24       	eor	r1, r1
    1bc8:	2f 93       	push	r18
    1bca:	3f 93       	push	r19
    1bcc:	4f 93       	push	r20
    1bce:	5f 93       	push	r21
    1bd0:	6f 93       	push	r22
    1bd2:	7f 93       	push	r23
    1bd4:	8f 93       	push	r24
    1bd6:	9f 93       	push	r25
    1bd8:	af 93       	push	r26
    1bda:	bf 93       	push	r27
    1bdc:	ef 93       	push	r30
    1bde:	ff 93       	push	r31
    1be0:	cf 93       	push	r28
    1be2:	df 93       	push	r29
    1be4:	cd b7       	in	r28, 0x3d	; 61
    1be6:	de b7       	in	r29, 0x3e	; 62
	if (tc_tcc1_ccb_callback) {
    1be8:	80 91 2e 20 	lds	r24, 0x202E
    1bec:	90 91 2f 20 	lds	r25, 0x202F
    1bf0:	00 97       	sbiw	r24, 0x00	; 0
    1bf2:	31 f0       	breq	.+12     	; 0x1c00 <__vector_23+0x44>
		tc_tcc1_ccb_callback();
    1bf4:	80 91 2e 20 	lds	r24, 0x202E
    1bf8:	90 91 2f 20 	lds	r25, 0x202F
    1bfc:	fc 01       	movw	r30, r24
    1bfe:	09 95       	icall
	}
}
    1c00:	df 91       	pop	r29
    1c02:	cf 91       	pop	r28
    1c04:	ff 91       	pop	r31
    1c06:	ef 91       	pop	r30
    1c08:	bf 91       	pop	r27
    1c0a:	af 91       	pop	r26
    1c0c:	9f 91       	pop	r25
    1c0e:	8f 91       	pop	r24
    1c10:	7f 91       	pop	r23
    1c12:	6f 91       	pop	r22
    1c14:	5f 91       	pop	r21
    1c16:	4f 91       	pop	r20
    1c18:	3f 91       	pop	r19
    1c1a:	2f 91       	pop	r18
    1c1c:	0f 90       	pop	r0
    1c1e:	00 92 3f 00 	sts	0x003F, r0
    1c22:	0f 90       	pop	r0
    1c24:	1f 90       	pop	r1
    1c26:	18 95       	reti

00001c28 <__vector_78>:
 *
 * This function will handle interrupt on Timer Counter D0 error and
 * call the callback function.
 */
ISR(TCD0_ERR_vect)
{
    1c28:	1f 92       	push	r1
    1c2a:	0f 92       	push	r0
    1c2c:	00 90 3f 00 	lds	r0, 0x003F
    1c30:	0f 92       	push	r0
    1c32:	11 24       	eor	r1, r1
    1c34:	2f 93       	push	r18
    1c36:	3f 93       	push	r19
    1c38:	4f 93       	push	r20
    1c3a:	5f 93       	push	r21
    1c3c:	6f 93       	push	r22
    1c3e:	7f 93       	push	r23
    1c40:	8f 93       	push	r24
    1c42:	9f 93       	push	r25
    1c44:	af 93       	push	r26
    1c46:	bf 93       	push	r27
    1c48:	ef 93       	push	r30
    1c4a:	ff 93       	push	r31
    1c4c:	cf 93       	push	r28
    1c4e:	df 93       	push	r29
    1c50:	cd b7       	in	r28, 0x3d	; 61
    1c52:	de b7       	in	r29, 0x3e	; 62
	if (tc_tcd0_err_callback) {
    1c54:	80 91 30 20 	lds	r24, 0x2030
    1c58:	90 91 31 20 	lds	r25, 0x2031
    1c5c:	00 97       	sbiw	r24, 0x00	; 0
    1c5e:	31 f0       	breq	.+12     	; 0x1c6c <__vector_78+0x44>
		tc_tcd0_err_callback();
    1c60:	80 91 30 20 	lds	r24, 0x2030
    1c64:	90 91 31 20 	lds	r25, 0x2031
    1c68:	fc 01       	movw	r30, r24
    1c6a:	09 95       	icall
	}
}
    1c6c:	df 91       	pop	r29
    1c6e:	cf 91       	pop	r28
    1c70:	ff 91       	pop	r31
    1c72:	ef 91       	pop	r30
    1c74:	bf 91       	pop	r27
    1c76:	af 91       	pop	r26
    1c78:	9f 91       	pop	r25
    1c7a:	8f 91       	pop	r24
    1c7c:	7f 91       	pop	r23
    1c7e:	6f 91       	pop	r22
    1c80:	5f 91       	pop	r21
    1c82:	4f 91       	pop	r20
    1c84:	3f 91       	pop	r19
    1c86:	2f 91       	pop	r18
    1c88:	0f 90       	pop	r0
    1c8a:	00 92 3f 00 	sts	0x003F, r0
    1c8e:	0f 90       	pop	r0
    1c90:	1f 90       	pop	r1
    1c92:	18 95       	reti

00001c94 <__vector_79>:
 *
 * This function will handle interrupt on Timer Counter D0 Compare/CaptureA and
 * call the callback function.
 */
ISR(TCD0_CCA_vect)
{
    1c94:	1f 92       	push	r1
    1c96:	0f 92       	push	r0
    1c98:	00 90 3f 00 	lds	r0, 0x003F
    1c9c:	0f 92       	push	r0
    1c9e:	11 24       	eor	r1, r1
    1ca0:	2f 93       	push	r18
    1ca2:	3f 93       	push	r19
    1ca4:	4f 93       	push	r20
    1ca6:	5f 93       	push	r21
    1ca8:	6f 93       	push	r22
    1caa:	7f 93       	push	r23
    1cac:	8f 93       	push	r24
    1cae:	9f 93       	push	r25
    1cb0:	af 93       	push	r26
    1cb2:	bf 93       	push	r27
    1cb4:	ef 93       	push	r30
    1cb6:	ff 93       	push	r31
    1cb8:	cf 93       	push	r28
    1cba:	df 93       	push	r29
    1cbc:	cd b7       	in	r28, 0x3d	; 61
    1cbe:	de b7       	in	r29, 0x3e	; 62
	if (tc_tcd0_cca_callback) {
    1cc0:	80 91 32 20 	lds	r24, 0x2032
    1cc4:	90 91 33 20 	lds	r25, 0x2033
    1cc8:	00 97       	sbiw	r24, 0x00	; 0
    1cca:	31 f0       	breq	.+12     	; 0x1cd8 <__vector_79+0x44>
		tc_tcd0_cca_callback();
    1ccc:	80 91 32 20 	lds	r24, 0x2032
    1cd0:	90 91 33 20 	lds	r25, 0x2033
    1cd4:	fc 01       	movw	r30, r24
    1cd6:	09 95       	icall
	}
}
    1cd8:	df 91       	pop	r29
    1cda:	cf 91       	pop	r28
    1cdc:	ff 91       	pop	r31
    1cde:	ef 91       	pop	r30
    1ce0:	bf 91       	pop	r27
    1ce2:	af 91       	pop	r26
    1ce4:	9f 91       	pop	r25
    1ce6:	8f 91       	pop	r24
    1ce8:	7f 91       	pop	r23
    1cea:	6f 91       	pop	r22
    1cec:	5f 91       	pop	r21
    1cee:	4f 91       	pop	r20
    1cf0:	3f 91       	pop	r19
    1cf2:	2f 91       	pop	r18
    1cf4:	0f 90       	pop	r0
    1cf6:	00 92 3f 00 	sts	0x003F, r0
    1cfa:	0f 90       	pop	r0
    1cfc:	1f 90       	pop	r1
    1cfe:	18 95       	reti

00001d00 <__vector_80>:
 *
 * This function will handle interrupt on Timer Counter D0 Compare/CaptureB and
 * call the callback function.
 */
ISR(TCD0_CCB_vect)
{
    1d00:	1f 92       	push	r1
    1d02:	0f 92       	push	r0
    1d04:	00 90 3f 00 	lds	r0, 0x003F
    1d08:	0f 92       	push	r0
    1d0a:	11 24       	eor	r1, r1
    1d0c:	2f 93       	push	r18
    1d0e:	3f 93       	push	r19
    1d10:	4f 93       	push	r20
    1d12:	5f 93       	push	r21
    1d14:	6f 93       	push	r22
    1d16:	7f 93       	push	r23
    1d18:	8f 93       	push	r24
    1d1a:	9f 93       	push	r25
    1d1c:	af 93       	push	r26
    1d1e:	bf 93       	push	r27
    1d20:	ef 93       	push	r30
    1d22:	ff 93       	push	r31
    1d24:	cf 93       	push	r28
    1d26:	df 93       	push	r29
    1d28:	cd b7       	in	r28, 0x3d	; 61
    1d2a:	de b7       	in	r29, 0x3e	; 62
	if (tc_tcd0_ccb_callback) {
    1d2c:	80 91 34 20 	lds	r24, 0x2034
    1d30:	90 91 35 20 	lds	r25, 0x2035
    1d34:	00 97       	sbiw	r24, 0x00	; 0
    1d36:	31 f0       	breq	.+12     	; 0x1d44 <__vector_80+0x44>
		tc_tcd0_ccb_callback();
    1d38:	80 91 34 20 	lds	r24, 0x2034
    1d3c:	90 91 35 20 	lds	r25, 0x2035
    1d40:	fc 01       	movw	r30, r24
    1d42:	09 95       	icall
	}
}
    1d44:	df 91       	pop	r29
    1d46:	cf 91       	pop	r28
    1d48:	ff 91       	pop	r31
    1d4a:	ef 91       	pop	r30
    1d4c:	bf 91       	pop	r27
    1d4e:	af 91       	pop	r26
    1d50:	9f 91       	pop	r25
    1d52:	8f 91       	pop	r24
    1d54:	7f 91       	pop	r23
    1d56:	6f 91       	pop	r22
    1d58:	5f 91       	pop	r21
    1d5a:	4f 91       	pop	r20
    1d5c:	3f 91       	pop	r19
    1d5e:	2f 91       	pop	r18
    1d60:	0f 90       	pop	r0
    1d62:	00 92 3f 00 	sts	0x003F, r0
    1d66:	0f 90       	pop	r0
    1d68:	1f 90       	pop	r1
    1d6a:	18 95       	reti

00001d6c <__vector_81>:
 *
 * This function will handle interrupt on Timer Counter D0 Compare/CaptureC and
 * call the callback function.
 */
ISR(TCD0_CCC_vect)
{
    1d6c:	1f 92       	push	r1
    1d6e:	0f 92       	push	r0
    1d70:	00 90 3f 00 	lds	r0, 0x003F
    1d74:	0f 92       	push	r0
    1d76:	11 24       	eor	r1, r1
    1d78:	2f 93       	push	r18
    1d7a:	3f 93       	push	r19
    1d7c:	4f 93       	push	r20
    1d7e:	5f 93       	push	r21
    1d80:	6f 93       	push	r22
    1d82:	7f 93       	push	r23
    1d84:	8f 93       	push	r24
    1d86:	9f 93       	push	r25
    1d88:	af 93       	push	r26
    1d8a:	bf 93       	push	r27
    1d8c:	ef 93       	push	r30
    1d8e:	ff 93       	push	r31
    1d90:	cf 93       	push	r28
    1d92:	df 93       	push	r29
    1d94:	cd b7       	in	r28, 0x3d	; 61
    1d96:	de b7       	in	r29, 0x3e	; 62
	if (tc_tcd0_ccc_callback) {
    1d98:	80 91 36 20 	lds	r24, 0x2036
    1d9c:	90 91 37 20 	lds	r25, 0x2037
    1da0:	00 97       	sbiw	r24, 0x00	; 0
    1da2:	31 f0       	breq	.+12     	; 0x1db0 <__vector_81+0x44>
		tc_tcd0_ccc_callback();
    1da4:	80 91 36 20 	lds	r24, 0x2036
    1da8:	90 91 37 20 	lds	r25, 0x2037
    1dac:	fc 01       	movw	r30, r24
    1dae:	09 95       	icall
	}
}
    1db0:	df 91       	pop	r29
    1db2:	cf 91       	pop	r28
    1db4:	ff 91       	pop	r31
    1db6:	ef 91       	pop	r30
    1db8:	bf 91       	pop	r27
    1dba:	af 91       	pop	r26
    1dbc:	9f 91       	pop	r25
    1dbe:	8f 91       	pop	r24
    1dc0:	7f 91       	pop	r23
    1dc2:	6f 91       	pop	r22
    1dc4:	5f 91       	pop	r21
    1dc6:	4f 91       	pop	r20
    1dc8:	3f 91       	pop	r19
    1dca:	2f 91       	pop	r18
    1dcc:	0f 90       	pop	r0
    1dce:	00 92 3f 00 	sts	0x003F, r0
    1dd2:	0f 90       	pop	r0
    1dd4:	1f 90       	pop	r1
    1dd6:	18 95       	reti

00001dd8 <__vector_82>:
 *
 * This function will handle interrupt on Timer Counter D0 Compare/CaptureD and
 * call the callback function.
 */
ISR(TCD0_CCD_vect)
{
    1dd8:	1f 92       	push	r1
    1dda:	0f 92       	push	r0
    1ddc:	00 90 3f 00 	lds	r0, 0x003F
    1de0:	0f 92       	push	r0
    1de2:	11 24       	eor	r1, r1
    1de4:	2f 93       	push	r18
    1de6:	3f 93       	push	r19
    1de8:	4f 93       	push	r20
    1dea:	5f 93       	push	r21
    1dec:	6f 93       	push	r22
    1dee:	7f 93       	push	r23
    1df0:	8f 93       	push	r24
    1df2:	9f 93       	push	r25
    1df4:	af 93       	push	r26
    1df6:	bf 93       	push	r27
    1df8:	ef 93       	push	r30
    1dfa:	ff 93       	push	r31
    1dfc:	cf 93       	push	r28
    1dfe:	df 93       	push	r29
    1e00:	cd b7       	in	r28, 0x3d	; 61
    1e02:	de b7       	in	r29, 0x3e	; 62
	if (tc_tcd0_ccd_callback) {
    1e04:	80 91 38 20 	lds	r24, 0x2038
    1e08:	90 91 39 20 	lds	r25, 0x2039
    1e0c:	00 97       	sbiw	r24, 0x00	; 0
    1e0e:	31 f0       	breq	.+12     	; 0x1e1c <__vector_82+0x44>
		tc_tcd0_ccd_callback();
    1e10:	80 91 38 20 	lds	r24, 0x2038
    1e14:	90 91 39 20 	lds	r25, 0x2039
    1e18:	fc 01       	movw	r30, r24
    1e1a:	09 95       	icall
	}
}
    1e1c:	df 91       	pop	r29
    1e1e:	cf 91       	pop	r28
    1e20:	ff 91       	pop	r31
    1e22:	ef 91       	pop	r30
    1e24:	bf 91       	pop	r27
    1e26:	af 91       	pop	r26
    1e28:	9f 91       	pop	r25
    1e2a:	8f 91       	pop	r24
    1e2c:	7f 91       	pop	r23
    1e2e:	6f 91       	pop	r22
    1e30:	5f 91       	pop	r21
    1e32:	4f 91       	pop	r20
    1e34:	3f 91       	pop	r19
    1e36:	2f 91       	pop	r18
    1e38:	0f 90       	pop	r0
    1e3a:	00 92 3f 00 	sts	0x003F, r0
    1e3e:	0f 90       	pop	r0
    1e40:	1f 90       	pop	r1
    1e42:	18 95       	reti

00001e44 <__vector_84>:
 *
 * This function will handle interrupt on Timer Counter D1 error and
 * call the callback function.
 */
ISR(TCD1_ERR_vect)
{
    1e44:	1f 92       	push	r1
    1e46:	0f 92       	push	r0
    1e48:	00 90 3f 00 	lds	r0, 0x003F
    1e4c:	0f 92       	push	r0
    1e4e:	11 24       	eor	r1, r1
    1e50:	2f 93       	push	r18
    1e52:	3f 93       	push	r19
    1e54:	4f 93       	push	r20
    1e56:	5f 93       	push	r21
    1e58:	6f 93       	push	r22
    1e5a:	7f 93       	push	r23
    1e5c:	8f 93       	push	r24
    1e5e:	9f 93       	push	r25
    1e60:	af 93       	push	r26
    1e62:	bf 93       	push	r27
    1e64:	ef 93       	push	r30
    1e66:	ff 93       	push	r31
    1e68:	cf 93       	push	r28
    1e6a:	df 93       	push	r29
    1e6c:	cd b7       	in	r28, 0x3d	; 61
    1e6e:	de b7       	in	r29, 0x3e	; 62
	if (tc_tcd1_err_callback) {
    1e70:	80 91 3a 20 	lds	r24, 0x203A
    1e74:	90 91 3b 20 	lds	r25, 0x203B
    1e78:	00 97       	sbiw	r24, 0x00	; 0
    1e7a:	31 f0       	breq	.+12     	; 0x1e88 <__vector_84+0x44>
		tc_tcd1_err_callback();
    1e7c:	80 91 3a 20 	lds	r24, 0x203A
    1e80:	90 91 3b 20 	lds	r25, 0x203B
    1e84:	fc 01       	movw	r30, r24
    1e86:	09 95       	icall
	}
}
    1e88:	df 91       	pop	r29
    1e8a:	cf 91       	pop	r28
    1e8c:	ff 91       	pop	r31
    1e8e:	ef 91       	pop	r30
    1e90:	bf 91       	pop	r27
    1e92:	af 91       	pop	r26
    1e94:	9f 91       	pop	r25
    1e96:	8f 91       	pop	r24
    1e98:	7f 91       	pop	r23
    1e9a:	6f 91       	pop	r22
    1e9c:	5f 91       	pop	r21
    1e9e:	4f 91       	pop	r20
    1ea0:	3f 91       	pop	r19
    1ea2:	2f 91       	pop	r18
    1ea4:	0f 90       	pop	r0
    1ea6:	00 92 3f 00 	sts	0x003F, r0
    1eaa:	0f 90       	pop	r0
    1eac:	1f 90       	pop	r1
    1eae:	18 95       	reti

00001eb0 <__vector_85>:
 *
 * This function will handle interrupt on Timer Counter D1 Compare/CaptureA and
 * call the callback function.
 */
ISR(TCD1_CCA_vect)
{
    1eb0:	1f 92       	push	r1
    1eb2:	0f 92       	push	r0
    1eb4:	00 90 3f 00 	lds	r0, 0x003F
    1eb8:	0f 92       	push	r0
    1eba:	11 24       	eor	r1, r1
    1ebc:	2f 93       	push	r18
    1ebe:	3f 93       	push	r19
    1ec0:	4f 93       	push	r20
    1ec2:	5f 93       	push	r21
    1ec4:	6f 93       	push	r22
    1ec6:	7f 93       	push	r23
    1ec8:	8f 93       	push	r24
    1eca:	9f 93       	push	r25
    1ecc:	af 93       	push	r26
    1ece:	bf 93       	push	r27
    1ed0:	ef 93       	push	r30
    1ed2:	ff 93       	push	r31
    1ed4:	cf 93       	push	r28
    1ed6:	df 93       	push	r29
    1ed8:	cd b7       	in	r28, 0x3d	; 61
    1eda:	de b7       	in	r29, 0x3e	; 62
	if (tc_tcd1_cca_callback) {
    1edc:	80 91 3c 20 	lds	r24, 0x203C
    1ee0:	90 91 3d 20 	lds	r25, 0x203D
    1ee4:	00 97       	sbiw	r24, 0x00	; 0
    1ee6:	31 f0       	breq	.+12     	; 0x1ef4 <__vector_85+0x44>
		tc_tcd1_cca_callback();
    1ee8:	80 91 3c 20 	lds	r24, 0x203C
    1eec:	90 91 3d 20 	lds	r25, 0x203D
    1ef0:	fc 01       	movw	r30, r24
    1ef2:	09 95       	icall
	}
}
    1ef4:	df 91       	pop	r29
    1ef6:	cf 91       	pop	r28
    1ef8:	ff 91       	pop	r31
    1efa:	ef 91       	pop	r30
    1efc:	bf 91       	pop	r27
    1efe:	af 91       	pop	r26
    1f00:	9f 91       	pop	r25
    1f02:	8f 91       	pop	r24
    1f04:	7f 91       	pop	r23
    1f06:	6f 91       	pop	r22
    1f08:	5f 91       	pop	r21
    1f0a:	4f 91       	pop	r20
    1f0c:	3f 91       	pop	r19
    1f0e:	2f 91       	pop	r18
    1f10:	0f 90       	pop	r0
    1f12:	00 92 3f 00 	sts	0x003F, r0
    1f16:	0f 90       	pop	r0
    1f18:	1f 90       	pop	r1
    1f1a:	18 95       	reti

00001f1c <__vector_86>:
 *
 * This function will handle interrupt on Timer Counter D1 Compare/CaptureB and
 * call the callback function.
 */
ISR(TCD1_CCB_vect)
{
    1f1c:	1f 92       	push	r1
    1f1e:	0f 92       	push	r0
    1f20:	00 90 3f 00 	lds	r0, 0x003F
    1f24:	0f 92       	push	r0
    1f26:	11 24       	eor	r1, r1
    1f28:	2f 93       	push	r18
    1f2a:	3f 93       	push	r19
    1f2c:	4f 93       	push	r20
    1f2e:	5f 93       	push	r21
    1f30:	6f 93       	push	r22
    1f32:	7f 93       	push	r23
    1f34:	8f 93       	push	r24
    1f36:	9f 93       	push	r25
    1f38:	af 93       	push	r26
    1f3a:	bf 93       	push	r27
    1f3c:	ef 93       	push	r30
    1f3e:	ff 93       	push	r31
    1f40:	cf 93       	push	r28
    1f42:	df 93       	push	r29
    1f44:	cd b7       	in	r28, 0x3d	; 61
    1f46:	de b7       	in	r29, 0x3e	; 62
	if (tc_tcd1_ccb_callback) {
    1f48:	80 91 3e 20 	lds	r24, 0x203E
    1f4c:	90 91 3f 20 	lds	r25, 0x203F
    1f50:	00 97       	sbiw	r24, 0x00	; 0
    1f52:	31 f0       	breq	.+12     	; 0x1f60 <__vector_86+0x44>
		tc_tcd1_ccb_callback();
    1f54:	80 91 3e 20 	lds	r24, 0x203E
    1f58:	90 91 3f 20 	lds	r25, 0x203F
    1f5c:	fc 01       	movw	r30, r24
    1f5e:	09 95       	icall
	}
}
    1f60:	df 91       	pop	r29
    1f62:	cf 91       	pop	r28
    1f64:	ff 91       	pop	r31
    1f66:	ef 91       	pop	r30
    1f68:	bf 91       	pop	r27
    1f6a:	af 91       	pop	r26
    1f6c:	9f 91       	pop	r25
    1f6e:	8f 91       	pop	r24
    1f70:	7f 91       	pop	r23
    1f72:	6f 91       	pop	r22
    1f74:	5f 91       	pop	r21
    1f76:	4f 91       	pop	r20
    1f78:	3f 91       	pop	r19
    1f7a:	2f 91       	pop	r18
    1f7c:	0f 90       	pop	r0
    1f7e:	00 92 3f 00 	sts	0x003F, r0
    1f82:	0f 90       	pop	r0
    1f84:	1f 90       	pop	r1
    1f86:	18 95       	reti

00001f88 <__vector_47>:
 *
 * This function will handle interrupt on Timer Counter E0 overflow and
 * call the callback function.
 */
ISR(TCE0_OVF_vect)
{
    1f88:	1f 92       	push	r1
    1f8a:	0f 92       	push	r0
    1f8c:	00 90 3f 00 	lds	r0, 0x003F
    1f90:	0f 92       	push	r0
    1f92:	11 24       	eor	r1, r1
    1f94:	2f 93       	push	r18
    1f96:	3f 93       	push	r19
    1f98:	4f 93       	push	r20
    1f9a:	5f 93       	push	r21
    1f9c:	6f 93       	push	r22
    1f9e:	7f 93       	push	r23
    1fa0:	8f 93       	push	r24
    1fa2:	9f 93       	push	r25
    1fa4:	af 93       	push	r26
    1fa6:	bf 93       	push	r27
    1fa8:	ef 93       	push	r30
    1faa:	ff 93       	push	r31
    1fac:	cf 93       	push	r28
    1fae:	df 93       	push	r29
    1fb0:	cd b7       	in	r28, 0x3d	; 61
    1fb2:	de b7       	in	r29, 0x3e	; 62
	if (tc_tce0_ovf_callback) {
    1fb4:	80 91 40 20 	lds	r24, 0x2040
    1fb8:	90 91 41 20 	lds	r25, 0x2041
    1fbc:	00 97       	sbiw	r24, 0x00	; 0
    1fbe:	31 f0       	breq	.+12     	; 0x1fcc <__vector_47+0x44>
		tc_tce0_ovf_callback();
    1fc0:	80 91 40 20 	lds	r24, 0x2040
    1fc4:	90 91 41 20 	lds	r25, 0x2041
    1fc8:	fc 01       	movw	r30, r24
    1fca:	09 95       	icall
	}
}
    1fcc:	df 91       	pop	r29
    1fce:	cf 91       	pop	r28
    1fd0:	ff 91       	pop	r31
    1fd2:	ef 91       	pop	r30
    1fd4:	bf 91       	pop	r27
    1fd6:	af 91       	pop	r26
    1fd8:	9f 91       	pop	r25
    1fda:	8f 91       	pop	r24
    1fdc:	7f 91       	pop	r23
    1fde:	6f 91       	pop	r22
    1fe0:	5f 91       	pop	r21
    1fe2:	4f 91       	pop	r20
    1fe4:	3f 91       	pop	r19
    1fe6:	2f 91       	pop	r18
    1fe8:	0f 90       	pop	r0
    1fea:	00 92 3f 00 	sts	0x003F, r0
    1fee:	0f 90       	pop	r0
    1ff0:	1f 90       	pop	r1
    1ff2:	18 95       	reti

00001ff4 <__vector_48>:
 *
 * This function will handle interrupt on Timer Counter E0 error and
 * call the callback function.
 */
ISR(TCE0_ERR_vect)
{
    1ff4:	1f 92       	push	r1
    1ff6:	0f 92       	push	r0
    1ff8:	00 90 3f 00 	lds	r0, 0x003F
    1ffc:	0f 92       	push	r0
    1ffe:	11 24       	eor	r1, r1
    2000:	2f 93       	push	r18
    2002:	3f 93       	push	r19
    2004:	4f 93       	push	r20
    2006:	5f 93       	push	r21
    2008:	6f 93       	push	r22
    200a:	7f 93       	push	r23
    200c:	8f 93       	push	r24
    200e:	9f 93       	push	r25
    2010:	af 93       	push	r26
    2012:	bf 93       	push	r27
    2014:	ef 93       	push	r30
    2016:	ff 93       	push	r31
    2018:	cf 93       	push	r28
    201a:	df 93       	push	r29
    201c:	cd b7       	in	r28, 0x3d	; 61
    201e:	de b7       	in	r29, 0x3e	; 62
	if (tc_tce0_err_callback) {
    2020:	80 91 42 20 	lds	r24, 0x2042
    2024:	90 91 43 20 	lds	r25, 0x2043
    2028:	00 97       	sbiw	r24, 0x00	; 0
    202a:	31 f0       	breq	.+12     	; 0x2038 <__vector_48+0x44>
		tc_tce0_err_callback();
    202c:	80 91 42 20 	lds	r24, 0x2042
    2030:	90 91 43 20 	lds	r25, 0x2043
    2034:	fc 01       	movw	r30, r24
    2036:	09 95       	icall
	}
}
    2038:	df 91       	pop	r29
    203a:	cf 91       	pop	r28
    203c:	ff 91       	pop	r31
    203e:	ef 91       	pop	r30
    2040:	bf 91       	pop	r27
    2042:	af 91       	pop	r26
    2044:	9f 91       	pop	r25
    2046:	8f 91       	pop	r24
    2048:	7f 91       	pop	r23
    204a:	6f 91       	pop	r22
    204c:	5f 91       	pop	r21
    204e:	4f 91       	pop	r20
    2050:	3f 91       	pop	r19
    2052:	2f 91       	pop	r18
    2054:	0f 90       	pop	r0
    2056:	00 92 3f 00 	sts	0x003F, r0
    205a:	0f 90       	pop	r0
    205c:	1f 90       	pop	r1
    205e:	18 95       	reti

00002060 <__vector_49>:
 *
 * This function will handle interrupt on Timer Counter E0 Compare/CaptureA and
 * call the callback function.
 */
ISR(TCE0_CCA_vect)
{
    2060:	1f 92       	push	r1
    2062:	0f 92       	push	r0
    2064:	00 90 3f 00 	lds	r0, 0x003F
    2068:	0f 92       	push	r0
    206a:	11 24       	eor	r1, r1
    206c:	2f 93       	push	r18
    206e:	3f 93       	push	r19
    2070:	4f 93       	push	r20
    2072:	5f 93       	push	r21
    2074:	6f 93       	push	r22
    2076:	7f 93       	push	r23
    2078:	8f 93       	push	r24
    207a:	9f 93       	push	r25
    207c:	af 93       	push	r26
    207e:	bf 93       	push	r27
    2080:	ef 93       	push	r30
    2082:	ff 93       	push	r31
    2084:	cf 93       	push	r28
    2086:	df 93       	push	r29
    2088:	cd b7       	in	r28, 0x3d	; 61
    208a:	de b7       	in	r29, 0x3e	; 62
	if (tc_tce0_cca_callback) {
    208c:	80 91 44 20 	lds	r24, 0x2044
    2090:	90 91 45 20 	lds	r25, 0x2045
    2094:	00 97       	sbiw	r24, 0x00	; 0
    2096:	31 f0       	breq	.+12     	; 0x20a4 <__vector_49+0x44>
		tc_tce0_cca_callback();
    2098:	80 91 44 20 	lds	r24, 0x2044
    209c:	90 91 45 20 	lds	r25, 0x2045
    20a0:	fc 01       	movw	r30, r24
    20a2:	09 95       	icall
	}
}
    20a4:	df 91       	pop	r29
    20a6:	cf 91       	pop	r28
    20a8:	ff 91       	pop	r31
    20aa:	ef 91       	pop	r30
    20ac:	bf 91       	pop	r27
    20ae:	af 91       	pop	r26
    20b0:	9f 91       	pop	r25
    20b2:	8f 91       	pop	r24
    20b4:	7f 91       	pop	r23
    20b6:	6f 91       	pop	r22
    20b8:	5f 91       	pop	r21
    20ba:	4f 91       	pop	r20
    20bc:	3f 91       	pop	r19
    20be:	2f 91       	pop	r18
    20c0:	0f 90       	pop	r0
    20c2:	00 92 3f 00 	sts	0x003F, r0
    20c6:	0f 90       	pop	r0
    20c8:	1f 90       	pop	r1
    20ca:	18 95       	reti

000020cc <__vector_50>:
 *
 * This function will handle interrupt on Timer Counter E0 Compare/CaptureB and
 * call the callback function.
 */
ISR(TCE0_CCB_vect)
{
    20cc:	1f 92       	push	r1
    20ce:	0f 92       	push	r0
    20d0:	00 90 3f 00 	lds	r0, 0x003F
    20d4:	0f 92       	push	r0
    20d6:	11 24       	eor	r1, r1
    20d8:	2f 93       	push	r18
    20da:	3f 93       	push	r19
    20dc:	4f 93       	push	r20
    20de:	5f 93       	push	r21
    20e0:	6f 93       	push	r22
    20e2:	7f 93       	push	r23
    20e4:	8f 93       	push	r24
    20e6:	9f 93       	push	r25
    20e8:	af 93       	push	r26
    20ea:	bf 93       	push	r27
    20ec:	ef 93       	push	r30
    20ee:	ff 93       	push	r31
    20f0:	cf 93       	push	r28
    20f2:	df 93       	push	r29
    20f4:	cd b7       	in	r28, 0x3d	; 61
    20f6:	de b7       	in	r29, 0x3e	; 62
	if (tc_tce0_ccb_callback) {
    20f8:	80 91 46 20 	lds	r24, 0x2046
    20fc:	90 91 47 20 	lds	r25, 0x2047
    2100:	00 97       	sbiw	r24, 0x00	; 0
    2102:	31 f0       	breq	.+12     	; 0x2110 <__vector_50+0x44>
		tc_tce0_ccb_callback();
    2104:	80 91 46 20 	lds	r24, 0x2046
    2108:	90 91 47 20 	lds	r25, 0x2047
    210c:	fc 01       	movw	r30, r24
    210e:	09 95       	icall
	}
}
    2110:	df 91       	pop	r29
    2112:	cf 91       	pop	r28
    2114:	ff 91       	pop	r31
    2116:	ef 91       	pop	r30
    2118:	bf 91       	pop	r27
    211a:	af 91       	pop	r26
    211c:	9f 91       	pop	r25
    211e:	8f 91       	pop	r24
    2120:	7f 91       	pop	r23
    2122:	6f 91       	pop	r22
    2124:	5f 91       	pop	r21
    2126:	4f 91       	pop	r20
    2128:	3f 91       	pop	r19
    212a:	2f 91       	pop	r18
    212c:	0f 90       	pop	r0
    212e:	00 92 3f 00 	sts	0x003F, r0
    2132:	0f 90       	pop	r0
    2134:	1f 90       	pop	r1
    2136:	18 95       	reti

00002138 <__vector_51>:
 *
 * This function will handle interrupt on Timer Counter E0 Compare/CaptureC and
 * call the callback function.
 */
ISR(TCE0_CCC_vect)
{
    2138:	1f 92       	push	r1
    213a:	0f 92       	push	r0
    213c:	00 90 3f 00 	lds	r0, 0x003F
    2140:	0f 92       	push	r0
    2142:	11 24       	eor	r1, r1
    2144:	2f 93       	push	r18
    2146:	3f 93       	push	r19
    2148:	4f 93       	push	r20
    214a:	5f 93       	push	r21
    214c:	6f 93       	push	r22
    214e:	7f 93       	push	r23
    2150:	8f 93       	push	r24
    2152:	9f 93       	push	r25
    2154:	af 93       	push	r26
    2156:	bf 93       	push	r27
    2158:	ef 93       	push	r30
    215a:	ff 93       	push	r31
    215c:	cf 93       	push	r28
    215e:	df 93       	push	r29
    2160:	cd b7       	in	r28, 0x3d	; 61
    2162:	de b7       	in	r29, 0x3e	; 62
	if (tc_tce0_ccc_callback) {
    2164:	80 91 48 20 	lds	r24, 0x2048
    2168:	90 91 49 20 	lds	r25, 0x2049
    216c:	00 97       	sbiw	r24, 0x00	; 0
    216e:	31 f0       	breq	.+12     	; 0x217c <__vector_51+0x44>
		tc_tce0_ccc_callback();
    2170:	80 91 48 20 	lds	r24, 0x2048
    2174:	90 91 49 20 	lds	r25, 0x2049
    2178:	fc 01       	movw	r30, r24
    217a:	09 95       	icall
	}
}
    217c:	df 91       	pop	r29
    217e:	cf 91       	pop	r28
    2180:	ff 91       	pop	r31
    2182:	ef 91       	pop	r30
    2184:	bf 91       	pop	r27
    2186:	af 91       	pop	r26
    2188:	9f 91       	pop	r25
    218a:	8f 91       	pop	r24
    218c:	7f 91       	pop	r23
    218e:	6f 91       	pop	r22
    2190:	5f 91       	pop	r21
    2192:	4f 91       	pop	r20
    2194:	3f 91       	pop	r19
    2196:	2f 91       	pop	r18
    2198:	0f 90       	pop	r0
    219a:	00 92 3f 00 	sts	0x003F, r0
    219e:	0f 90       	pop	r0
    21a0:	1f 90       	pop	r1
    21a2:	18 95       	reti

000021a4 <__vector_52>:
 *
 * This function will handle interrupt on Timer Counter E0 Compare/CaptureD and
 * call the callback function.
 */
ISR(TCE0_CCD_vect)
{
    21a4:	1f 92       	push	r1
    21a6:	0f 92       	push	r0
    21a8:	00 90 3f 00 	lds	r0, 0x003F
    21ac:	0f 92       	push	r0
    21ae:	11 24       	eor	r1, r1
    21b0:	2f 93       	push	r18
    21b2:	3f 93       	push	r19
    21b4:	4f 93       	push	r20
    21b6:	5f 93       	push	r21
    21b8:	6f 93       	push	r22
    21ba:	7f 93       	push	r23
    21bc:	8f 93       	push	r24
    21be:	9f 93       	push	r25
    21c0:	af 93       	push	r26
    21c2:	bf 93       	push	r27
    21c4:	ef 93       	push	r30
    21c6:	ff 93       	push	r31
    21c8:	cf 93       	push	r28
    21ca:	df 93       	push	r29
    21cc:	cd b7       	in	r28, 0x3d	; 61
    21ce:	de b7       	in	r29, 0x3e	; 62
	if (tc_tce0_ccd_callback) {
    21d0:	80 91 4a 20 	lds	r24, 0x204A
    21d4:	90 91 4b 20 	lds	r25, 0x204B
    21d8:	00 97       	sbiw	r24, 0x00	; 0
    21da:	31 f0       	breq	.+12     	; 0x21e8 <__vector_52+0x44>
		tc_tce0_ccd_callback();
    21dc:	80 91 4a 20 	lds	r24, 0x204A
    21e0:	90 91 4b 20 	lds	r25, 0x204B
    21e4:	fc 01       	movw	r30, r24
    21e6:	09 95       	icall
	}
}
    21e8:	df 91       	pop	r29
    21ea:	cf 91       	pop	r28
    21ec:	ff 91       	pop	r31
    21ee:	ef 91       	pop	r30
    21f0:	bf 91       	pop	r27
    21f2:	af 91       	pop	r26
    21f4:	9f 91       	pop	r25
    21f6:	8f 91       	pop	r24
    21f8:	7f 91       	pop	r23
    21fa:	6f 91       	pop	r22
    21fc:	5f 91       	pop	r21
    21fe:	4f 91       	pop	r20
    2200:	3f 91       	pop	r19
    2202:	2f 91       	pop	r18
    2204:	0f 90       	pop	r0
    2206:	00 92 3f 00 	sts	0x003F, r0
    220a:	0f 90       	pop	r0
    220c:	1f 90       	pop	r1
    220e:	18 95       	reti

00002210 <usart_rx_enable>:
    2210:	cf 93       	push	r28
    2212:	df 93       	push	r29
    2214:	00 d0       	rcall	.+0      	; 0x2216 <usart_rx_enable+0x6>
    2216:	cd b7       	in	r28, 0x3d	; 61
    2218:	de b7       	in	r29, 0x3e	; 62
    221a:	89 83       	std	Y+1, r24	; 0x01
    221c:	9a 83       	std	Y+2, r25	; 0x02
    221e:	89 81       	ldd	r24, Y+1	; 0x01
    2220:	9a 81       	ldd	r25, Y+2	; 0x02
    2222:	fc 01       	movw	r30, r24
    2224:	84 81       	ldd	r24, Z+4	; 0x04
    2226:	28 2f       	mov	r18, r24
    2228:	20 61       	ori	r18, 0x10	; 16
    222a:	89 81       	ldd	r24, Y+1	; 0x01
    222c:	9a 81       	ldd	r25, Y+2	; 0x02
    222e:	fc 01       	movw	r30, r24
    2230:	24 83       	std	Z+4, r18	; 0x04
    2232:	0f 90       	pop	r0
    2234:	0f 90       	pop	r0
    2236:	df 91       	pop	r29
    2238:	cf 91       	pop	r28
    223a:	08 95       	ret

0000223c <usart_format_set>:
    223c:	cf 93       	push	r28
    223e:	df 93       	push	r29
    2240:	cd b7       	in	r28, 0x3d	; 61
    2242:	de b7       	in	r29, 0x3e	; 62
    2244:	27 97       	sbiw	r28, 0x07	; 7
    2246:	cd bf       	out	0x3d, r28	; 61
    2248:	de bf       	out	0x3e, r29	; 62
    224a:	89 83       	std	Y+1, r24	; 0x01
    224c:	9a 83       	std	Y+2, r25	; 0x02
    224e:	6b 83       	std	Y+3, r22	; 0x03
    2250:	7c 83       	std	Y+4, r23	; 0x04
    2252:	4d 83       	std	Y+5, r20	; 0x05
    2254:	5e 83       	std	Y+6, r21	; 0x06
    2256:	2f 83       	std	Y+7, r18	; 0x07
    2258:	9b 81       	ldd	r25, Y+3	; 0x03
    225a:	8d 81       	ldd	r24, Y+5	; 0x05
    225c:	98 2b       	or	r25, r24
    225e:	8f 81       	ldd	r24, Y+7	; 0x07
    2260:	88 23       	and	r24, r24
    2262:	11 f0       	breq	.+4      	; 0x2268 <usart_format_set+0x2c>
    2264:	88 e0       	ldi	r24, 0x08	; 8
    2266:	01 c0       	rjmp	.+2      	; 0x226a <usart_format_set+0x2e>
    2268:	80 e0       	ldi	r24, 0x00	; 0
    226a:	29 2f       	mov	r18, r25
    226c:	28 2b       	or	r18, r24
    226e:	89 81       	ldd	r24, Y+1	; 0x01
    2270:	9a 81       	ldd	r25, Y+2	; 0x02
    2272:	fc 01       	movw	r30, r24
    2274:	25 83       	std	Z+5, r18	; 0x05
    2276:	27 96       	adiw	r28, 0x07	; 7
    2278:	cd bf       	out	0x3d, r28	; 61
    227a:	de bf       	out	0x3e, r29	; 62
    227c:	df 91       	pop	r29
    227e:	cf 91       	pop	r28
    2280:	08 95       	ret

00002282 <usart_tx_enable>:
    2282:	cf 93       	push	r28
    2284:	df 93       	push	r29
    2286:	00 d0       	rcall	.+0      	; 0x2288 <usart_tx_enable+0x6>
    2288:	cd b7       	in	r28, 0x3d	; 61
    228a:	de b7       	in	r29, 0x3e	; 62
    228c:	89 83       	std	Y+1, r24	; 0x01
    228e:	9a 83       	std	Y+2, r25	; 0x02
    2290:	89 81       	ldd	r24, Y+1	; 0x01
    2292:	9a 81       	ldd	r25, Y+2	; 0x02
    2294:	fc 01       	movw	r30, r24
    2296:	84 81       	ldd	r24, Z+4	; 0x04
    2298:	28 2f       	mov	r18, r24
    229a:	28 60       	ori	r18, 0x08	; 8
    229c:	89 81       	ldd	r24, Y+1	; 0x01
    229e:	9a 81       	ldd	r25, Y+2	; 0x02
    22a0:	fc 01       	movw	r30, r24
    22a2:	24 83       	std	Z+4, r18	; 0x04
    22a4:	0f 90       	pop	r0
    22a6:	0f 90       	pop	r0
    22a8:	df 91       	pop	r29
    22aa:	cf 91       	pop	r28
    22ac:	08 95       	ret

000022ae <usart_set_mode>:
    22ae:	cf 93       	push	r28
    22b0:	df 93       	push	r29
    22b2:	00 d0       	rcall	.+0      	; 0x22b4 <usart_set_mode+0x6>
    22b4:	00 d0       	rcall	.+0      	; 0x22b6 <usart_set_mode+0x8>
    22b6:	cd b7       	in	r28, 0x3d	; 61
    22b8:	de b7       	in	r29, 0x3e	; 62
    22ba:	89 83       	std	Y+1, r24	; 0x01
    22bc:	9a 83       	std	Y+2, r25	; 0x02
    22be:	6b 83       	std	Y+3, r22	; 0x03
    22c0:	7c 83       	std	Y+4, r23	; 0x04
    22c2:	89 81       	ldd	r24, Y+1	; 0x01
    22c4:	9a 81       	ldd	r25, Y+2	; 0x02
    22c6:	fc 01       	movw	r30, r24
    22c8:	85 81       	ldd	r24, Z+5	; 0x05
    22ca:	98 2f       	mov	r25, r24
    22cc:	9f 73       	andi	r25, 0x3F	; 63
    22ce:	8b 81       	ldd	r24, Y+3	; 0x03
    22d0:	29 2f       	mov	r18, r25
    22d2:	28 2b       	or	r18, r24
    22d4:	89 81       	ldd	r24, Y+1	; 0x01
    22d6:	9a 81       	ldd	r25, Y+2	; 0x02
    22d8:	fc 01       	movw	r30, r24
    22da:	25 83       	std	Z+5, r18	; 0x05
    22dc:	24 96       	adiw	r28, 0x04	; 4
    22de:	cd bf       	out	0x3d, r28	; 61
    22e0:	de bf       	out	0x3e, r29	; 62
    22e2:	df 91       	pop	r29
    22e4:	cf 91       	pop	r28
    22e6:	08 95       	ret

000022e8 <usart_data_register_is_empty>:
    22e8:	cf 93       	push	r28
    22ea:	df 93       	push	r29
    22ec:	00 d0       	rcall	.+0      	; 0x22ee <usart_data_register_is_empty+0x6>
    22ee:	cd b7       	in	r28, 0x3d	; 61
    22f0:	de b7       	in	r29, 0x3e	; 62
    22f2:	89 83       	std	Y+1, r24	; 0x01
    22f4:	9a 83       	std	Y+2, r25	; 0x02
    22f6:	89 81       	ldd	r24, Y+1	; 0x01
    22f8:	9a 81       	ldd	r25, Y+2	; 0x02
    22fa:	fc 01       	movw	r30, r24
    22fc:	81 81       	ldd	r24, Z+1	; 0x01
    22fe:	88 2f       	mov	r24, r24
    2300:	90 e0       	ldi	r25, 0x00	; 0
    2302:	80 72       	andi	r24, 0x20	; 32
    2304:	99 27       	eor	r25, r25
    2306:	21 e0       	ldi	r18, 0x01	; 1
    2308:	00 97       	sbiw	r24, 0x00	; 0
    230a:	09 f4       	brne	.+2      	; 0x230e <usart_data_register_is_empty+0x26>
    230c:	20 e0       	ldi	r18, 0x00	; 0
    230e:	82 2f       	mov	r24, r18
    2310:	0f 90       	pop	r0
    2312:	0f 90       	pop	r0
    2314:	df 91       	pop	r29
    2316:	cf 91       	pop	r28
    2318:	08 95       	ret

0000231a <usart_rx_is_complete>:
    231a:	cf 93       	push	r28
    231c:	df 93       	push	r29
    231e:	00 d0       	rcall	.+0      	; 0x2320 <usart_rx_is_complete+0x6>
    2320:	cd b7       	in	r28, 0x3d	; 61
    2322:	de b7       	in	r29, 0x3e	; 62
    2324:	89 83       	std	Y+1, r24	; 0x01
    2326:	9a 83       	std	Y+2, r25	; 0x02
    2328:	89 81       	ldd	r24, Y+1	; 0x01
    232a:	9a 81       	ldd	r25, Y+2	; 0x02
    232c:	fc 01       	movw	r30, r24
    232e:	81 81       	ldd	r24, Z+1	; 0x01
    2330:	88 2f       	mov	r24, r24
    2332:	90 e0       	ldi	r25, 0x00	; 0
    2334:	80 78       	andi	r24, 0x80	; 128
    2336:	99 27       	eor	r25, r25
    2338:	21 e0       	ldi	r18, 0x01	; 1
    233a:	00 97       	sbiw	r24, 0x00	; 0
    233c:	09 f4       	brne	.+2      	; 0x2340 <usart_rx_is_complete+0x26>
    233e:	20 e0       	ldi	r18, 0x00	; 0
    2340:	82 2f       	mov	r24, r18
    2342:	0f 90       	pop	r0
    2344:	0f 90       	pop	r0
    2346:	df 91       	pop	r29
    2348:	cf 91       	pop	r28
    234a:	08 95       	ret

0000234c <sysclk_get_main_hz>:
    234c:	cf 93       	push	r28
    234e:	df 93       	push	r29
    2350:	cd b7       	in	r28, 0x3d	; 61
    2352:	de b7       	in	r29, 0x3e	; 62
    2354:	80 e0       	ldi	r24, 0x00	; 0
    2356:	98 e4       	ldi	r25, 0x48	; 72
    2358:	a8 ee       	ldi	r26, 0xE8	; 232
    235a:	b1 e0       	ldi	r27, 0x01	; 1
    235c:	bc 01       	movw	r22, r24
    235e:	cd 01       	movw	r24, r26
    2360:	df 91       	pop	r29
    2362:	cf 91       	pop	r28
    2364:	08 95       	ret

00002366 <sysclk_get_per4_hz>:
    2366:	cf 93       	push	r28
    2368:	df 93       	push	r29
    236a:	1f 92       	push	r1
    236c:	cd b7       	in	r28, 0x3d	; 61
    236e:	de b7       	in	r29, 0x3e	; 62
    2370:	19 82       	std	Y+1, r1	; 0x01
    2372:	ec df       	rcall	.-40     	; 0x234c <sysclk_get_main_hz>
    2374:	dc 01       	movw	r26, r24
    2376:	cb 01       	movw	r24, r22
    2378:	29 81       	ldd	r18, Y+1	; 0x01
    237a:	22 2f       	mov	r18, r18
    237c:	30 e0       	ldi	r19, 0x00	; 0
    237e:	02 2e       	mov	r0, r18
    2380:	04 c0       	rjmp	.+8      	; 0x238a <sysclk_get_per4_hz+0x24>
    2382:	b6 95       	lsr	r27
    2384:	a7 95       	ror	r26
    2386:	97 95       	ror	r25
    2388:	87 95       	ror	r24
    238a:	0a 94       	dec	r0
    238c:	d2 f7       	brpl	.-12     	; 0x2382 <sysclk_get_per4_hz+0x1c>
    238e:	bc 01       	movw	r22, r24
    2390:	cd 01       	movw	r24, r26
    2392:	0f 90       	pop	r0
    2394:	df 91       	pop	r29
    2396:	cf 91       	pop	r28
    2398:	08 95       	ret

0000239a <sysclk_get_per2_hz>:
    239a:	cf 93       	push	r28
    239c:	df 93       	push	r29
    239e:	cd b7       	in	r28, 0x3d	; 61
    23a0:	de b7       	in	r29, 0x3e	; 62
    23a2:	e1 df       	rcall	.-62     	; 0x2366 <sysclk_get_per4_hz>
    23a4:	dc 01       	movw	r26, r24
    23a6:	cb 01       	movw	r24, r22
    23a8:	bc 01       	movw	r22, r24
    23aa:	cd 01       	movw	r24, r26
    23ac:	df 91       	pop	r29
    23ae:	cf 91       	pop	r28
    23b0:	08 95       	ret

000023b2 <sysclk_get_per_hz>:
    23b2:	cf 93       	push	r28
    23b4:	df 93       	push	r29
    23b6:	cd b7       	in	r28, 0x3d	; 61
    23b8:	de b7       	in	r29, 0x3e	; 62
    23ba:	ef df       	rcall	.-34     	; 0x239a <sysclk_get_per2_hz>
    23bc:	dc 01       	movw	r26, r24
    23be:	cb 01       	movw	r24, r22
    23c0:	bc 01       	movw	r22, r24
    23c2:	cd 01       	movw	r24, r26
    23c4:	df 91       	pop	r29
    23c6:	cf 91       	pop	r28
    23c8:	08 95       	ret

000023ca <sysclk_enable_peripheral_clock>:
    23ca:	cf 93       	push	r28
    23cc:	df 93       	push	r29
    23ce:	00 d0       	rcall	.+0      	; 0x23d0 <sysclk_enable_peripheral_clock+0x6>
    23d0:	cd b7       	in	r28, 0x3d	; 61
    23d2:	de b7       	in	r29, 0x3e	; 62
    23d4:	89 83       	std	Y+1, r24	; 0x01
    23d6:	9a 83       	std	Y+2, r25	; 0x02
    23d8:	89 81       	ldd	r24, Y+1	; 0x01
    23da:	9a 81       	ldd	r25, Y+2	; 0x02
    23dc:	00 97       	sbiw	r24, 0x00	; 0
    23de:	09 f4       	brne	.+2      	; 0x23e2 <sysclk_enable_peripheral_clock+0x18>
    23e0:	1e c1       	rjmp	.+572    	; 0x261e <sysclk_enable_peripheral_clock+0x254>
    23e2:	89 81       	ldd	r24, Y+1	; 0x01
    23e4:	9a 81       	ldd	r25, Y+2	; 0x02
    23e6:	80 3c       	cpi	r24, 0xC0	; 192
    23e8:	91 05       	cpc	r25, r1
    23ea:	31 f4       	brne	.+12     	; 0x23f8 <sysclk_enable_peripheral_clock+0x2e>
    23ec:	60 e1       	ldi	r22, 0x10	; 16
    23ee:	80 e0       	ldi	r24, 0x00	; 0
    23f0:	90 e0       	ldi	r25, 0x00	; 0
    23f2:	0e 94 f0 08 	call	0x11e0	; 0x11e0 <sysclk_enable_module>
    23f6:	13 c1       	rjmp	.+550    	; 0x261e <sysclk_enable_peripheral_clock+0x254>
    23f8:	89 81       	ldd	r24, Y+1	; 0x01
    23fa:	9a 81       	ldd	r25, Y+2	; 0x02
    23fc:	81 15       	cp	r24, r1
    23fe:	24 e0       	ldi	r18, 0x04	; 4
    2400:	92 07       	cpc	r25, r18
    2402:	31 f4       	brne	.+12     	; 0x2410 <sysclk_enable_peripheral_clock+0x46>
    2404:	64 e0       	ldi	r22, 0x04	; 4
    2406:	80 e0       	ldi	r24, 0x00	; 0
    2408:	90 e0       	ldi	r25, 0x00	; 0
    240a:	0e 94 f0 08 	call	0x11e0	; 0x11e0 <sysclk_enable_module>
    240e:	07 c1       	rjmp	.+526    	; 0x261e <sysclk_enable_peripheral_clock+0x254>
    2410:	89 81       	ldd	r24, Y+1	; 0x01
    2412:	9a 81       	ldd	r25, Y+2	; 0x02
    2414:	80 38       	cpi	r24, 0x80	; 128
    2416:	21 e0       	ldi	r18, 0x01	; 1
    2418:	92 07       	cpc	r25, r18
    241a:	31 f4       	brne	.+12     	; 0x2428 <sysclk_enable_peripheral_clock+0x5e>
    241c:	62 e0       	ldi	r22, 0x02	; 2
    241e:	80 e0       	ldi	r24, 0x00	; 0
    2420:	90 e0       	ldi	r25, 0x00	; 0
    2422:	0e 94 f0 08 	call	0x11e0	; 0x11e0 <sysclk_enable_module>
    2426:	fb c0       	rjmp	.+502    	; 0x261e <sysclk_enable_peripheral_clock+0x254>
    2428:	89 81       	ldd	r24, Y+1	; 0x01
    242a:	9a 81       	ldd	r25, Y+2	; 0x02
    242c:	81 15       	cp	r24, r1
    242e:	21 e0       	ldi	r18, 0x01	; 1
    2430:	92 07       	cpc	r25, r18
    2432:	31 f4       	brne	.+12     	; 0x2440 <sysclk_enable_peripheral_clock+0x76>
    2434:	61 e0       	ldi	r22, 0x01	; 1
    2436:	80 e0       	ldi	r24, 0x00	; 0
    2438:	90 e0       	ldi	r25, 0x00	; 0
    243a:	0e 94 f0 08 	call	0x11e0	; 0x11e0 <sysclk_enable_module>
    243e:	ef c0       	rjmp	.+478    	; 0x261e <sysclk_enable_peripheral_clock+0x254>
    2440:	89 81       	ldd	r24, Y+1	; 0x01
    2442:	9a 81       	ldd	r25, Y+2	; 0x02
    2444:	80 38       	cpi	r24, 0x80	; 128
    2446:	23 e0       	ldi	r18, 0x03	; 3
    2448:	92 07       	cpc	r25, r18
    244a:	31 f4       	brne	.+12     	; 0x2458 <sysclk_enable_peripheral_clock+0x8e>
    244c:	61 e0       	ldi	r22, 0x01	; 1
    244e:	81 e0       	ldi	r24, 0x01	; 1
    2450:	90 e0       	ldi	r25, 0x00	; 0
    2452:	0e 94 f0 08 	call	0x11e0	; 0x11e0 <sysclk_enable_module>
    2456:	e3 c0       	rjmp	.+454    	; 0x261e <sysclk_enable_peripheral_clock+0x254>
    2458:	89 81       	ldd	r24, Y+1	; 0x01
    245a:	9a 81       	ldd	r25, Y+2	; 0x02
    245c:	81 15       	cp	r24, r1
    245e:	22 e0       	ldi	r18, 0x02	; 2
    2460:	92 07       	cpc	r25, r18
    2462:	31 f4       	brne	.+12     	; 0x2470 <sysclk_enable_peripheral_clock+0xa6>
    2464:	62 e0       	ldi	r22, 0x02	; 2
    2466:	81 e0       	ldi	r24, 0x01	; 1
    2468:	90 e0       	ldi	r25, 0x00	; 0
    246a:	0e 94 f0 08 	call	0x11e0	; 0x11e0 <sysclk_enable_module>
    246e:	d7 c0       	rjmp	.+430    	; 0x261e <sysclk_enable_peripheral_clock+0x254>
    2470:	89 81       	ldd	r24, Y+1	; 0x01
    2472:	9a 81       	ldd	r25, Y+2	; 0x02
    2474:	80 32       	cpi	r24, 0x20	; 32
    2476:	23 e0       	ldi	r18, 0x03	; 3
    2478:	92 07       	cpc	r25, r18
    247a:	31 f4       	brne	.+12     	; 0x2488 <sysclk_enable_peripheral_clock+0xbe>
    247c:	64 e0       	ldi	r22, 0x04	; 4
    247e:	82 e0       	ldi	r24, 0x02	; 2
    2480:	90 e0       	ldi	r25, 0x00	; 0
    2482:	0e 94 f0 08 	call	0x11e0	; 0x11e0 <sysclk_enable_module>
    2486:	cb c0       	rjmp	.+406    	; 0x261e <sysclk_enable_peripheral_clock+0x254>
    2488:	89 81       	ldd	r24, Y+1	; 0x01
    248a:	9a 81       	ldd	r25, Y+2	; 0x02
    248c:	81 15       	cp	r24, r1
    248e:	28 e0       	ldi	r18, 0x08	; 8
    2490:	92 07       	cpc	r25, r18
    2492:	31 f4       	brne	.+12     	; 0x24a0 <sysclk_enable_peripheral_clock+0xd6>
    2494:	61 e0       	ldi	r22, 0x01	; 1
    2496:	83 e0       	ldi	r24, 0x03	; 3
    2498:	90 e0       	ldi	r25, 0x00	; 0
    249a:	0e 94 f0 08 	call	0x11e0	; 0x11e0 <sysclk_enable_module>
    249e:	bf c0       	rjmp	.+382    	; 0x261e <sysclk_enable_peripheral_clock+0x254>
    24a0:	89 81       	ldd	r24, Y+1	; 0x01
    24a2:	9a 81       	ldd	r25, Y+2	; 0x02
    24a4:	81 15       	cp	r24, r1
    24a6:	29 e0       	ldi	r18, 0x09	; 9
    24a8:	92 07       	cpc	r25, r18
    24aa:	31 f4       	brne	.+12     	; 0x24b8 <sysclk_enable_peripheral_clock+0xee>
    24ac:	61 e0       	ldi	r22, 0x01	; 1
    24ae:	84 e0       	ldi	r24, 0x04	; 4
    24b0:	90 e0       	ldi	r25, 0x00	; 0
    24b2:	0e 94 f0 08 	call	0x11e0	; 0x11e0 <sysclk_enable_module>
    24b6:	b3 c0       	rjmp	.+358    	; 0x261e <sysclk_enable_peripheral_clock+0x254>
    24b8:	89 81       	ldd	r24, Y+1	; 0x01
    24ba:	9a 81       	ldd	r25, Y+2	; 0x02
    24bc:	81 15       	cp	r24, r1
    24be:	2a e0       	ldi	r18, 0x0A	; 10
    24c0:	92 07       	cpc	r25, r18
    24c2:	31 f4       	brne	.+12     	; 0x24d0 <sysclk_enable_peripheral_clock+0x106>
    24c4:	61 e0       	ldi	r22, 0x01	; 1
    24c6:	85 e0       	ldi	r24, 0x05	; 5
    24c8:	90 e0       	ldi	r25, 0x00	; 0
    24ca:	0e 94 f0 08 	call	0x11e0	; 0x11e0 <sysclk_enable_module>
    24ce:	a7 c0       	rjmp	.+334    	; 0x261e <sysclk_enable_peripheral_clock+0x254>
    24d0:	89 81       	ldd	r24, Y+1	; 0x01
    24d2:	9a 81       	ldd	r25, Y+2	; 0x02
    24d4:	80 34       	cpi	r24, 0x40	; 64
    24d6:	28 e0       	ldi	r18, 0x08	; 8
    24d8:	92 07       	cpc	r25, r18
    24da:	31 f4       	brne	.+12     	; 0x24e8 <sysclk_enable_peripheral_clock+0x11e>
    24dc:	62 e0       	ldi	r22, 0x02	; 2
    24de:	83 e0       	ldi	r24, 0x03	; 3
    24e0:	90 e0       	ldi	r25, 0x00	; 0
    24e2:	0e 94 f0 08 	call	0x11e0	; 0x11e0 <sysclk_enable_module>
    24e6:	9b c0       	rjmp	.+310    	; 0x261e <sysclk_enable_peripheral_clock+0x254>
    24e8:	89 81       	ldd	r24, Y+1	; 0x01
    24ea:	9a 81       	ldd	r25, Y+2	; 0x02
    24ec:	80 34       	cpi	r24, 0x40	; 64
    24ee:	29 e0       	ldi	r18, 0x09	; 9
    24f0:	92 07       	cpc	r25, r18
    24f2:	31 f4       	brne	.+12     	; 0x2500 <sysclk_enable_peripheral_clock+0x136>
    24f4:	62 e0       	ldi	r22, 0x02	; 2
    24f6:	84 e0       	ldi	r24, 0x04	; 4
    24f8:	90 e0       	ldi	r25, 0x00	; 0
    24fa:	0e 94 f0 08 	call	0x11e0	; 0x11e0 <sysclk_enable_module>
    24fe:	8f c0       	rjmp	.+286    	; 0x261e <sysclk_enable_peripheral_clock+0x254>
    2500:	89 81       	ldd	r24, Y+1	; 0x01
    2502:	9a 81       	ldd	r25, Y+2	; 0x02
    2504:	80 39       	cpi	r24, 0x90	; 144
    2506:	28 e0       	ldi	r18, 0x08	; 8
    2508:	92 07       	cpc	r25, r18
    250a:	31 f4       	brne	.+12     	; 0x2518 <sysclk_enable_peripheral_clock+0x14e>
    250c:	64 e0       	ldi	r22, 0x04	; 4
    250e:	83 e0       	ldi	r24, 0x03	; 3
    2510:	90 e0       	ldi	r25, 0x00	; 0
    2512:	0e 94 f0 08 	call	0x11e0	; 0x11e0 <sysclk_enable_module>
    2516:	83 c0       	rjmp	.+262    	; 0x261e <sysclk_enable_peripheral_clock+0x254>
    2518:	89 81       	ldd	r24, Y+1	; 0x01
    251a:	9a 81       	ldd	r25, Y+2	; 0x02
    251c:	80 39       	cpi	r24, 0x90	; 144
    251e:	29 e0       	ldi	r18, 0x09	; 9
    2520:	92 07       	cpc	r25, r18
    2522:	31 f4       	brne	.+12     	; 0x2530 <sysclk_enable_peripheral_clock+0x166>
    2524:	64 e0       	ldi	r22, 0x04	; 4
    2526:	84 e0       	ldi	r24, 0x04	; 4
    2528:	90 e0       	ldi	r25, 0x00	; 0
    252a:	0e 94 f0 08 	call	0x11e0	; 0x11e0 <sysclk_enable_module>
    252e:	77 c0       	rjmp	.+238    	; 0x261e <sysclk_enable_peripheral_clock+0x254>
    2530:	89 81       	ldd	r24, Y+1	; 0x01
    2532:	9a 81       	ldd	r25, Y+2	; 0x02
    2534:	80 39       	cpi	r24, 0x90	; 144
    2536:	2a e0       	ldi	r18, 0x0A	; 10
    2538:	92 07       	cpc	r25, r18
    253a:	31 f4       	brne	.+12     	; 0x2548 <sysclk_enable_peripheral_clock+0x17e>
    253c:	64 e0       	ldi	r22, 0x04	; 4
    253e:	85 e0       	ldi	r24, 0x05	; 5
    2540:	90 e0       	ldi	r25, 0x00	; 0
    2542:	0e 94 f0 08 	call	0x11e0	; 0x11e0 <sysclk_enable_module>
    2546:	6b c0       	rjmp	.+214    	; 0x261e <sysclk_enable_peripheral_clock+0x254>
    2548:	89 81       	ldd	r24, Y+1	; 0x01
    254a:	9a 81       	ldd	r25, Y+2	; 0x02
    254c:	80 3c       	cpi	r24, 0xC0	; 192
    254e:	28 e0       	ldi	r18, 0x08	; 8
    2550:	92 07       	cpc	r25, r18
    2552:	31 f4       	brne	.+12     	; 0x2560 <sysclk_enable_peripheral_clock+0x196>
    2554:	68 e0       	ldi	r22, 0x08	; 8
    2556:	83 e0       	ldi	r24, 0x03	; 3
    2558:	90 e0       	ldi	r25, 0x00	; 0
    255a:	0e 94 f0 08 	call	0x11e0	; 0x11e0 <sysclk_enable_module>
    255e:	5f c0       	rjmp	.+190    	; 0x261e <sysclk_enable_peripheral_clock+0x254>
    2560:	89 81       	ldd	r24, Y+1	; 0x01
    2562:	9a 81       	ldd	r25, Y+2	; 0x02
    2564:	80 3c       	cpi	r24, 0xC0	; 192
    2566:	29 e0       	ldi	r18, 0x09	; 9
    2568:	92 07       	cpc	r25, r18
    256a:	31 f4       	brne	.+12     	; 0x2578 <sysclk_enable_peripheral_clock+0x1ae>
    256c:	68 e0       	ldi	r22, 0x08	; 8
    256e:	84 e0       	ldi	r24, 0x04	; 4
    2570:	90 e0       	ldi	r25, 0x00	; 0
    2572:	0e 94 f0 08 	call	0x11e0	; 0x11e0 <sysclk_enable_module>
    2576:	53 c0       	rjmp	.+166    	; 0x261e <sysclk_enable_peripheral_clock+0x254>
    2578:	89 81       	ldd	r24, Y+1	; 0x01
    257a:	9a 81       	ldd	r25, Y+2	; 0x02
    257c:	80 3a       	cpi	r24, 0xA0	; 160
    257e:	28 e0       	ldi	r18, 0x08	; 8
    2580:	92 07       	cpc	r25, r18
    2582:	31 f4       	brne	.+12     	; 0x2590 <sysclk_enable_peripheral_clock+0x1c6>
    2584:	60 e1       	ldi	r22, 0x10	; 16
    2586:	83 e0       	ldi	r24, 0x03	; 3
    2588:	90 e0       	ldi	r25, 0x00	; 0
    258a:	0e 94 f0 08 	call	0x11e0	; 0x11e0 <sysclk_enable_module>
    258e:	47 c0       	rjmp	.+142    	; 0x261e <sysclk_enable_peripheral_clock+0x254>
    2590:	89 81       	ldd	r24, Y+1	; 0x01
    2592:	9a 81       	ldd	r25, Y+2	; 0x02
    2594:	80 3a       	cpi	r24, 0xA0	; 160
    2596:	29 e0       	ldi	r18, 0x09	; 9
    2598:	92 07       	cpc	r25, r18
    259a:	31 f4       	brne	.+12     	; 0x25a8 <sysclk_enable_peripheral_clock+0x1de>
    259c:	60 e1       	ldi	r22, 0x10	; 16
    259e:	84 e0       	ldi	r24, 0x04	; 4
    25a0:	90 e0       	ldi	r25, 0x00	; 0
    25a2:	0e 94 f0 08 	call	0x11e0	; 0x11e0 <sysclk_enable_module>
    25a6:	3b c0       	rjmp	.+118    	; 0x261e <sysclk_enable_peripheral_clock+0x254>
    25a8:	89 81       	ldd	r24, Y+1	; 0x01
    25aa:	9a 81       	ldd	r25, Y+2	; 0x02
    25ac:	80 3a       	cpi	r24, 0xA0	; 160
    25ae:	2a e0       	ldi	r18, 0x0A	; 10
    25b0:	92 07       	cpc	r25, r18
    25b2:	31 f4       	brne	.+12     	; 0x25c0 <sysclk_enable_peripheral_clock+0x1f6>
    25b4:	60 e1       	ldi	r22, 0x10	; 16
    25b6:	85 e0       	ldi	r24, 0x05	; 5
    25b8:	90 e0       	ldi	r25, 0x00	; 0
    25ba:	0e 94 f0 08 	call	0x11e0	; 0x11e0 <sysclk_enable_module>
    25be:	2f c0       	rjmp	.+94     	; 0x261e <sysclk_enable_peripheral_clock+0x254>
    25c0:	89 81       	ldd	r24, Y+1	; 0x01
    25c2:	9a 81       	ldd	r25, Y+2	; 0x02
    25c4:	80 3b       	cpi	r24, 0xB0	; 176
    25c6:	28 e0       	ldi	r18, 0x08	; 8
    25c8:	92 07       	cpc	r25, r18
    25ca:	31 f4       	brne	.+12     	; 0x25d8 <sysclk_enable_peripheral_clock+0x20e>
    25cc:	60 e2       	ldi	r22, 0x20	; 32
    25ce:	83 e0       	ldi	r24, 0x03	; 3
    25d0:	90 e0       	ldi	r25, 0x00	; 0
    25d2:	0e 94 f0 08 	call	0x11e0	; 0x11e0 <sysclk_enable_module>
    25d6:	23 c0       	rjmp	.+70     	; 0x261e <sysclk_enable_peripheral_clock+0x254>
    25d8:	89 81       	ldd	r24, Y+1	; 0x01
    25da:	9a 81       	ldd	r25, Y+2	; 0x02
    25dc:	80 3b       	cpi	r24, 0xB0	; 176
    25de:	29 e0       	ldi	r18, 0x09	; 9
    25e0:	92 07       	cpc	r25, r18
    25e2:	31 f4       	brne	.+12     	; 0x25f0 <sysclk_enable_peripheral_clock+0x226>
    25e4:	60 e2       	ldi	r22, 0x20	; 32
    25e6:	84 e0       	ldi	r24, 0x04	; 4
    25e8:	90 e0       	ldi	r25, 0x00	; 0
    25ea:	0e 94 f0 08 	call	0x11e0	; 0x11e0 <sysclk_enable_module>
    25ee:	17 c0       	rjmp	.+46     	; 0x261e <sysclk_enable_peripheral_clock+0x254>
    25f0:	89 81       	ldd	r24, Y+1	; 0x01
    25f2:	9a 81       	ldd	r25, Y+2	; 0x02
    25f4:	80 38       	cpi	r24, 0x80	; 128
    25f6:	24 e0       	ldi	r18, 0x04	; 4
    25f8:	92 07       	cpc	r25, r18
    25fa:	31 f4       	brne	.+12     	; 0x2608 <sysclk_enable_peripheral_clock+0x23e>
    25fc:	60 e4       	ldi	r22, 0x40	; 64
    25fe:	83 e0       	ldi	r24, 0x03	; 3
    2600:	90 e0       	ldi	r25, 0x00	; 0
    2602:	0e 94 f0 08 	call	0x11e0	; 0x11e0 <sysclk_enable_module>
    2606:	0b c0       	rjmp	.+22     	; 0x261e <sysclk_enable_peripheral_clock+0x254>
    2608:	89 81       	ldd	r24, Y+1	; 0x01
    260a:	9a 81       	ldd	r25, Y+2	; 0x02
    260c:	80 3a       	cpi	r24, 0xA0	; 160
    260e:	24 e0       	ldi	r18, 0x04	; 4
    2610:	92 07       	cpc	r25, r18
    2612:	29 f4       	brne	.+10     	; 0x261e <sysclk_enable_peripheral_clock+0x254>
    2614:	60 e4       	ldi	r22, 0x40	; 64
    2616:	85 e0       	ldi	r24, 0x05	; 5
    2618:	90 e0       	ldi	r25, 0x00	; 0
    261a:	0e 94 f0 08 	call	0x11e0	; 0x11e0 <sysclk_enable_module>
    261e:	0f 90       	pop	r0
    2620:	0f 90       	pop	r0
    2622:	df 91       	pop	r29
    2624:	cf 91       	pop	r28
    2626:	08 95       	ret

00002628 <usart_init_rs232>:
    2628:	0f 93       	push	r16
    262a:	1f 93       	push	r17
    262c:	cf 93       	push	r28
    262e:	df 93       	push	r29
    2630:	cd b7       	in	r28, 0x3d	; 61
    2632:	de b7       	in	r29, 0x3e	; 62
    2634:	25 97       	sbiw	r28, 0x05	; 5
    2636:	cd bf       	out	0x3d, r28	; 61
    2638:	de bf       	out	0x3e, r29	; 62
    263a:	8a 83       	std	Y+2, r24	; 0x02
    263c:	9b 83       	std	Y+3, r25	; 0x03
    263e:	6c 83       	std	Y+4, r22	; 0x04
    2640:	7d 83       	std	Y+5, r23	; 0x05
    2642:	8a 81       	ldd	r24, Y+2	; 0x02
    2644:	9b 81       	ldd	r25, Y+3	; 0x03
    2646:	c1 de       	rcall	.-638    	; 0x23ca <sysclk_enable_peripheral_clock>
    2648:	8a 81       	ldd	r24, Y+2	; 0x02
    264a:	9b 81       	ldd	r25, Y+3	; 0x03
    264c:	60 e0       	ldi	r22, 0x00	; 0
    264e:	70 e0       	ldi	r23, 0x00	; 0
    2650:	2e de       	rcall	.-932    	; 0x22ae <usart_set_mode>
    2652:	8c 81       	ldd	r24, Y+4	; 0x04
    2654:	9d 81       	ldd	r25, Y+5	; 0x05
    2656:	fc 01       	movw	r30, r24
    2658:	20 85       	ldd	r18, Z+8	; 0x08
    265a:	8c 81       	ldd	r24, Y+4	; 0x04
    265c:	9d 81       	ldd	r25, Y+5	; 0x05
    265e:	fc 01       	movw	r30, r24
    2660:	46 81       	ldd	r20, Z+6	; 0x06
    2662:	57 81       	ldd	r21, Z+7	; 0x07
    2664:	8c 81       	ldd	r24, Y+4	; 0x04
    2666:	9d 81       	ldd	r25, Y+5	; 0x05
    2668:	fc 01       	movw	r30, r24
    266a:	64 81       	ldd	r22, Z+4	; 0x04
    266c:	75 81       	ldd	r23, Z+5	; 0x05
    266e:	8a 81       	ldd	r24, Y+2	; 0x02
    2670:	9b 81       	ldd	r25, Y+3	; 0x03
    2672:	e4 dd       	rcall	.-1080   	; 0x223c <usart_format_set>
    2674:	9e de       	rcall	.-708    	; 0x23b2 <sysclk_get_per_hz>
    2676:	9b 01       	movw	r18, r22
    2678:	ac 01       	movw	r20, r24
    267a:	8c 81       	ldd	r24, Y+4	; 0x04
    267c:	9d 81       	ldd	r25, Y+5	; 0x05
    267e:	fc 01       	movw	r30, r24
    2680:	80 81       	ld	r24, Z
    2682:	91 81       	ldd	r25, Z+1	; 0x01
    2684:	a2 81       	ldd	r26, Z+2	; 0x02
    2686:	b3 81       	ldd	r27, Z+3	; 0x03
    2688:	ea 81       	ldd	r30, Y+2	; 0x02
    268a:	fb 81       	ldd	r31, Y+3	; 0x03
    268c:	89 01       	movw	r16, r18
    268e:	9a 01       	movw	r18, r20
    2690:	ac 01       	movw	r20, r24
    2692:	bd 01       	movw	r22, r26
    2694:	cf 01       	movw	r24, r30
    2696:	48 d0       	rcall	.+144    	; 0x2728 <usart_set_baudrate>
    2698:	89 83       	std	Y+1, r24	; 0x01
    269a:	8a 81       	ldd	r24, Y+2	; 0x02
    269c:	9b 81       	ldd	r25, Y+3	; 0x03
    269e:	f1 dd       	rcall	.-1054   	; 0x2282 <usart_tx_enable>
    26a0:	8a 81       	ldd	r24, Y+2	; 0x02
    26a2:	9b 81       	ldd	r25, Y+3	; 0x03
    26a4:	b5 dd       	rcall	.-1174   	; 0x2210 <usart_rx_enable>
    26a6:	89 81       	ldd	r24, Y+1	; 0x01
    26a8:	25 96       	adiw	r28, 0x05	; 5
    26aa:	cd bf       	out	0x3d, r28	; 61
    26ac:	de bf       	out	0x3e, r29	; 62
    26ae:	df 91       	pop	r29
    26b0:	cf 91       	pop	r28
    26b2:	1f 91       	pop	r17
    26b4:	0f 91       	pop	r16
    26b6:	08 95       	ret

000026b8 <usart_putchar>:
    26b8:	cf 93       	push	r28
    26ba:	df 93       	push	r29
    26bc:	00 d0       	rcall	.+0      	; 0x26be <usart_putchar+0x6>
    26be:	1f 92       	push	r1
    26c0:	cd b7       	in	r28, 0x3d	; 61
    26c2:	de b7       	in	r29, 0x3e	; 62
    26c4:	89 83       	std	Y+1, r24	; 0x01
    26c6:	9a 83       	std	Y+2, r25	; 0x02
    26c8:	6b 83       	std	Y+3, r22	; 0x03
    26ca:	00 00       	nop
    26cc:	89 81       	ldd	r24, Y+1	; 0x01
    26ce:	9a 81       	ldd	r25, Y+2	; 0x02
    26d0:	0b de       	rcall	.-1002   	; 0x22e8 <usart_data_register_is_empty>
    26d2:	98 2f       	mov	r25, r24
    26d4:	81 e0       	ldi	r24, 0x01	; 1
    26d6:	89 27       	eor	r24, r25
    26d8:	88 23       	and	r24, r24
    26da:	c1 f7       	brne	.-16     	; 0x26cc <usart_putchar+0x14>
    26dc:	89 81       	ldd	r24, Y+1	; 0x01
    26de:	9a 81       	ldd	r25, Y+2	; 0x02
    26e0:	2b 81       	ldd	r18, Y+3	; 0x03
    26e2:	fc 01       	movw	r30, r24
    26e4:	20 83       	st	Z, r18
    26e6:	80 e0       	ldi	r24, 0x00	; 0
    26e8:	90 e0       	ldi	r25, 0x00	; 0
    26ea:	23 96       	adiw	r28, 0x03	; 3
    26ec:	cd bf       	out	0x3d, r28	; 61
    26ee:	de bf       	out	0x3e, r29	; 62
    26f0:	df 91       	pop	r29
    26f2:	cf 91       	pop	r28
    26f4:	08 95       	ret

000026f6 <usart_getchar>:
    26f6:	cf 93       	push	r28
    26f8:	df 93       	push	r29
    26fa:	00 d0       	rcall	.+0      	; 0x26fc <usart_getchar+0x6>
    26fc:	cd b7       	in	r28, 0x3d	; 61
    26fe:	de b7       	in	r29, 0x3e	; 62
    2700:	89 83       	std	Y+1, r24	; 0x01
    2702:	9a 83       	std	Y+2, r25	; 0x02
    2704:	00 00       	nop
    2706:	89 81       	ldd	r24, Y+1	; 0x01
    2708:	9a 81       	ldd	r25, Y+2	; 0x02
    270a:	07 de       	rcall	.-1010   	; 0x231a <usart_rx_is_complete>
    270c:	98 2f       	mov	r25, r24
    270e:	81 e0       	ldi	r24, 0x01	; 1
    2710:	89 27       	eor	r24, r25
    2712:	88 23       	and	r24, r24
    2714:	c1 f7       	brne	.-16     	; 0x2706 <usart_getchar+0x10>
    2716:	89 81       	ldd	r24, Y+1	; 0x01
    2718:	9a 81       	ldd	r25, Y+2	; 0x02
    271a:	fc 01       	movw	r30, r24
    271c:	80 81       	ld	r24, Z
    271e:	0f 90       	pop	r0
    2720:	0f 90       	pop	r0
    2722:	df 91       	pop	r29
    2724:	cf 91       	pop	r28
    2726:	08 95       	ret

00002728 <usart_set_baudrate>:
    2728:	ef 92       	push	r14
    272a:	ff 92       	push	r15
    272c:	0f 93       	push	r16
    272e:	1f 93       	push	r17
    2730:	cf 93       	push	r28
    2732:	df 93       	push	r29
    2734:	cd b7       	in	r28, 0x3d	; 61
    2736:	de b7       	in	r29, 0x3e	; 62
    2738:	6f 97       	sbiw	r28, 0x1f	; 31
    273a:	cd bf       	out	0x3d, r28	; 61
    273c:	de bf       	out	0x3e, r29	; 62
    273e:	8e 8b       	std	Y+22, r24	; 0x16
    2740:	9f 8b       	std	Y+23, r25	; 0x17
    2742:	48 8f       	std	Y+24, r20	; 0x18
    2744:	59 8f       	std	Y+25, r21	; 0x19
    2746:	6a 8f       	std	Y+26, r22	; 0x1a
    2748:	7b 8f       	std	Y+27, r23	; 0x1b
    274a:	0c 8f       	std	Y+28, r16	; 0x1c
    274c:	1d 8f       	std	Y+29, r17	; 0x1d
    274e:	2e 8f       	std	Y+30, r18	; 0x1e
    2750:	3f 8f       	std	Y+31, r19	; 0x1f
    2752:	8c 8d       	ldd	r24, Y+28	; 0x1c
    2754:	9d 8d       	ldd	r25, Y+29	; 0x1d
    2756:	ae 8d       	ldd	r26, Y+30	; 0x1e
    2758:	bf 8d       	ldd	r27, Y+31	; 0x1f
    275a:	68 94       	set
    275c:	12 f8       	bld	r1, 2
    275e:	b6 95       	lsr	r27
    2760:	a7 95       	ror	r26
    2762:	97 95       	ror	r25
    2764:	87 95       	ror	r24
    2766:	16 94       	lsr	r1
    2768:	d1 f7       	brne	.-12     	; 0x275e <usart_set_baudrate+0x36>
    276a:	8e 87       	std	Y+14, r24	; 0x0e
    276c:	9f 87       	std	Y+15, r25	; 0x0f
    276e:	a8 8b       	std	Y+16, r26	; 0x10
    2770:	b9 8b       	std	Y+17, r27	; 0x11
    2772:	8c 8d       	ldd	r24, Y+28	; 0x1c
    2774:	9d 8d       	ldd	r25, Y+29	; 0x1d
    2776:	ae 8d       	ldd	r26, Y+30	; 0x1e
    2778:	bf 8d       	ldd	r27, Y+31	; 0x1f
    277a:	07 2e       	mov	r0, r23
    277c:	76 e1       	ldi	r23, 0x16	; 22
    277e:	b6 95       	lsr	r27
    2780:	a7 95       	ror	r26
    2782:	97 95       	ror	r25
    2784:	87 95       	ror	r24
    2786:	7a 95       	dec	r23
    2788:	d1 f7       	brne	.-12     	; 0x277e <usart_set_baudrate+0x56>
    278a:	70 2d       	mov	r23, r0
    278c:	8a 87       	std	Y+10, r24	; 0x0a
    278e:	9b 87       	std	Y+11, r25	; 0x0b
    2790:	ac 87       	std	Y+12, r26	; 0x0c
    2792:	bd 87       	std	Y+13, r27	; 0x0d
    2794:	8e 89       	ldd	r24, Y+22	; 0x16
    2796:	9f 89       	ldd	r25, Y+23	; 0x17
    2798:	fc 01       	movw	r30, r24
    279a:	84 81       	ldd	r24, Z+4	; 0x04
    279c:	88 2f       	mov	r24, r24
    279e:	90 e0       	ldi	r25, 0x00	; 0
    27a0:	84 70       	andi	r24, 0x04	; 4
    27a2:	99 27       	eor	r25, r25
    27a4:	00 97       	sbiw	r24, 0x00	; 0
    27a6:	c1 f4       	brne	.+48     	; 0x27d8 <usart_set_baudrate+0xb0>
    27a8:	8e 85       	ldd	r24, Y+14	; 0x0e
    27aa:	9f 85       	ldd	r25, Y+15	; 0x0f
    27ac:	a8 89       	ldd	r26, Y+16	; 0x10
    27ae:	b9 89       	ldd	r27, Y+17	; 0x11
    27b0:	b6 95       	lsr	r27
    27b2:	a7 95       	ror	r26
    27b4:	97 95       	ror	r25
    27b6:	87 95       	ror	r24
    27b8:	8e 87       	std	Y+14, r24	; 0x0e
    27ba:	9f 87       	std	Y+15, r25	; 0x0f
    27bc:	a8 8b       	std	Y+16, r26	; 0x10
    27be:	b9 8b       	std	Y+17, r27	; 0x11
    27c0:	8a 85       	ldd	r24, Y+10	; 0x0a
    27c2:	9b 85       	ldd	r25, Y+11	; 0x0b
    27c4:	ac 85       	ldd	r26, Y+12	; 0x0c
    27c6:	bd 85       	ldd	r27, Y+13	; 0x0d
    27c8:	b6 95       	lsr	r27
    27ca:	a7 95       	ror	r26
    27cc:	97 95       	ror	r25
    27ce:	87 95       	ror	r24
    27d0:	8a 87       	std	Y+10, r24	; 0x0a
    27d2:	9b 87       	std	Y+11, r25	; 0x0b
    27d4:	ac 87       	std	Y+12, r26	; 0x0c
    27d6:	bd 87       	std	Y+13, r27	; 0x0d
    27d8:	28 8d       	ldd	r18, Y+24	; 0x18
    27da:	39 8d       	ldd	r19, Y+25	; 0x19
    27dc:	4a 8d       	ldd	r20, Y+26	; 0x1a
    27de:	5b 8d       	ldd	r21, Y+27	; 0x1b
    27e0:	8e 85       	ldd	r24, Y+14	; 0x0e
    27e2:	9f 85       	ldd	r25, Y+15	; 0x0f
    27e4:	a8 89       	ldd	r26, Y+16	; 0x10
    27e6:	b9 89       	ldd	r27, Y+17	; 0x11
    27e8:	82 17       	cp	r24, r18
    27ea:	93 07       	cpc	r25, r19
    27ec:	a4 07       	cpc	r26, r20
    27ee:	b5 07       	cpc	r27, r21
    27f0:	68 f0       	brcs	.+26     	; 0x280c <usart_set_baudrate+0xe4>
    27f2:	28 8d       	ldd	r18, Y+24	; 0x18
    27f4:	39 8d       	ldd	r19, Y+25	; 0x19
    27f6:	4a 8d       	ldd	r20, Y+26	; 0x1a
    27f8:	5b 8d       	ldd	r21, Y+27	; 0x1b
    27fa:	8a 85       	ldd	r24, Y+10	; 0x0a
    27fc:	9b 85       	ldd	r25, Y+11	; 0x0b
    27fe:	ac 85       	ldd	r26, Y+12	; 0x0c
    2800:	bd 85       	ldd	r27, Y+13	; 0x0d
    2802:	28 17       	cp	r18, r24
    2804:	39 07       	cpc	r19, r25
    2806:	4a 07       	cpc	r20, r26
    2808:	5b 07       	cpc	r21, r27
    280a:	10 f4       	brcc	.+4      	; 0x2810 <usart_set_baudrate+0xe8>
    280c:	80 e0       	ldi	r24, 0x00	; 0
    280e:	3c c1       	rjmp	.+632    	; 0x2a88 <usart_set_baudrate+0x360>
    2810:	8e 89       	ldd	r24, Y+22	; 0x16
    2812:	9f 89       	ldd	r25, Y+23	; 0x17
    2814:	fc 01       	movw	r30, r24
    2816:	84 81       	ldd	r24, Z+4	; 0x04
    2818:	88 2f       	mov	r24, r24
    281a:	90 e0       	ldi	r25, 0x00	; 0
    281c:	84 70       	andi	r24, 0x04	; 4
    281e:	99 27       	eor	r25, r25
    2820:	00 97       	sbiw	r24, 0x00	; 0
    2822:	61 f4       	brne	.+24     	; 0x283c <usart_set_baudrate+0x114>
    2824:	88 8d       	ldd	r24, Y+24	; 0x18
    2826:	99 8d       	ldd	r25, Y+25	; 0x19
    2828:	aa 8d       	ldd	r26, Y+26	; 0x1a
    282a:	bb 8d       	ldd	r27, Y+27	; 0x1b
    282c:	88 0f       	add	r24, r24
    282e:	99 1f       	adc	r25, r25
    2830:	aa 1f       	adc	r26, r26
    2832:	bb 1f       	adc	r27, r27
    2834:	88 8f       	std	Y+24, r24	; 0x18
    2836:	99 8f       	std	Y+25, r25	; 0x19
    2838:	aa 8f       	std	Y+26, r26	; 0x1a
    283a:	bb 8f       	std	Y+27, r27	; 0x1b
    283c:	8f ef       	ldi	r24, 0xFF	; 255
    283e:	90 e0       	ldi	r25, 0x00	; 0
    2840:	a0 e0       	ldi	r26, 0x00	; 0
    2842:	b0 e0       	ldi	r27, 0x00	; 0
    2844:	8e 83       	std	Y+6, r24	; 0x06
    2846:	9f 83       	std	Y+7, r25	; 0x07
    2848:	a8 87       	std	Y+8, r26	; 0x08
    284a:	b9 87       	std	Y+9, r27	; 0x09
    284c:	8c 8d       	ldd	r24, Y+28	; 0x1c
    284e:	9d 8d       	ldd	r25, Y+29	; 0x1d
    2850:	ae 8d       	ldd	r26, Y+30	; 0x1e
    2852:	bf 8d       	ldd	r27, Y+31	; 0x1f
    2854:	28 8d       	ldd	r18, Y+24	; 0x18
    2856:	39 8d       	ldd	r19, Y+25	; 0x19
    2858:	4a 8d       	ldd	r20, Y+26	; 0x1a
    285a:	5b 8d       	ldd	r21, Y+27	; 0x1b
    285c:	bc 01       	movw	r22, r24
    285e:	cd 01       	movw	r24, r26
    2860:	0e 94 3f 2f 	call	0x5e7e	; 0x5e7e <__udivmodsi4>
    2864:	2a 8b       	std	Y+18, r18	; 0x12
    2866:	3b 8b       	std	Y+19, r19	; 0x13
    2868:	4c 8b       	std	Y+20, r20	; 0x14
    286a:	5d 8b       	std	Y+21, r21	; 0x15
    286c:	89 ef       	ldi	r24, 0xF9	; 249
    286e:	89 83       	std	Y+1, r24	; 0x01
    2870:	28 c0       	rjmp	.+80     	; 0x28c2 <usart_set_baudrate+0x19a>
    2872:	2a 89       	ldd	r18, Y+18	; 0x12
    2874:	3b 89       	ldd	r19, Y+19	; 0x13
    2876:	4c 89       	ldd	r20, Y+20	; 0x14
    2878:	5d 89       	ldd	r21, Y+21	; 0x15
    287a:	8e 81       	ldd	r24, Y+6	; 0x06
    287c:	9f 81       	ldd	r25, Y+7	; 0x07
    287e:	a8 85       	ldd	r26, Y+8	; 0x08
    2880:	b9 85       	ldd	r27, Y+9	; 0x09
    2882:	28 17       	cp	r18, r24
    2884:	39 07       	cpc	r19, r25
    2886:	4a 07       	cpc	r20, r26
    2888:	5b 07       	cpc	r21, r27
    288a:	f8 f0       	brcs	.+62     	; 0x28ca <usart_set_baudrate+0x1a2>
    288c:	8e 81       	ldd	r24, Y+6	; 0x06
    288e:	9f 81       	ldd	r25, Y+7	; 0x07
    2890:	a8 85       	ldd	r26, Y+8	; 0x08
    2892:	b9 85       	ldd	r27, Y+9	; 0x09
    2894:	88 0f       	add	r24, r24
    2896:	99 1f       	adc	r25, r25
    2898:	aa 1f       	adc	r26, r26
    289a:	bb 1f       	adc	r27, r27
    289c:	8e 83       	std	Y+6, r24	; 0x06
    289e:	9f 83       	std	Y+7, r25	; 0x07
    28a0:	a8 87       	std	Y+8, r26	; 0x08
    28a2:	b9 87       	std	Y+9, r27	; 0x09
    28a4:	89 81       	ldd	r24, Y+1	; 0x01
    28a6:	8d 3f       	cpi	r24, 0xFD	; 253
    28a8:	4c f4       	brge	.+18     	; 0x28bc <usart_set_baudrate+0x194>
    28aa:	8e 81       	ldd	r24, Y+6	; 0x06
    28ac:	9f 81       	ldd	r25, Y+7	; 0x07
    28ae:	a8 85       	ldd	r26, Y+8	; 0x08
    28b0:	b9 85       	ldd	r27, Y+9	; 0x09
    28b2:	81 60       	ori	r24, 0x01	; 1
    28b4:	8e 83       	std	Y+6, r24	; 0x06
    28b6:	9f 83       	std	Y+7, r25	; 0x07
    28b8:	a8 87       	std	Y+8, r26	; 0x08
    28ba:	b9 87       	std	Y+9, r27	; 0x09
    28bc:	89 81       	ldd	r24, Y+1	; 0x01
    28be:	8f 5f       	subi	r24, 0xFF	; 255
    28c0:	89 83       	std	Y+1, r24	; 0x01
    28c2:	89 81       	ldd	r24, Y+1	; 0x01
    28c4:	87 30       	cpi	r24, 0x07	; 7
    28c6:	ac f2       	brlt	.-86     	; 0x2872 <usart_set_baudrate+0x14a>
    28c8:	01 c0       	rjmp	.+2      	; 0x28cc <usart_set_baudrate+0x1a4>
    28ca:	00 00       	nop
    28cc:	89 81       	ldd	r24, Y+1	; 0x01
    28ce:	88 23       	and	r24, r24
    28d0:	0c f0       	brlt	.+2      	; 0x28d4 <usart_set_baudrate+0x1ac>
    28d2:	88 c0       	rjmp	.+272    	; 0x29e4 <usart_set_baudrate+0x2bc>
    28d4:	88 8d       	ldd	r24, Y+24	; 0x18
    28d6:	99 8d       	ldd	r25, Y+25	; 0x19
    28d8:	aa 8d       	ldd	r26, Y+26	; 0x1a
    28da:	bb 8d       	ldd	r27, Y+27	; 0x1b
    28dc:	88 0f       	add	r24, r24
    28de:	99 1f       	adc	r25, r25
    28e0:	aa 1f       	adc	r26, r26
    28e2:	bb 1f       	adc	r27, r27
    28e4:	88 0f       	add	r24, r24
    28e6:	99 1f       	adc	r25, r25
    28e8:	aa 1f       	adc	r26, r26
    28ea:	bb 1f       	adc	r27, r27
    28ec:	88 0f       	add	r24, r24
    28ee:	99 1f       	adc	r25, r25
    28f0:	aa 1f       	adc	r26, r26
    28f2:	bb 1f       	adc	r27, r27
    28f4:	2c 8d       	ldd	r18, Y+28	; 0x1c
    28f6:	3d 8d       	ldd	r19, Y+29	; 0x1d
    28f8:	4e 8d       	ldd	r20, Y+30	; 0x1e
    28fa:	5f 8d       	ldd	r21, Y+31	; 0x1f
    28fc:	79 01       	movw	r14, r18
    28fe:	8a 01       	movw	r16, r20
    2900:	e8 1a       	sub	r14, r24
    2902:	f9 0a       	sbc	r15, r25
    2904:	0a 0b       	sbc	r16, r26
    2906:	1b 0b       	sbc	r17, r27
    2908:	d8 01       	movw	r26, r16
    290a:	c7 01       	movw	r24, r14
    290c:	8c 8f       	std	Y+28, r24	; 0x1c
    290e:	9d 8f       	std	Y+29, r25	; 0x1d
    2910:	ae 8f       	std	Y+30, r26	; 0x1e
    2912:	bf 8f       	std	Y+31, r27	; 0x1f
    2914:	89 81       	ldd	r24, Y+1	; 0x01
    2916:	8e 3f       	cpi	r24, 0xFE	; 254
    2918:	84 f5       	brge	.+96     	; 0x297a <usart_set_baudrate+0x252>
    291a:	89 81       	ldd	r24, Y+1	; 0x01
    291c:	99 27       	eor	r25, r25
    291e:	87 fd       	sbrc	r24, 7
    2920:	90 95       	com	r25
    2922:	2d ef       	ldi	r18, 0xFD	; 253
    2924:	3f ef       	ldi	r19, 0xFF	; 255
    2926:	28 1b       	sub	r18, r24
    2928:	39 0b       	sbc	r19, r25
    292a:	8c 8d       	ldd	r24, Y+28	; 0x1c
    292c:	9d 8d       	ldd	r25, Y+29	; 0x1d
    292e:	ae 8d       	ldd	r26, Y+30	; 0x1e
    2930:	bf 8d       	ldd	r27, Y+31	; 0x1f
    2932:	7c 01       	movw	r14, r24
    2934:	8d 01       	movw	r16, r26
    2936:	04 c0       	rjmp	.+8      	; 0x2940 <usart_set_baudrate+0x218>
    2938:	ee 0c       	add	r14, r14
    293a:	ff 1c       	adc	r15, r15
    293c:	00 1f       	adc	r16, r16
    293e:	11 1f       	adc	r17, r17
    2940:	2a 95       	dec	r18
    2942:	d2 f7       	brpl	.-12     	; 0x2938 <usart_set_baudrate+0x210>
    2944:	a8 01       	movw	r20, r16
    2946:	97 01       	movw	r18, r14
    2948:	88 8d       	ldd	r24, Y+24	; 0x18
    294a:	99 8d       	ldd	r25, Y+25	; 0x19
    294c:	aa 8d       	ldd	r26, Y+26	; 0x1a
    294e:	bb 8d       	ldd	r27, Y+27	; 0x1b
    2950:	b6 95       	lsr	r27
    2952:	a7 95       	ror	r26
    2954:	97 95       	ror	r25
    2956:	87 95       	ror	r24
    2958:	82 0f       	add	r24, r18
    295a:	93 1f       	adc	r25, r19
    295c:	a4 1f       	adc	r26, r20
    295e:	b5 1f       	adc	r27, r21
    2960:	28 8d       	ldd	r18, Y+24	; 0x18
    2962:	39 8d       	ldd	r19, Y+25	; 0x19
    2964:	4a 8d       	ldd	r20, Y+26	; 0x1a
    2966:	5b 8d       	ldd	r21, Y+27	; 0x1b
    2968:	bc 01       	movw	r22, r24
    296a:	cd 01       	movw	r24, r26
    296c:	0e 94 3f 2f 	call	0x5e7e	; 0x5e7e <__udivmodsi4>
    2970:	2a 83       	std	Y+2, r18	; 0x02
    2972:	3b 83       	std	Y+3, r19	; 0x03
    2974:	4c 83       	std	Y+4, r20	; 0x04
    2976:	5d 83       	std	Y+5, r21	; 0x05
    2978:	6e c0       	rjmp	.+220    	; 0x2a56 <usart_set_baudrate+0x32e>
    297a:	89 81       	ldd	r24, Y+1	; 0x01
    297c:	99 27       	eor	r25, r25
    297e:	87 fd       	sbrc	r24, 7
    2980:	90 95       	com	r25
    2982:	9c 01       	movw	r18, r24
    2984:	2d 5f       	subi	r18, 0xFD	; 253
    2986:	3f 4f       	sbci	r19, 0xFF	; 255
    2988:	88 8d       	ldd	r24, Y+24	; 0x18
    298a:	99 8d       	ldd	r25, Y+25	; 0x19
    298c:	aa 8d       	ldd	r26, Y+26	; 0x1a
    298e:	bb 8d       	ldd	r27, Y+27	; 0x1b
    2990:	04 c0       	rjmp	.+8      	; 0x299a <usart_set_baudrate+0x272>
    2992:	88 0f       	add	r24, r24
    2994:	99 1f       	adc	r25, r25
    2996:	aa 1f       	adc	r26, r26
    2998:	bb 1f       	adc	r27, r27
    299a:	2a 95       	dec	r18
    299c:	d2 f7       	brpl	.-12     	; 0x2992 <usart_set_baudrate+0x26a>
    299e:	88 8f       	std	Y+24, r24	; 0x18
    29a0:	99 8f       	std	Y+25, r25	; 0x19
    29a2:	aa 8f       	std	Y+26, r26	; 0x1a
    29a4:	bb 8f       	std	Y+27, r27	; 0x1b
    29a6:	88 8d       	ldd	r24, Y+24	; 0x18
    29a8:	99 8d       	ldd	r25, Y+25	; 0x19
    29aa:	aa 8d       	ldd	r26, Y+26	; 0x1a
    29ac:	bb 8d       	ldd	r27, Y+27	; 0x1b
    29ae:	9c 01       	movw	r18, r24
    29b0:	ad 01       	movw	r20, r26
    29b2:	56 95       	lsr	r21
    29b4:	47 95       	ror	r20
    29b6:	37 95       	ror	r19
    29b8:	27 95       	ror	r18
    29ba:	8c 8d       	ldd	r24, Y+28	; 0x1c
    29bc:	9d 8d       	ldd	r25, Y+29	; 0x1d
    29be:	ae 8d       	ldd	r26, Y+30	; 0x1e
    29c0:	bf 8d       	ldd	r27, Y+31	; 0x1f
    29c2:	82 0f       	add	r24, r18
    29c4:	93 1f       	adc	r25, r19
    29c6:	a4 1f       	adc	r26, r20
    29c8:	b5 1f       	adc	r27, r21
    29ca:	28 8d       	ldd	r18, Y+24	; 0x18
    29cc:	39 8d       	ldd	r19, Y+25	; 0x19
    29ce:	4a 8d       	ldd	r20, Y+26	; 0x1a
    29d0:	5b 8d       	ldd	r21, Y+27	; 0x1b
    29d2:	bc 01       	movw	r22, r24
    29d4:	cd 01       	movw	r24, r26
    29d6:	0e 94 3f 2f 	call	0x5e7e	; 0x5e7e <__udivmodsi4>
    29da:	2a 83       	std	Y+2, r18	; 0x02
    29dc:	3b 83       	std	Y+3, r19	; 0x03
    29de:	4c 83       	std	Y+4, r20	; 0x04
    29e0:	5d 83       	std	Y+5, r21	; 0x05
    29e2:	39 c0       	rjmp	.+114    	; 0x2a56 <usart_set_baudrate+0x32e>
    29e4:	89 81       	ldd	r24, Y+1	; 0x01
    29e6:	99 27       	eor	r25, r25
    29e8:	87 fd       	sbrc	r24, 7
    29ea:	90 95       	com	r25
    29ec:	9c 01       	movw	r18, r24
    29ee:	2d 5f       	subi	r18, 0xFD	; 253
    29f0:	3f 4f       	sbci	r19, 0xFF	; 255
    29f2:	88 8d       	ldd	r24, Y+24	; 0x18
    29f4:	99 8d       	ldd	r25, Y+25	; 0x19
    29f6:	aa 8d       	ldd	r26, Y+26	; 0x1a
    29f8:	bb 8d       	ldd	r27, Y+27	; 0x1b
    29fa:	04 c0       	rjmp	.+8      	; 0x2a04 <usart_set_baudrate+0x2dc>
    29fc:	88 0f       	add	r24, r24
    29fe:	99 1f       	adc	r25, r25
    2a00:	aa 1f       	adc	r26, r26
    2a02:	bb 1f       	adc	r27, r27
    2a04:	2a 95       	dec	r18
    2a06:	d2 f7       	brpl	.-12     	; 0x29fc <usart_set_baudrate+0x2d4>
    2a08:	88 8f       	std	Y+24, r24	; 0x18
    2a0a:	99 8f       	std	Y+25, r25	; 0x19
    2a0c:	aa 8f       	std	Y+26, r26	; 0x1a
    2a0e:	bb 8f       	std	Y+27, r27	; 0x1b
    2a10:	88 8d       	ldd	r24, Y+24	; 0x18
    2a12:	99 8d       	ldd	r25, Y+25	; 0x19
    2a14:	aa 8d       	ldd	r26, Y+26	; 0x1a
    2a16:	bb 8d       	ldd	r27, Y+27	; 0x1b
    2a18:	9c 01       	movw	r18, r24
    2a1a:	ad 01       	movw	r20, r26
    2a1c:	56 95       	lsr	r21
    2a1e:	47 95       	ror	r20
    2a20:	37 95       	ror	r19
    2a22:	27 95       	ror	r18
    2a24:	8c 8d       	ldd	r24, Y+28	; 0x1c
    2a26:	9d 8d       	ldd	r25, Y+29	; 0x1d
    2a28:	ae 8d       	ldd	r26, Y+30	; 0x1e
    2a2a:	bf 8d       	ldd	r27, Y+31	; 0x1f
    2a2c:	82 0f       	add	r24, r18
    2a2e:	93 1f       	adc	r25, r19
    2a30:	a4 1f       	adc	r26, r20
    2a32:	b5 1f       	adc	r27, r21
    2a34:	28 8d       	ldd	r18, Y+24	; 0x18
    2a36:	39 8d       	ldd	r19, Y+25	; 0x19
    2a38:	4a 8d       	ldd	r20, Y+26	; 0x1a
    2a3a:	5b 8d       	ldd	r21, Y+27	; 0x1b
    2a3c:	bc 01       	movw	r22, r24
    2a3e:	cd 01       	movw	r24, r26
    2a40:	0e 94 3f 2f 	call	0x5e7e	; 0x5e7e <__udivmodsi4>
    2a44:	da 01       	movw	r26, r20
    2a46:	c9 01       	movw	r24, r18
    2a48:	01 97       	sbiw	r24, 0x01	; 1
    2a4a:	a1 09       	sbc	r26, r1
    2a4c:	b1 09       	sbc	r27, r1
    2a4e:	8a 83       	std	Y+2, r24	; 0x02
    2a50:	9b 83       	std	Y+3, r25	; 0x03
    2a52:	ac 83       	std	Y+4, r26	; 0x04
    2a54:	bd 83       	std	Y+5, r27	; 0x05
    2a56:	8a 81       	ldd	r24, Y+2	; 0x02
    2a58:	9b 81       	ldd	r25, Y+3	; 0x03
    2a5a:	ac 81       	ldd	r26, Y+4	; 0x04
    2a5c:	bd 81       	ldd	r27, Y+5	; 0x05
    2a5e:	89 2f       	mov	r24, r25
    2a60:	9a 2f       	mov	r25, r26
    2a62:	ab 2f       	mov	r26, r27
    2a64:	bb 27       	eor	r27, r27
    2a66:	98 2f       	mov	r25, r24
    2a68:	9f 70       	andi	r25, 0x0F	; 15
    2a6a:	89 81       	ldd	r24, Y+1	; 0x01
    2a6c:	82 95       	swap	r24
    2a6e:	80 7f       	andi	r24, 0xF0	; 240
    2a70:	29 2f       	mov	r18, r25
    2a72:	28 2b       	or	r18, r24
    2a74:	8e 89       	ldd	r24, Y+22	; 0x16
    2a76:	9f 89       	ldd	r25, Y+23	; 0x17
    2a78:	fc 01       	movw	r30, r24
    2a7a:	27 83       	std	Z+7, r18	; 0x07
    2a7c:	2a 81       	ldd	r18, Y+2	; 0x02
    2a7e:	8e 89       	ldd	r24, Y+22	; 0x16
    2a80:	9f 89       	ldd	r25, Y+23	; 0x17
    2a82:	fc 01       	movw	r30, r24
    2a84:	26 83       	std	Z+6, r18	; 0x06
    2a86:	81 e0       	ldi	r24, 0x01	; 1
    2a88:	6f 96       	adiw	r28, 0x1f	; 31
    2a8a:	cd bf       	out	0x3d, r28	; 61
    2a8c:	de bf       	out	0x3e, r29	; 62
    2a8e:	df 91       	pop	r29
    2a90:	cf 91       	pop	r28
    2a92:	1f 91       	pop	r17
    2a94:	0f 91       	pop	r16
    2a96:	ff 90       	pop	r15
    2a98:	ef 90       	pop	r14
    2a9a:	08 95       	ret

00002a9c <cpu_irq_save>:
}
void COA_set_mesureQuontity(uint8_t INTERVAL_COUNT)
{
	//:   
	Intervals_count = INTERVAL_COUNT;
}
    2a9c:	cf 93       	push	r28
    2a9e:	df 93       	push	r29
    2aa0:	1f 92       	push	r1
    2aa2:	cd b7       	in	r28, 0x3d	; 61
    2aa4:	de b7       	in	r29, 0x3e	; 62
    2aa6:	8f e3       	ldi	r24, 0x3F	; 63
    2aa8:	90 e0       	ldi	r25, 0x00	; 0
    2aaa:	fc 01       	movw	r30, r24
    2aac:	80 81       	ld	r24, Z
    2aae:	89 83       	std	Y+1, r24	; 0x01
    2ab0:	f8 94       	cli
    2ab2:	89 81       	ldd	r24, Y+1	; 0x01
    2ab4:	0f 90       	pop	r0
    2ab6:	df 91       	pop	r29
    2ab8:	cf 91       	pop	r28
    2aba:	08 95       	ret

00002abc <cpu_irq_restore>:
    2abc:	cf 93       	push	r28
    2abe:	df 93       	push	r29
    2ac0:	1f 92       	push	r1
    2ac2:	cd b7       	in	r28, 0x3d	; 61
    2ac4:	de b7       	in	r29, 0x3e	; 62
    2ac6:	89 83       	std	Y+1, r24	; 0x01
    2ac8:	8f e3       	ldi	r24, 0x3F	; 63
    2aca:	90 e0       	ldi	r25, 0x00	; 0
    2acc:	29 81       	ldd	r18, Y+1	; 0x01
    2ace:	fc 01       	movw	r30, r24
    2ad0:	20 83       	st	Z, r18
    2ad2:	0f 90       	pop	r0
    2ad4:	df 91       	pop	r29
    2ad6:	cf 91       	pop	r28
    2ad8:	08 95       	ret

00002ada <osc_enable_internal>:
    2ada:	cf 93       	push	r28
    2adc:	df 93       	push	r29
    2ade:	00 d0       	rcall	.+0      	; 0x2ae0 <osc_enable_internal+0x6>
    2ae0:	cd b7       	in	r28, 0x3d	; 61
    2ae2:	de b7       	in	r29, 0x3e	; 62
    2ae4:	8a 83       	std	Y+2, r24	; 0x02
    2ae6:	da df       	rcall	.-76     	; 0x2a9c <cpu_irq_save>
    2ae8:	89 83       	std	Y+1, r24	; 0x01
    2aea:	80 e5       	ldi	r24, 0x50	; 80
    2aec:	90 e0       	ldi	r25, 0x00	; 0
    2aee:	20 e5       	ldi	r18, 0x50	; 80
    2af0:	30 e0       	ldi	r19, 0x00	; 0
    2af2:	f9 01       	movw	r30, r18
    2af4:	30 81       	ld	r19, Z
    2af6:	2a 81       	ldd	r18, Y+2	; 0x02
    2af8:	23 2b       	or	r18, r19
    2afa:	fc 01       	movw	r30, r24
    2afc:	20 83       	st	Z, r18
    2afe:	89 81       	ldd	r24, Y+1	; 0x01
    2b00:	dd df       	rcall	.-70     	; 0x2abc <cpu_irq_restore>
    2b02:	0f 90       	pop	r0
    2b04:	0f 90       	pop	r0
    2b06:	df 91       	pop	r29
    2b08:	cf 91       	pop	r28
    2b0a:	08 95       	ret

00002b0c <osc_enable_external>:
    2b0c:	cf 93       	push	r28
    2b0e:	df 93       	push	r29
    2b10:	1f 92       	push	r1
    2b12:	cd b7       	in	r28, 0x3d	; 61
    2b14:	de b7       	in	r29, 0x3e	; 62
    2b16:	89 83       	std	Y+1, r24	; 0x01
    2b18:	0f 90       	pop	r0
    2b1a:	df 91       	pop	r29
    2b1c:	cf 91       	pop	r28
    2b1e:	08 95       	ret

00002b20 <osc_disable>:
    2b20:	cf 93       	push	r28
    2b22:	df 93       	push	r29
    2b24:	00 d0       	rcall	.+0      	; 0x2b26 <osc_disable+0x6>
    2b26:	cd b7       	in	r28, 0x3d	; 61
    2b28:	de b7       	in	r29, 0x3e	; 62
    2b2a:	8a 83       	std	Y+2, r24	; 0x02
    2b2c:	b7 df       	rcall	.-146    	; 0x2a9c <cpu_irq_save>
    2b2e:	89 83       	std	Y+1, r24	; 0x01
    2b30:	80 e5       	ldi	r24, 0x50	; 80
    2b32:	90 e0       	ldi	r25, 0x00	; 0
    2b34:	20 e5       	ldi	r18, 0x50	; 80
    2b36:	30 e0       	ldi	r19, 0x00	; 0
    2b38:	f9 01       	movw	r30, r18
    2b3a:	20 81       	ld	r18, Z
    2b3c:	32 2f       	mov	r19, r18
    2b3e:	2a 81       	ldd	r18, Y+2	; 0x02
    2b40:	20 95       	com	r18
    2b42:	23 23       	and	r18, r19
    2b44:	fc 01       	movw	r30, r24
    2b46:	20 83       	st	Z, r18
    2b48:	89 81       	ldd	r24, Y+1	; 0x01
    2b4a:	b8 df       	rcall	.-144    	; 0x2abc <cpu_irq_restore>
    2b4c:	0f 90       	pop	r0
    2b4e:	0f 90       	pop	r0
    2b50:	df 91       	pop	r29
    2b52:	cf 91       	pop	r28
    2b54:	08 95       	ret

00002b56 <osc_enable>:
    2b56:	cf 93       	push	r28
    2b58:	df 93       	push	r29
    2b5a:	1f 92       	push	r1
    2b5c:	cd b7       	in	r28, 0x3d	; 61
    2b5e:	de b7       	in	r29, 0x3e	; 62
    2b60:	89 83       	std	Y+1, r24	; 0x01
    2b62:	89 81       	ldd	r24, Y+1	; 0x01
    2b64:	88 30       	cpi	r24, 0x08	; 8
    2b66:	19 f0       	breq	.+6      	; 0x2b6e <osc_enable+0x18>
    2b68:	89 81       	ldd	r24, Y+1	; 0x01
    2b6a:	b7 df       	rcall	.-146    	; 0x2ada <osc_enable_internal>
    2b6c:	02 c0       	rjmp	.+4      	; 0x2b72 <osc_enable+0x1c>
    2b6e:	89 81       	ldd	r24, Y+1	; 0x01
    2b70:	cd df       	rcall	.-102    	; 0x2b0c <osc_enable_external>
    2b72:	0f 90       	pop	r0
    2b74:	df 91       	pop	r29
    2b76:	cf 91       	pop	r28
    2b78:	08 95       	ret

00002b7a <osc_is_ready>:
    2b7a:	cf 93       	push	r28
    2b7c:	df 93       	push	r29
    2b7e:	1f 92       	push	r1
    2b80:	cd b7       	in	r28, 0x3d	; 61
    2b82:	de b7       	in	r29, 0x3e	; 62
    2b84:	89 83       	std	Y+1, r24	; 0x01
    2b86:	80 e5       	ldi	r24, 0x50	; 80
    2b88:	90 e0       	ldi	r25, 0x00	; 0
    2b8a:	fc 01       	movw	r30, r24
    2b8c:	91 81       	ldd	r25, Z+1	; 0x01
    2b8e:	89 81       	ldd	r24, Y+1	; 0x01
    2b90:	98 23       	and	r25, r24
    2b92:	81 e0       	ldi	r24, 0x01	; 1
    2b94:	99 23       	and	r25, r25
    2b96:	09 f4       	brne	.+2      	; 0x2b9a <osc_is_ready+0x20>
    2b98:	80 e0       	ldi	r24, 0x00	; 0
    2b9a:	0f 90       	pop	r0
    2b9c:	df 91       	pop	r29
    2b9e:	cf 91       	pop	r28
    2ba0:	08 95       	ret

00002ba2 <osc_wait_ready>:
    2ba2:	cf 93       	push	r28
    2ba4:	df 93       	push	r29
    2ba6:	1f 92       	push	r1
    2ba8:	cd b7       	in	r28, 0x3d	; 61
    2baa:	de b7       	in	r29, 0x3e	; 62
    2bac:	89 83       	std	Y+1, r24	; 0x01
    2bae:	00 00       	nop
    2bb0:	89 81       	ldd	r24, Y+1	; 0x01
    2bb2:	e3 df       	rcall	.-58     	; 0x2b7a <osc_is_ready>
    2bb4:	98 2f       	mov	r25, r24
    2bb6:	81 e0       	ldi	r24, 0x01	; 1
    2bb8:	89 27       	eor	r24, r25
    2bba:	88 23       	and	r24, r24
    2bbc:	c9 f7       	brne	.-14     	; 0x2bb0 <osc_wait_ready+0xe>
    2bbe:	0f 90       	pop	r0
    2bc0:	df 91       	pop	r29
    2bc2:	cf 91       	pop	r28
    2bc4:	08 95       	ret

00002bc6 <sysclk_get_main_hz>:
    2bc6:	cf 93       	push	r28
    2bc8:	df 93       	push	r29
    2bca:	cd b7       	in	r28, 0x3d	; 61
    2bcc:	de b7       	in	r29, 0x3e	; 62
    2bce:	80 e0       	ldi	r24, 0x00	; 0
    2bd0:	98 e4       	ldi	r25, 0x48	; 72
    2bd2:	a8 ee       	ldi	r26, 0xE8	; 232
    2bd4:	b1 e0       	ldi	r27, 0x01	; 1
    2bd6:	bc 01       	movw	r22, r24
    2bd8:	cd 01       	movw	r24, r26
    2bda:	df 91       	pop	r29
    2bdc:	cf 91       	pop	r28
    2bde:	08 95       	ret

00002be0 <sysclk_get_per4_hz>:
    2be0:	cf 93       	push	r28
    2be2:	df 93       	push	r29
    2be4:	1f 92       	push	r1
    2be6:	cd b7       	in	r28, 0x3d	; 61
    2be8:	de b7       	in	r29, 0x3e	; 62
    2bea:	19 82       	std	Y+1, r1	; 0x01
    2bec:	ec df       	rcall	.-40     	; 0x2bc6 <sysclk_get_main_hz>
    2bee:	dc 01       	movw	r26, r24
    2bf0:	cb 01       	movw	r24, r22
    2bf2:	29 81       	ldd	r18, Y+1	; 0x01
    2bf4:	22 2f       	mov	r18, r18
    2bf6:	30 e0       	ldi	r19, 0x00	; 0
    2bf8:	02 2e       	mov	r0, r18
    2bfa:	04 c0       	rjmp	.+8      	; 0x2c04 <sysclk_get_per4_hz+0x24>
    2bfc:	b6 95       	lsr	r27
    2bfe:	a7 95       	ror	r26
    2c00:	97 95       	ror	r25
    2c02:	87 95       	ror	r24
    2c04:	0a 94       	dec	r0
    2c06:	d2 f7       	brpl	.-12     	; 0x2bfc <sysclk_get_per4_hz+0x1c>
    2c08:	bc 01       	movw	r22, r24
    2c0a:	cd 01       	movw	r24, r26
    2c0c:	0f 90       	pop	r0
    2c0e:	df 91       	pop	r29
    2c10:	cf 91       	pop	r28
    2c12:	08 95       	ret

00002c14 <sysclk_get_per2_hz>:
    2c14:	cf 93       	push	r28
    2c16:	df 93       	push	r29
    2c18:	cd b7       	in	r28, 0x3d	; 61
    2c1a:	de b7       	in	r29, 0x3e	; 62
    2c1c:	e1 df       	rcall	.-62     	; 0x2be0 <sysclk_get_per4_hz>
    2c1e:	dc 01       	movw	r26, r24
    2c20:	cb 01       	movw	r24, r22
    2c22:	bc 01       	movw	r22, r24
    2c24:	cd 01       	movw	r24, r26
    2c26:	df 91       	pop	r29
    2c28:	cf 91       	pop	r28
    2c2a:	08 95       	ret

00002c2c <sysclk_get_per_hz>:
    2c2c:	cf 93       	push	r28
    2c2e:	df 93       	push	r29
    2c30:	cd b7       	in	r28, 0x3d	; 61
    2c32:	de b7       	in	r29, 0x3e	; 62
    2c34:	ef df       	rcall	.-34     	; 0x2c14 <sysclk_get_per2_hz>
    2c36:	dc 01       	movw	r26, r24
    2c38:	cb 01       	movw	r24, r22
    2c3a:	bc 01       	movw	r22, r24
    2c3c:	cd 01       	movw	r24, r26
    2c3e:	df 91       	pop	r29
    2c40:	cf 91       	pop	r28
    2c42:	08 95       	ret

00002c44 <sysclk_get_cpu_hz>:
    2c44:	cf 93       	push	r28
    2c46:	df 93       	push	r29
    2c48:	cd b7       	in	r28, 0x3d	; 61
    2c4a:	de b7       	in	r29, 0x3e	; 62
    2c4c:	ef df       	rcall	.-34     	; 0x2c2c <sysclk_get_per_hz>
    2c4e:	dc 01       	movw	r26, r24
    2c50:	cb 01       	movw	r24, r22
    2c52:	bc 01       	movw	r22, r24
    2c54:	cd 01       	movw	r24, r26
    2c56:	df 91       	pop	r29
    2c58:	cf 91       	pop	r28
    2c5a:	08 95       	ret

00002c5c <__portable_avr_delay_cycles>:
    2c5c:	61 50       	subi	r22, 0x01	; 1
    2c5e:	71 09       	sbc	r23, r1
    2c60:	81 09       	sbc	r24, r1
    2c62:	91 09       	sbc	r25, r1
    2c64:	d9 f7       	brne	.-10     	; 0x2c5c <__portable_avr_delay_cycles>
    2c66:	08 95       	ret

00002c68 <ioport_set_value>:
    2c68:	cf 93       	push	r28
    2c6a:	df 93       	push	r29
    2c6c:	cd b7       	in	r28, 0x3d	; 61
    2c6e:	de b7       	in	r29, 0x3e	; 62
    2c70:	2b 97       	sbiw	r28, 0x0b	; 11
    2c72:	cd bf       	out	0x3d, r28	; 61
    2c74:	de bf       	out	0x3e, r29	; 62
    2c76:	8a 87       	std	Y+10, r24	; 0x0a
    2c78:	6b 87       	std	Y+11, r22	; 0x0b
    2c7a:	8a 85       	ldd	r24, Y+10	; 0x0a
    2c7c:	89 83       	std	Y+1, r24	; 0x01
    2c7e:	8b 85       	ldd	r24, Y+11	; 0x0b
    2c80:	8a 83       	std	Y+2, r24	; 0x02
    2c82:	89 81       	ldd	r24, Y+1	; 0x01
    2c84:	8b 83       	std	Y+3, r24	; 0x03
    2c86:	8b 81       	ldd	r24, Y+3	; 0x03
    2c88:	8c 83       	std	Y+4, r24	; 0x04
    2c8a:	8c 81       	ldd	r24, Y+4	; 0x04
    2c8c:	86 95       	lsr	r24
    2c8e:	86 95       	lsr	r24
    2c90:	86 95       	lsr	r24
    2c92:	8d 83       	std	Y+5, r24	; 0x05
    2c94:	8d 81       	ldd	r24, Y+5	; 0x05
    2c96:	88 2f       	mov	r24, r24
    2c98:	90 e0       	ldi	r25, 0x00	; 0
    2c9a:	88 0f       	add	r24, r24
    2c9c:	99 1f       	adc	r25, r25
    2c9e:	82 95       	swap	r24
    2ca0:	92 95       	swap	r25
    2ca2:	90 7f       	andi	r25, 0xF0	; 240
    2ca4:	98 27       	eor	r25, r24
    2ca6:	80 7f       	andi	r24, 0xF0	; 240
    2ca8:	98 27       	eor	r25, r24
    2caa:	9a 5f       	subi	r25, 0xFA	; 250
    2cac:	8e 83       	std	Y+6, r24	; 0x06
    2cae:	9f 83       	std	Y+7, r25	; 0x07
    2cb0:	8a 81       	ldd	r24, Y+2	; 0x02
    2cb2:	88 23       	and	r24, r24
    2cb4:	a9 f0       	breq	.+42     	; 0x2ce0 <ioport_set_value+0x78>
    2cb6:	89 81       	ldd	r24, Y+1	; 0x01
    2cb8:	88 87       	std	Y+8, r24	; 0x08
    2cba:	88 85       	ldd	r24, Y+8	; 0x08
    2cbc:	88 2f       	mov	r24, r24
    2cbe:	90 e0       	ldi	r25, 0x00	; 0
    2cc0:	9c 01       	movw	r18, r24
    2cc2:	27 70       	andi	r18, 0x07	; 7
    2cc4:	33 27       	eor	r19, r19
    2cc6:	81 e0       	ldi	r24, 0x01	; 1
    2cc8:	90 e0       	ldi	r25, 0x00	; 0
    2cca:	02 c0       	rjmp	.+4      	; 0x2cd0 <ioport_set_value+0x68>
    2ccc:	88 0f       	add	r24, r24
    2cce:	99 1f       	adc	r25, r25
    2cd0:	2a 95       	dec	r18
    2cd2:	e2 f7       	brpl	.-8      	; 0x2ccc <ioport_set_value+0x64>
    2cd4:	28 2f       	mov	r18, r24
    2cd6:	8e 81       	ldd	r24, Y+6	; 0x06
    2cd8:	9f 81       	ldd	r25, Y+7	; 0x07
    2cda:	fc 01       	movw	r30, r24
    2cdc:	25 83       	std	Z+5, r18	; 0x05
    2cde:	14 c0       	rjmp	.+40     	; 0x2d08 <ioport_set_value+0xa0>
    2ce0:	89 81       	ldd	r24, Y+1	; 0x01
    2ce2:	89 87       	std	Y+9, r24	; 0x09
    2ce4:	89 85       	ldd	r24, Y+9	; 0x09
    2ce6:	88 2f       	mov	r24, r24
    2ce8:	90 e0       	ldi	r25, 0x00	; 0
    2cea:	9c 01       	movw	r18, r24
    2cec:	27 70       	andi	r18, 0x07	; 7
    2cee:	33 27       	eor	r19, r19
    2cf0:	81 e0       	ldi	r24, 0x01	; 1
    2cf2:	90 e0       	ldi	r25, 0x00	; 0
    2cf4:	02 c0       	rjmp	.+4      	; 0x2cfa <ioport_set_value+0x92>
    2cf6:	88 0f       	add	r24, r24
    2cf8:	99 1f       	adc	r25, r25
    2cfa:	2a 95       	dec	r18
    2cfc:	e2 f7       	brpl	.-8      	; 0x2cf6 <ioport_set_value+0x8e>
    2cfe:	28 2f       	mov	r18, r24
    2d00:	8e 81       	ldd	r24, Y+6	; 0x06
    2d02:	9f 81       	ldd	r25, Y+7	; 0x07
    2d04:	fc 01       	movw	r30, r24
    2d06:	26 83       	std	Z+6, r18	; 0x06
    2d08:	2b 96       	adiw	r28, 0x0b	; 11
    2d0a:	cd bf       	out	0x3d, r28	; 61
    2d0c:	de bf       	out	0x3e, r29	; 62
    2d0e:	df 91       	pop	r29
    2d10:	cf 91       	pop	r28
    2d12:	08 95       	ret

00002d14 <ioport_toggle_pin>:
    2d14:	cf 93       	push	r28
    2d16:	df 93       	push	r29
    2d18:	cd b7       	in	r28, 0x3d	; 61
    2d1a:	de b7       	in	r29, 0x3e	; 62
    2d1c:	28 97       	sbiw	r28, 0x08	; 8
    2d1e:	cd bf       	out	0x3d, r28	; 61
    2d20:	de bf       	out	0x3e, r29	; 62
    2d22:	88 87       	std	Y+8, r24	; 0x08
    2d24:	88 85       	ldd	r24, Y+8	; 0x08
    2d26:	89 83       	std	Y+1, r24	; 0x01
    2d28:	89 81       	ldd	r24, Y+1	; 0x01
    2d2a:	8a 83       	std	Y+2, r24	; 0x02
    2d2c:	8a 81       	ldd	r24, Y+2	; 0x02
    2d2e:	8b 83       	std	Y+3, r24	; 0x03
    2d30:	8b 81       	ldd	r24, Y+3	; 0x03
    2d32:	86 95       	lsr	r24
    2d34:	86 95       	lsr	r24
    2d36:	86 95       	lsr	r24
    2d38:	8c 83       	std	Y+4, r24	; 0x04
    2d3a:	8c 81       	ldd	r24, Y+4	; 0x04
    2d3c:	88 2f       	mov	r24, r24
    2d3e:	90 e0       	ldi	r25, 0x00	; 0
    2d40:	88 0f       	add	r24, r24
    2d42:	99 1f       	adc	r25, r25
    2d44:	82 95       	swap	r24
    2d46:	92 95       	swap	r25
    2d48:	90 7f       	andi	r25, 0xF0	; 240
    2d4a:	98 27       	eor	r25, r24
    2d4c:	80 7f       	andi	r24, 0xF0	; 240
    2d4e:	98 27       	eor	r25, r24
    2d50:	9a 5f       	subi	r25, 0xFA	; 250
    2d52:	8d 83       	std	Y+5, r24	; 0x05
    2d54:	9e 83       	std	Y+6, r25	; 0x06
    2d56:	89 81       	ldd	r24, Y+1	; 0x01
    2d58:	8f 83       	std	Y+7, r24	; 0x07
    2d5a:	8f 81       	ldd	r24, Y+7	; 0x07
    2d5c:	88 2f       	mov	r24, r24
    2d5e:	90 e0       	ldi	r25, 0x00	; 0
    2d60:	9c 01       	movw	r18, r24
    2d62:	27 70       	andi	r18, 0x07	; 7
    2d64:	33 27       	eor	r19, r19
    2d66:	81 e0       	ldi	r24, 0x01	; 1
    2d68:	90 e0       	ldi	r25, 0x00	; 0
    2d6a:	02 c0       	rjmp	.+4      	; 0x2d70 <ioport_toggle_pin+0x5c>
    2d6c:	88 0f       	add	r24, r24
    2d6e:	99 1f       	adc	r25, r25
    2d70:	2a 95       	dec	r18
    2d72:	e2 f7       	brpl	.-8      	; 0x2d6c <ioport_toggle_pin+0x58>
    2d74:	28 2f       	mov	r18, r24
    2d76:	8d 81       	ldd	r24, Y+5	; 0x05
    2d78:	9e 81       	ldd	r25, Y+6	; 0x06
    2d7a:	fc 01       	movw	r30, r24
    2d7c:	27 83       	std	Z+7, r18	; 0x07
    2d7e:	28 96       	adiw	r28, 0x08	; 8
    2d80:	cd bf       	out	0x3d, r28	; 61
    2d82:	de bf       	out	0x3e, r29	; 62
    2d84:	df 91       	pop	r29
    2d86:	cf 91       	pop	r28
    2d88:	08 95       	ret

00002d8a <pmic_init>:
    2d8a:	cf 93       	push	r28
    2d8c:	df 93       	push	r29
    2d8e:	cd b7       	in	r28, 0x3d	; 61
    2d90:	de b7       	in	r29, 0x3e	; 62
    2d92:	80 ea       	ldi	r24, 0xA0	; 160
    2d94:	90 e0       	ldi	r25, 0x00	; 0
    2d96:	27 e0       	ldi	r18, 0x07	; 7
    2d98:	fc 01       	movw	r30, r24
    2d9a:	22 83       	std	Z+2, r18	; 0x02
    2d9c:	df 91       	pop	r29
    2d9e:	cf 91       	pop	r28
    2da0:	08 95       	ret

00002da2 <spi_enable>:
    2da2:	cf 93       	push	r28
    2da4:	df 93       	push	r29
    2da6:	00 d0       	rcall	.+0      	; 0x2da8 <spi_enable+0x6>
    2da8:	cd b7       	in	r28, 0x3d	; 61
    2daa:	de b7       	in	r29, 0x3e	; 62
    2dac:	89 83       	std	Y+1, r24	; 0x01
    2dae:	9a 83       	std	Y+2, r25	; 0x02
    2db0:	89 81       	ldd	r24, Y+1	; 0x01
    2db2:	9a 81       	ldd	r25, Y+2	; 0x02
    2db4:	fc 01       	movw	r30, r24
    2db6:	80 81       	ld	r24, Z
    2db8:	28 2f       	mov	r18, r24
    2dba:	20 64       	ori	r18, 0x40	; 64
    2dbc:	89 81       	ldd	r24, Y+1	; 0x01
    2dbe:	9a 81       	ldd	r25, Y+2	; 0x02
    2dc0:	fc 01       	movw	r30, r24
    2dc2:	20 83       	st	Z, r18
    2dc4:	0f 90       	pop	r0
    2dc6:	0f 90       	pop	r0
    2dc8:	df 91       	pop	r29
    2dca:	cf 91       	pop	r28
    2dcc:	08 95       	ret

00002dce <spi_put>:
    2dce:	cf 93       	push	r28
    2dd0:	df 93       	push	r29
    2dd2:	00 d0       	rcall	.+0      	; 0x2dd4 <spi_put+0x6>
    2dd4:	1f 92       	push	r1
    2dd6:	cd b7       	in	r28, 0x3d	; 61
    2dd8:	de b7       	in	r29, 0x3e	; 62
    2dda:	89 83       	std	Y+1, r24	; 0x01
    2ddc:	9a 83       	std	Y+2, r25	; 0x02
    2dde:	6b 83       	std	Y+3, r22	; 0x03
    2de0:	89 81       	ldd	r24, Y+1	; 0x01
    2de2:	9a 81       	ldd	r25, Y+2	; 0x02
    2de4:	2b 81       	ldd	r18, Y+3	; 0x03
    2de6:	fc 01       	movw	r30, r24
    2de8:	23 83       	std	Z+3, r18	; 0x03
    2dea:	23 96       	adiw	r28, 0x03	; 3
    2dec:	cd bf       	out	0x3d, r28	; 61
    2dee:	de bf       	out	0x3e, r29	; 62
    2df0:	df 91       	pop	r29
    2df2:	cf 91       	pop	r28
    2df4:	08 95       	ret

00002df6 <spi_get>:
    2df6:	cf 93       	push	r28
    2df8:	df 93       	push	r29
    2dfa:	00 d0       	rcall	.+0      	; 0x2dfc <spi_get+0x6>
    2dfc:	cd b7       	in	r28, 0x3d	; 61
    2dfe:	de b7       	in	r29, 0x3e	; 62
    2e00:	89 83       	std	Y+1, r24	; 0x01
    2e02:	9a 83       	std	Y+2, r25	; 0x02
    2e04:	89 81       	ldd	r24, Y+1	; 0x01
    2e06:	9a 81       	ldd	r25, Y+2	; 0x02
    2e08:	fc 01       	movw	r30, r24
    2e0a:	83 81       	ldd	r24, Z+3	; 0x03
    2e0c:	0f 90       	pop	r0
    2e0e:	0f 90       	pop	r0
    2e10:	df 91       	pop	r29
    2e12:	cf 91       	pop	r28
    2e14:	08 95       	ret

00002e16 <tc_set_overflow_interrupt_level>:
    2e16:	cf 93       	push	r28
    2e18:	df 93       	push	r29
    2e1a:	00 d0       	rcall	.+0      	; 0x2e1c <tc_set_overflow_interrupt_level+0x6>
    2e1c:	00 d0       	rcall	.+0      	; 0x2e1e <tc_set_overflow_interrupt_level+0x8>
    2e1e:	cd b7       	in	r28, 0x3d	; 61
    2e20:	de b7       	in	r29, 0x3e	; 62
    2e22:	89 83       	std	Y+1, r24	; 0x01
    2e24:	9a 83       	std	Y+2, r25	; 0x02
    2e26:	6b 83       	std	Y+3, r22	; 0x03
    2e28:	7c 83       	std	Y+4, r23	; 0x04
    2e2a:	89 81       	ldd	r24, Y+1	; 0x01
    2e2c:	9a 81       	ldd	r25, Y+2	; 0x02
    2e2e:	fc 01       	movw	r30, r24
    2e30:	86 81       	ldd	r24, Z+6	; 0x06
    2e32:	28 2f       	mov	r18, r24
    2e34:	2c 7f       	andi	r18, 0xFC	; 252
    2e36:	89 81       	ldd	r24, Y+1	; 0x01
    2e38:	9a 81       	ldd	r25, Y+2	; 0x02
    2e3a:	fc 01       	movw	r30, r24
    2e3c:	26 83       	std	Z+6, r18	; 0x06
    2e3e:	89 81       	ldd	r24, Y+1	; 0x01
    2e40:	9a 81       	ldd	r25, Y+2	; 0x02
    2e42:	fc 01       	movw	r30, r24
    2e44:	96 81       	ldd	r25, Z+6	; 0x06
    2e46:	8b 81       	ldd	r24, Y+3	; 0x03
    2e48:	29 2f       	mov	r18, r25
    2e4a:	28 2b       	or	r18, r24
    2e4c:	89 81       	ldd	r24, Y+1	; 0x01
    2e4e:	9a 81       	ldd	r25, Y+2	; 0x02
    2e50:	fc 01       	movw	r30, r24
    2e52:	26 83       	std	Z+6, r18	; 0x06
    2e54:	24 96       	adiw	r28, 0x04	; 4
    2e56:	cd bf       	out	0x3d, r28	; 61
    2e58:	de bf       	out	0x3e, r29	; 62
    2e5a:	df 91       	pop	r29
    2e5c:	cf 91       	pop	r28
    2e5e:	08 95       	ret

00002e60 <tc_write_clock_source>:
    2e60:	cf 93       	push	r28
    2e62:	df 93       	push	r29
    2e64:	00 d0       	rcall	.+0      	; 0x2e66 <tc_write_clock_source+0x6>
    2e66:	00 d0       	rcall	.+0      	; 0x2e68 <tc_write_clock_source+0x8>
    2e68:	cd b7       	in	r28, 0x3d	; 61
    2e6a:	de b7       	in	r29, 0x3e	; 62
    2e6c:	89 83       	std	Y+1, r24	; 0x01
    2e6e:	9a 83       	std	Y+2, r25	; 0x02
    2e70:	6b 83       	std	Y+3, r22	; 0x03
    2e72:	7c 83       	std	Y+4, r23	; 0x04
    2e74:	89 81       	ldd	r24, Y+1	; 0x01
    2e76:	9a 81       	ldd	r25, Y+2	; 0x02
    2e78:	fc 01       	movw	r30, r24
    2e7a:	80 81       	ld	r24, Z
    2e7c:	98 2f       	mov	r25, r24
    2e7e:	90 7f       	andi	r25, 0xF0	; 240
    2e80:	8b 81       	ldd	r24, Y+3	; 0x03
    2e82:	29 2f       	mov	r18, r25
    2e84:	28 2b       	or	r18, r24
    2e86:	89 81       	ldd	r24, Y+1	; 0x01
    2e88:	9a 81       	ldd	r25, Y+2	; 0x02
    2e8a:	fc 01       	movw	r30, r24
    2e8c:	20 83       	st	Z, r18
    2e8e:	24 96       	adiw	r28, 0x04	; 4
    2e90:	cd bf       	out	0x3d, r28	; 61
    2e92:	de bf       	out	0x3e, r29	; 62
    2e94:	df 91       	pop	r29
    2e96:	cf 91       	pop	r28
    2e98:	08 95       	ret

00002e9a <usart_set_rx_interrupt_level>:
    2e9a:	cf 93       	push	r28
    2e9c:	df 93       	push	r29
    2e9e:	00 d0       	rcall	.+0      	; 0x2ea0 <usart_set_rx_interrupt_level+0x6>
    2ea0:	00 d0       	rcall	.+0      	; 0x2ea2 <usart_set_rx_interrupt_level+0x8>
    2ea2:	cd b7       	in	r28, 0x3d	; 61
    2ea4:	de b7       	in	r29, 0x3e	; 62
    2ea6:	89 83       	std	Y+1, r24	; 0x01
    2ea8:	9a 83       	std	Y+2, r25	; 0x02
    2eaa:	6b 83       	std	Y+3, r22	; 0x03
    2eac:	7c 83       	std	Y+4, r23	; 0x04
    2eae:	89 81       	ldd	r24, Y+1	; 0x01
    2eb0:	9a 81       	ldd	r25, Y+2	; 0x02
    2eb2:	fc 01       	movw	r30, r24
    2eb4:	83 81       	ldd	r24, Z+3	; 0x03
    2eb6:	98 2f       	mov	r25, r24
    2eb8:	9f 7c       	andi	r25, 0xCF	; 207
    2eba:	8b 81       	ldd	r24, Y+3	; 0x03
    2ebc:	82 95       	swap	r24
    2ebe:	80 7f       	andi	r24, 0xF0	; 240
    2ec0:	29 2f       	mov	r18, r25
    2ec2:	28 2b       	or	r18, r24
    2ec4:	89 81       	ldd	r24, Y+1	; 0x01
    2ec6:	9a 81       	ldd	r25, Y+2	; 0x02
    2ec8:	fc 01       	movw	r30, r24
    2eca:	23 83       	std	Z+3, r18	; 0x03
    2ecc:	24 96       	adiw	r28, 0x04	; 4
    2ece:	cd bf       	out	0x3d, r28	; 61
    2ed0:	de bf       	out	0x3e, r29	; 62
    2ed2:	df 91       	pop	r29
    2ed4:	cf 91       	pop	r28
    2ed6:	08 95       	ret

00002ed8 <usart_put>:
    2ed8:	cf 93       	push	r28
    2eda:	df 93       	push	r29
    2edc:	00 d0       	rcall	.+0      	; 0x2ede <usart_put+0x6>
    2ede:	1f 92       	push	r1
    2ee0:	cd b7       	in	r28, 0x3d	; 61
    2ee2:	de b7       	in	r29, 0x3e	; 62
    2ee4:	89 83       	std	Y+1, r24	; 0x01
    2ee6:	9a 83       	std	Y+2, r25	; 0x02
    2ee8:	6b 83       	std	Y+3, r22	; 0x03
    2eea:	89 81       	ldd	r24, Y+1	; 0x01
    2eec:	9a 81       	ldd	r25, Y+2	; 0x02
    2eee:	2b 81       	ldd	r18, Y+3	; 0x03
    2ef0:	fc 01       	movw	r30, r24
    2ef2:	20 83       	st	Z, r18
    2ef4:	23 96       	adiw	r28, 0x03	; 3
    2ef6:	cd bf       	out	0x3d, r28	; 61
    2ef8:	de bf       	out	0x3e, r29	; 62
    2efa:	df 91       	pop	r29
    2efc:	cf 91       	pop	r28
    2efe:	08 95       	ret

00002f00 <__vector_58>:
    2f00:	1f 92       	push	r1
    2f02:	0f 92       	push	r0
    2f04:	00 90 3f 00 	lds	r0, 0x003F
    2f08:	0f 92       	push	r0
    2f0a:	11 24       	eor	r1, r1
    2f0c:	2f 93       	push	r18
    2f0e:	3f 93       	push	r19
    2f10:	4f 93       	push	r20
    2f12:	5f 93       	push	r21
    2f14:	6f 93       	push	r22
    2f16:	7f 93       	push	r23
    2f18:	8f 93       	push	r24
    2f1a:	9f 93       	push	r25
    2f1c:	af 93       	push	r26
    2f1e:	bf 93       	push	r27
    2f20:	ef 93       	push	r30
    2f22:	ff 93       	push	r31
    2f24:	cf 93       	push	r28
    2f26:	df 93       	push	r29
    2f28:	cd b7       	in	r28, 0x3d	; 61
    2f2a:	de b7       	in	r29, 0x3e	; 62
    2f2c:	80 ea       	ldi	r24, 0xA0	; 160
    2f2e:	9a e0       	ldi	r25, 0x0A	; 10
    2f30:	e2 db       	rcall	.-2108   	; 0x26f6 <usart_getchar>
    2f32:	80 93 58 20 	sts	0x2058, r24
    2f36:	80 91 59 20 	lds	r24, 0x2059
    2f3a:	88 23       	and	r24, r24
    2f3c:	09 f0       	breq	.+2      	; 0x2f40 <__vector_58+0x40>
    2f3e:	73 c0       	rjmp	.+230    	; 0x3026 <__stack+0x27>
    2f40:	80 91 58 20 	lds	r24, 0x2058
    2f44:	88 2f       	mov	r24, r24
    2f46:	90 e0       	ldi	r25, 0x00	; 0
    2f48:	8a 30       	cpi	r24, 0x0A	; 10
    2f4a:	91 05       	cpc	r25, r1
    2f4c:	d1 f1       	breq	.+116    	; 0x2fc2 <__vector_58+0xc2>
    2f4e:	8b 30       	cpi	r24, 0x0B	; 11
    2f50:	91 05       	cpc	r25, r1
    2f52:	dc f4       	brge	.+54     	; 0x2f8a <__vector_58+0x8a>
    2f54:	83 30       	cpi	r24, 0x03	; 3
    2f56:	91 05       	cpc	r25, r1
    2f58:	09 f4       	brne	.+2      	; 0x2f5c <__vector_58+0x5c>
    2f5a:	54 c0       	rjmp	.+168    	; 0x3004 <__stack+0x5>
    2f5c:	84 30       	cpi	r24, 0x04	; 4
    2f5e:	91 05       	cpc	r25, r1
    2f60:	4c f4       	brge	.+18     	; 0x2f74 <__vector_58+0x74>
    2f62:	81 30       	cpi	r24, 0x01	; 1
    2f64:	91 05       	cpc	r25, r1
    2f66:	09 f4       	brne	.+2      	; 0x2f6a <__vector_58+0x6a>
    2f68:	4f c0       	rjmp	.+158    	; 0x3008 <__stack+0x9>
    2f6a:	82 30       	cpi	r24, 0x02	; 2
    2f6c:	91 05       	cpc	r25, r1
    2f6e:	09 f4       	brne	.+2      	; 0x2f72 <__vector_58+0x72>
    2f70:	4d c0       	rjmp	.+154    	; 0x300c <__stack+0xd>
    2f72:	52 c0       	rjmp	.+164    	; 0x3018 <__stack+0x19>
    2f74:	86 30       	cpi	r24, 0x06	; 6
    2f76:	91 05       	cpc	r25, r1
    2f78:	b9 f1       	breq	.+110    	; 0x2fe8 <__vector_58+0xe8>
    2f7a:	87 30       	cpi	r24, 0x07	; 7
    2f7c:	91 05       	cpc	r25, r1
    2f7e:	81 f1       	breq	.+96     	; 0x2fe0 <__vector_58+0xe0>
    2f80:	85 30       	cpi	r24, 0x05	; 5
    2f82:	91 05       	cpc	r25, r1
    2f84:	09 f4       	brne	.+2      	; 0x2f88 <__vector_58+0x88>
    2f86:	44 c0       	rjmp	.+136    	; 0x3010 <__stack+0x11>
    2f88:	47 c0       	rjmp	.+142    	; 0x3018 <__stack+0x19>
    2f8a:	80 32       	cpi	r24, 0x20	; 32
    2f8c:	91 05       	cpc	r25, r1
    2f8e:	29 f1       	breq	.+74     	; 0x2fda <__vector_58+0xda>
    2f90:	81 32       	cpi	r24, 0x21	; 33
    2f92:	91 05       	cpc	r25, r1
    2f94:	54 f4       	brge	.+20     	; 0x2faa <__vector_58+0xaa>
    2f96:	8e 31       	cpi	r24, 0x1E	; 30
    2f98:	91 05       	cpc	r25, r1
    2f9a:	51 f1       	breq	.+84     	; 0x2ff0 <__vector_58+0xf0>
    2f9c:	8f 31       	cpi	r24, 0x1F	; 31
    2f9e:	91 05       	cpc	r25, r1
    2fa0:	5c f5       	brge	.+86     	; 0x2ff8 <__vector_58+0xf8>
    2fa2:	84 31       	cpi	r24, 0x14	; 20
    2fa4:	91 05       	cpc	r25, r1
    2fa6:	59 f0       	breq	.+22     	; 0x2fbe <__vector_58+0xbe>
    2fa8:	37 c0       	rjmp	.+110    	; 0x3018 <__stack+0x19>
    2faa:	88 32       	cpi	r24, 0x28	; 40
    2fac:	91 05       	cpc	r25, r1
    2fae:	69 f0       	breq	.+26     	; 0x2fca <__vector_58+0xca>
    2fb0:	89 32       	cpi	r24, 0x29	; 41
    2fb2:	91 05       	cpc	r25, r1
    2fb4:	71 f0       	breq	.+28     	; 0x2fd2 <__vector_58+0xd2>
    2fb6:	81 32       	cpi	r24, 0x21	; 33
    2fb8:	91 05       	cpc	r25, r1
    2fba:	09 f1       	breq	.+66     	; 0x2ffe <__vector_58+0xfe>
    2fbc:	2d c0       	rjmp	.+90     	; 0x3018 <__stack+0x19>
    2fbe:	63 d3       	rcall	.+1734   	; 0x3686 <USART_COMP_transmit_MCstatus>
    2fc0:	2d c0       	rjmp	.+90     	; 0x301c <__stack+0x1d>
    2fc2:	81 e0       	ldi	r24, 0x01	; 1
    2fc4:	80 93 59 20 	sts	0x2059, r24
    2fc8:	29 c0       	rjmp	.+82     	; 0x301c <__stack+0x1d>
    2fca:	82 e0       	ldi	r24, 0x02	; 2
    2fcc:	80 93 59 20 	sts	0x2059, r24
    2fd0:	25 c0       	rjmp	.+74     	; 0x301c <__stack+0x1d>
    2fd2:	82 e0       	ldi	r24, 0x02	; 2
    2fd4:	80 93 59 20 	sts	0x2059, r24
    2fd8:	21 c0       	rjmp	.+66     	; 0x301c <__stack+0x1d>
    2fda:	0e 94 24 20 	call	0x4048	; 0x4048 <USART_COMP_transmit_COA_count>
    2fde:	1e c0       	rjmp	.+60     	; 0x301c <__stack+0x1d>
    2fe0:	82 e0       	ldi	r24, 0x02	; 2
    2fe2:	80 93 4c 20 	sts	0x204C, r24
    2fe6:	1a c0       	rjmp	.+52     	; 0x301c <__stack+0x1d>
    2fe8:	83 e0       	ldi	r24, 0x03	; 3
    2fea:	80 93 4c 20 	sts	0x204C, r24
    2fee:	16 c0       	rjmp	.+44     	; 0x301c <__stack+0x1d>
    2ff0:	82 e0       	ldi	r24, 0x02	; 2
    2ff2:	80 93 59 20 	sts	0x2059, r24
    2ff6:	12 c0       	rjmp	.+36     	; 0x301c <__stack+0x1d>
    2ff8:	0e 94 98 21 	call	0x4330	; 0x4330 <COA_start>
    2ffc:	0f c0       	rjmp	.+30     	; 0x301c <__stack+0x1d>
    2ffe:	0e 94 cc 21 	call	0x4398	; 0x4398 <COA_stop>
    3002:	0c c0       	rjmp	.+24     	; 0x301c <__stack+0x1d>
    3004:	f0 d3       	rcall	.+2016   	; 0x37e6 <USART_COMP_transmit_CPUfreq>
    3006:	0a c0       	rjmp	.+20     	; 0x301c <__stack+0x1d>
    3008:	a5 d5       	rcall	.+2890   	; 0x3b54 <USART_COMP_transmit_MCversion>
    300a:	08 c0       	rjmp	.+16     	; 0x301c <__stack+0x1d>
    300c:	55 d6       	rcall	.+3242   	; 0x3cb8 <USART_COMP_transmit_MCbirthday>
    300e:	06 c0       	rjmp	.+12     	; 0x301c <__stack+0x1d>
    3010:	81 e0       	ldi	r24, 0x01	; 1
    3012:	80 93 4c 20 	sts	0x204C, r24
    3016:	02 c0       	rjmp	.+4      	; 0x301c <__stack+0x1d>
    3018:	82 e0       	ldi	r24, 0x02	; 2
    301a:	85 d2       	rcall	.+1290   	; 0x3526 <USART_COMP_transmit_report>
    301c:	80 91 58 20 	lds	r24, 0x2058
    3020:	80 93 4e 20 	sts	0x204E, r24
    3024:	54 c0       	rjmp	.+168    	; 0x30ce <__stack+0xcf>
    3026:	80 91 59 20 	lds	r24, 0x2059
    302a:	81 30       	cpi	r24, 0x01	; 1
    302c:	09 f0       	breq	.+2      	; 0x3030 <__stack+0x31>
    302e:	3a c0       	rjmp	.+116    	; 0x30a4 <__stack+0xa5>
    3030:	80 91 4e 20 	lds	r24, 0x204E
    3034:	88 2f       	mov	r24, r24
    3036:	90 e0       	ldi	r25, 0x00	; 0
    3038:	8e 31       	cpi	r24, 0x1E	; 30
    303a:	91 05       	cpc	r25, r1
    303c:	21 f1       	breq	.+72     	; 0x3086 <__stack+0x87>
    303e:	8f 31       	cpi	r24, 0x1F	; 31
    3040:	91 05       	cpc	r25, r1
    3042:	24 f4       	brge	.+8      	; 0x304c <__stack+0x4d>
    3044:	8a 30       	cpi	r24, 0x0A	; 10
    3046:	91 05       	cpc	r25, r1
    3048:	41 f0       	breq	.+16     	; 0x305a <__stack+0x5b>
    304a:	25 c0       	rjmp	.+74     	; 0x3096 <__stack+0x97>
    304c:	88 32       	cpi	r24, 0x28	; 40
    304e:	91 05       	cpc	r25, r1
    3050:	41 f0       	breq	.+16     	; 0x3062 <__stack+0x63>
    3052:	89 32       	cpi	r24, 0x29	; 41
    3054:	91 05       	cpc	r25, r1
    3056:	71 f0       	breq	.+28     	; 0x3074 <__stack+0x75>
    3058:	1e c0       	rjmp	.+60     	; 0x3096 <__stack+0x97>
    305a:	80 91 58 20 	lds	r24, 0x2058
    305e:	bf d0       	rcall	.+382    	; 0x31de <showMeByte>
    3060:	1c c0       	rjmp	.+56     	; 0x309a <__stack+0x9b>
    3062:	90 91 58 20 	lds	r25, 0x2058
    3066:	80 91 50 20 	lds	r24, 0x2050
    306a:	49 2f       	mov	r20, r25
    306c:	68 2f       	mov	r22, r24
    306e:	81 e0       	ldi	r24, 0x01	; 1
    3070:	41 d1       	rcall	.+642    	; 0x32f4 <SPI_send>
    3072:	13 c0       	rjmp	.+38     	; 0x309a <__stack+0x9b>
    3074:	90 91 58 20 	lds	r25, 0x2058
    3078:	80 91 50 20 	lds	r24, 0x2050
    307c:	49 2f       	mov	r20, r25
    307e:	68 2f       	mov	r22, r24
    3080:	82 e0       	ldi	r24, 0x02	; 2
    3082:	38 d1       	rcall	.+624    	; 0x32f4 <SPI_send>
    3084:	0a c0       	rjmp	.+20     	; 0x309a <__stack+0x9b>
    3086:	90 91 58 20 	lds	r25, 0x2058
    308a:	80 91 50 20 	lds	r24, 0x2050
    308e:	69 2f       	mov	r22, r25
    3090:	0e 94 75 21 	call	0x42ea	; 0x42ea <COA_set_timeInterval>
    3094:	02 c0       	rjmp	.+4      	; 0x309a <__stack+0x9b>
    3096:	83 e0       	ldi	r24, 0x03	; 3
    3098:	46 d2       	rcall	.+1164   	; 0x3526 <USART_COMP_transmit_report>
    309a:	10 92 59 20 	sts	0x2059, r1
    309e:	10 92 4f 20 	sts	0x204F, r1
    30a2:	15 c0       	rjmp	.+42     	; 0x30ce <__stack+0xcf>
    30a4:	80 91 4f 20 	lds	r24, 0x204F
    30a8:	88 2f       	mov	r24, r24
    30aa:	90 e0       	ldi	r25, 0x00	; 0
    30ac:	01 96       	adiw	r24, 0x01	; 1
    30ae:	20 91 58 20 	lds	r18, 0x2058
    30b2:	81 5b       	subi	r24, 0xB1	; 177
    30b4:	9f 4d       	sbci	r25, 0xDF	; 223
    30b6:	fc 01       	movw	r30, r24
    30b8:	20 83       	st	Z, r18
    30ba:	80 91 4f 20 	lds	r24, 0x204F
    30be:	8f 5f       	subi	r24, 0xFF	; 255
    30c0:	80 93 4f 20 	sts	0x204F, r24
    30c4:	80 91 59 20 	lds	r24, 0x2059
    30c8:	81 50       	subi	r24, 0x01	; 1
    30ca:	80 93 59 20 	sts	0x2059, r24
    30ce:	df 91       	pop	r29
    30d0:	cf 91       	pop	r28
    30d2:	ff 91       	pop	r31
    30d4:	ef 91       	pop	r30
    30d6:	bf 91       	pop	r27
    30d8:	af 91       	pop	r26
    30da:	9f 91       	pop	r25
    30dc:	8f 91       	pop	r24
    30de:	7f 91       	pop	r23
    30e0:	6f 91       	pop	r22
    30e2:	5f 91       	pop	r21
    30e4:	4f 91       	pop	r20
    30e6:	3f 91       	pop	r19
    30e8:	2f 91       	pop	r18
    30ea:	0f 90       	pop	r0
    30ec:	00 92 3f 00 	sts	0x003F, r0
    30f0:	0f 90       	pop	r0
    30f2:	1f 90       	pop	r1
    30f4:	18 95       	reti

000030f6 <__vector_10>:
    30f6:	1f 92       	push	r1
    30f8:	0f 92       	push	r0
    30fa:	00 90 3f 00 	lds	r0, 0x003F
    30fe:	0f 92       	push	r0
    3100:	11 24       	eor	r1, r1
    3102:	2f 93       	push	r18
    3104:	3f 93       	push	r19
    3106:	4f 93       	push	r20
    3108:	5f 93       	push	r21
    310a:	6f 93       	push	r22
    310c:	7f 93       	push	r23
    310e:	8f 93       	push	r24
    3110:	9f 93       	push	r25
    3112:	af 93       	push	r26
    3114:	bf 93       	push	r27
    3116:	ef 93       	push	r30
    3118:	ff 93       	push	r31
    311a:	cf 93       	push	r28
    311c:	df 93       	push	r29
    311e:	cd b7       	in	r28, 0x3d	; 61
    3120:	de b7       	in	r29, 0x3e	; 62
    3122:	60 e0       	ldi	r22, 0x00	; 0
    3124:	82 e0       	ldi	r24, 0x02	; 2
    3126:	a0 dd       	rcall	.-1216   	; 0x2c68 <ioport_set_value>
    3128:	60 e0       	ldi	r22, 0x00	; 0
    312a:	70 e0       	ldi	r23, 0x00	; 0
    312c:	80 e0       	ldi	r24, 0x00	; 0
    312e:	99 e0       	ldi	r25, 0x09	; 9
    3130:	97 de       	rcall	.-722    	; 0x2e60 <tc_write_clock_source>
    3132:	60 e0       	ldi	r22, 0x00	; 0
    3134:	70 e0       	ldi	r23, 0x00	; 0
    3136:	80 e4       	ldi	r24, 0x40	; 64
    3138:	99 e0       	ldi	r25, 0x09	; 9
    313a:	92 de       	rcall	.-732    	; 0x2e60 <tc_write_clock_source>
    313c:	60 e0       	ldi	r22, 0x00	; 0
    313e:	83 e0       	ldi	r24, 0x03	; 3
    3140:	93 dd       	rcall	.-1242   	; 0x2c68 <ioport_set_value>
    3142:	80 e0       	ldi	r24, 0x00	; 0
    3144:	99 e0       	ldi	r25, 0x09	; 9
    3146:	fc 01       	movw	r30, r24
    3148:	80 a1       	ldd	r24, Z+32	; 0x20
    314a:	91 a1       	ldd	r25, Z+33	; 0x21
    314c:	80 93 5c 20 	sts	0x205C, r24
    3150:	90 93 5d 20 	sts	0x205D, r25
    3154:	80 e4       	ldi	r24, 0x40	; 64
    3156:	99 e0       	ldi	r25, 0x09	; 9
    3158:	fc 01       	movw	r30, r24
    315a:	80 a1       	ldd	r24, Z+32	; 0x20
    315c:	91 a1       	ldd	r25, Z+33	; 0x21
    315e:	80 93 5e 20 	sts	0x205E, r24
    3162:	90 93 5f 20 	sts	0x205F, r25
    3166:	80 e0       	ldi	r24, 0x00	; 0
    3168:	94 e0       	ldi	r25, 0x04	; 4
    316a:	fc 01       	movw	r30, r24
    316c:	10 82       	st	Z, r1
    316e:	80 e0       	ldi	r24, 0x00	; 0
    3170:	94 e0       	ldi	r25, 0x04	; 4
    3172:	fc 01       	movw	r30, r24
    3174:	10 86       	std	Z+8, r1	; 0x08
    3176:	11 86       	std	Z+9, r1	; 0x09
    3178:	87 e0       	ldi	r24, 0x07	; 7
    317a:	80 93 07 20 	sts	0x2007, r24
    317e:	84 e0       	ldi	r24, 0x04	; 4
    3180:	80 93 4c 20 	sts	0x204C, r24
    3184:	df 91       	pop	r29
    3186:	cf 91       	pop	r28
    3188:	ff 91       	pop	r31
    318a:	ef 91       	pop	r30
    318c:	bf 91       	pop	r27
    318e:	af 91       	pop	r26
    3190:	9f 91       	pop	r25
    3192:	8f 91       	pop	r24
    3194:	7f 91       	pop	r23
    3196:	6f 91       	pop	r22
    3198:	5f 91       	pop	r21
    319a:	4f 91       	pop	r20
    319c:	3f 91       	pop	r19
    319e:	2f 91       	pop	r18
    31a0:	0f 90       	pop	r0
    31a2:	00 92 3f 00 	sts	0x003F, r0
    31a6:	0f 90       	pop	r0
    31a8:	1f 90       	pop	r1
    31aa:	18 95       	reti

000031ac <__vector_83>:
    31ac:	1f 92       	push	r1
    31ae:	0f 92       	push	r0
    31b0:	00 90 3f 00 	lds	r0, 0x003F
    31b4:	0f 92       	push	r0
    31b6:	11 24       	eor	r1, r1
    31b8:	8f 93       	push	r24
    31ba:	cf 93       	push	r28
    31bc:	df 93       	push	r29
    31be:	cd b7       	in	r28, 0x3d	; 61
    31c0:	de b7       	in	r29, 0x3e	; 62
    31c2:	80 91 60 20 	lds	r24, 0x2060
    31c6:	8f 5f       	subi	r24, 0xFF	; 255
    31c8:	80 93 60 20 	sts	0x2060, r24
    31cc:	df 91       	pop	r29
    31ce:	cf 91       	pop	r28
    31d0:	8f 91       	pop	r24
    31d2:	0f 90       	pop	r0
    31d4:	00 92 3f 00 	sts	0x003F, r0
    31d8:	0f 90       	pop	r0
    31da:	1f 90       	pop	r1
    31dc:	18 95       	reti

000031de <showMeByte>:
    31de:	cf 93       	push	r28
    31e0:	df 93       	push	r29
    31e2:	cd b7       	in	r28, 0x3d	; 61
    31e4:	de b7       	in	r29, 0x3e	; 62
    31e6:	2b 97       	sbiw	r28, 0x0b	; 11
    31e8:	cd bf       	out	0x3d, r28	; 61
    31ea:	de bf       	out	0x3e, r29	; 62
    31ec:	8b 87       	std	Y+11, r24	; 0x0b
    31ee:	28 e0       	ldi	r18, 0x08	; 8
    31f0:	ce 01       	movw	r24, r28
    31f2:	03 96       	adiw	r24, 0x03	; 3
    31f4:	fc 01       	movw	r30, r24
    31f6:	32 2f       	mov	r19, r18
    31f8:	11 92       	st	Z+, r1
    31fa:	3a 95       	dec	r19
    31fc:	e9 f7       	brne	.-6      	; 0x31f8 <showMeByte+0x1a>
    31fe:	19 82       	std	Y+1, r1	; 0x01
    3200:	1a 82       	std	Y+2, r1	; 0x02
    3202:	1d c0       	rjmp	.+58     	; 0x323e <showMeByte+0x60>
    3204:	8b 85       	ldd	r24, Y+11	; 0x0b
    3206:	88 2f       	mov	r24, r24
    3208:	90 e0       	ldi	r25, 0x00	; 0
    320a:	09 80       	ldd	r0, Y+1	; 0x01
    320c:	02 c0       	rjmp	.+4      	; 0x3212 <showMeByte+0x34>
    320e:	95 95       	asr	r25
    3210:	87 95       	ror	r24
    3212:	0a 94       	dec	r0
    3214:	e2 f7       	brpl	.-8      	; 0x320e <showMeByte+0x30>
    3216:	81 70       	andi	r24, 0x01	; 1
    3218:	99 27       	eor	r25, r25
    321a:	41 e0       	ldi	r20, 0x01	; 1
    321c:	00 97       	sbiw	r24, 0x00	; 0
    321e:	09 f4       	brne	.+2      	; 0x3222 <showMeByte+0x44>
    3220:	40 e0       	ldi	r20, 0x00	; 0
    3222:	9e 01       	movw	r18, r28
    3224:	2d 5f       	subi	r18, 0xFD	; 253
    3226:	3f 4f       	sbci	r19, 0xFF	; 255
    3228:	89 81       	ldd	r24, Y+1	; 0x01
    322a:	9a 81       	ldd	r25, Y+2	; 0x02
    322c:	82 0f       	add	r24, r18
    322e:	93 1f       	adc	r25, r19
    3230:	fc 01       	movw	r30, r24
    3232:	40 83       	st	Z, r20
    3234:	89 81       	ldd	r24, Y+1	; 0x01
    3236:	9a 81       	ldd	r25, Y+2	; 0x02
    3238:	01 96       	adiw	r24, 0x01	; 1
    323a:	89 83       	std	Y+1, r24	; 0x01
    323c:	9a 83       	std	Y+2, r25	; 0x02
    323e:	89 81       	ldd	r24, Y+1	; 0x01
    3240:	9a 81       	ldd	r25, Y+2	; 0x02
    3242:	88 30       	cpi	r24, 0x08	; 8
    3244:	91 05       	cpc	r25, r1
    3246:	f4 f2       	brlt	.-68     	; 0x3204 <showMeByte+0x26>
    3248:	8b 81       	ldd	r24, Y+3	; 0x03
    324a:	88 23       	and	r24, r24
    324c:	21 f0       	breq	.+8      	; 0x3256 <showMeByte+0x78>
    324e:	61 e0       	ldi	r22, 0x01	; 1
    3250:	88 e0       	ldi	r24, 0x08	; 8
    3252:	0a dd       	rcall	.-1516   	; 0x2c68 <ioport_set_value>
    3254:	03 c0       	rjmp	.+6      	; 0x325c <showMeByte+0x7e>
    3256:	60 e0       	ldi	r22, 0x00	; 0
    3258:	88 e0       	ldi	r24, 0x08	; 8
    325a:	06 dd       	rcall	.-1524   	; 0x2c68 <ioport_set_value>
    325c:	8c 81       	ldd	r24, Y+4	; 0x04
    325e:	88 23       	and	r24, r24
    3260:	21 f0       	breq	.+8      	; 0x326a <showMeByte+0x8c>
    3262:	61 e0       	ldi	r22, 0x01	; 1
    3264:	8a e0       	ldi	r24, 0x0A	; 10
    3266:	00 dd       	rcall	.-1536   	; 0x2c68 <ioport_set_value>
    3268:	03 c0       	rjmp	.+6      	; 0x3270 <showMeByte+0x92>
    326a:	60 e0       	ldi	r22, 0x00	; 0
    326c:	8a e0       	ldi	r24, 0x0A	; 10
    326e:	fc dc       	rcall	.-1544   	; 0x2c68 <ioport_set_value>
    3270:	8d 81       	ldd	r24, Y+5	; 0x05
    3272:	88 23       	and	r24, r24
    3274:	21 f0       	breq	.+8      	; 0x327e <showMeByte+0xa0>
    3276:	61 e0       	ldi	r22, 0x01	; 1
    3278:	8b e0       	ldi	r24, 0x0B	; 11
    327a:	f6 dc       	rcall	.-1556   	; 0x2c68 <ioport_set_value>
    327c:	03 c0       	rjmp	.+6      	; 0x3284 <showMeByte+0xa6>
    327e:	60 e0       	ldi	r22, 0x00	; 0
    3280:	8b e0       	ldi	r24, 0x0B	; 11
    3282:	f2 dc       	rcall	.-1564   	; 0x2c68 <ioport_set_value>
    3284:	8e 81       	ldd	r24, Y+6	; 0x06
    3286:	88 23       	and	r24, r24
    3288:	21 f0       	breq	.+8      	; 0x3292 <showMeByte+0xb4>
    328a:	61 e0       	ldi	r22, 0x01	; 1
    328c:	88 e1       	ldi	r24, 0x18	; 24
    328e:	ec dc       	rcall	.-1576   	; 0x2c68 <ioport_set_value>
    3290:	03 c0       	rjmp	.+6      	; 0x3298 <showMeByte+0xba>
    3292:	60 e0       	ldi	r22, 0x00	; 0
    3294:	88 e1       	ldi	r24, 0x18	; 24
    3296:	e8 dc       	rcall	.-1584   	; 0x2c68 <ioport_set_value>
    3298:	8f 81       	ldd	r24, Y+7	; 0x07
    329a:	88 23       	and	r24, r24
    329c:	21 f0       	breq	.+8      	; 0x32a6 <showMeByte+0xc8>
    329e:	61 e0       	ldi	r22, 0x01	; 1
    32a0:	89 e1       	ldi	r24, 0x19	; 25
    32a2:	e2 dc       	rcall	.-1596   	; 0x2c68 <ioport_set_value>
    32a4:	03 c0       	rjmp	.+6      	; 0x32ac <showMeByte+0xce>
    32a6:	60 e0       	ldi	r22, 0x00	; 0
    32a8:	89 e1       	ldi	r24, 0x19	; 25
    32aa:	de dc       	rcall	.-1604   	; 0x2c68 <ioport_set_value>
    32ac:	88 85       	ldd	r24, Y+8	; 0x08
    32ae:	88 23       	and	r24, r24
    32b0:	21 f0       	breq	.+8      	; 0x32ba <showMeByte+0xdc>
    32b2:	61 e0       	ldi	r22, 0x01	; 1
    32b4:	8a e1       	ldi	r24, 0x1A	; 26
    32b6:	d8 dc       	rcall	.-1616   	; 0x2c68 <ioport_set_value>
    32b8:	03 c0       	rjmp	.+6      	; 0x32c0 <showMeByte+0xe2>
    32ba:	60 e0       	ldi	r22, 0x00	; 0
    32bc:	8a e1       	ldi	r24, 0x1A	; 26
    32be:	d4 dc       	rcall	.-1624   	; 0x2c68 <ioport_set_value>
    32c0:	89 85       	ldd	r24, Y+9	; 0x09
    32c2:	88 23       	and	r24, r24
    32c4:	21 f0       	breq	.+8      	; 0x32ce <showMeByte+0xf0>
    32c6:	61 e0       	ldi	r22, 0x01	; 1
    32c8:	8b e1       	ldi	r24, 0x1B	; 27
    32ca:	ce dc       	rcall	.-1636   	; 0x2c68 <ioport_set_value>
    32cc:	03 c0       	rjmp	.+6      	; 0x32d4 <showMeByte+0xf6>
    32ce:	60 e0       	ldi	r22, 0x00	; 0
    32d0:	8b e1       	ldi	r24, 0x1B	; 27
    32d2:	ca dc       	rcall	.-1644   	; 0x2c68 <ioport_set_value>
    32d4:	8a 85       	ldd	r24, Y+10	; 0x0a
    32d6:	88 23       	and	r24, r24
    32d8:	21 f0       	breq	.+8      	; 0x32e2 <showMeByte+0x104>
    32da:	61 e0       	ldi	r22, 0x01	; 1
    32dc:	8c e1       	ldi	r24, 0x1C	; 28
    32de:	c4 dc       	rcall	.-1656   	; 0x2c68 <ioport_set_value>
    32e0:	03 c0       	rjmp	.+6      	; 0x32e8 <showMeByte+0x10a>
    32e2:	60 e0       	ldi	r22, 0x00	; 0
    32e4:	8c e1       	ldi	r24, 0x1C	; 28
    32e6:	c0 dc       	rcall	.-1664   	; 0x2c68 <ioport_set_value>
    32e8:	2b 96       	adiw	r28, 0x0b	; 11
    32ea:	cd bf       	out	0x3d, r28	; 61
    32ec:	de bf       	out	0x3e, r29	; 62
    32ee:	df 91       	pop	r29
    32f0:	cf 91       	pop	r28
    32f2:	08 95       	ret

000032f4 <SPI_send>:
    32f4:	af 92       	push	r10
    32f6:	bf 92       	push	r11
    32f8:	cf 92       	push	r12
    32fa:	df 92       	push	r13
    32fc:	ef 92       	push	r14
    32fe:	ff 92       	push	r15
    3300:	0f 93       	push	r16
    3302:	1f 93       	push	r17
    3304:	cf 93       	push	r28
    3306:	df 93       	push	r29
    3308:	cd b7       	in	r28, 0x3d	; 61
    330a:	de b7       	in	r29, 0x3e	; 62
    330c:	27 97       	sbiw	r28, 0x07	; 7
    330e:	cd bf       	out	0x3d, r28	; 61
    3310:	de bf       	out	0x3e, r29	; 62
    3312:	8d 83       	std	Y+5, r24	; 0x05
    3314:	6e 83       	std	Y+6, r22	; 0x06
    3316:	4f 83       	std	Y+7, r20	; 0x07
    3318:	19 82       	std	Y+1, r1	; 0x01
    331a:	1a 82       	std	Y+2, r1	; 0x02
    331c:	8d 81       	ldd	r24, Y+5	; 0x05
    331e:	88 2f       	mov	r24, r24
    3320:	90 e0       	ldi	r25, 0x00	; 0
    3322:	81 30       	cpi	r24, 0x01	; 1
    3324:	91 05       	cpc	r25, r1
    3326:	21 f0       	breq	.+8      	; 0x3330 <SPI_send+0x3c>
    3328:	82 30       	cpi	r24, 0x02	; 2
    332a:	91 05       	cpc	r25, r1
    332c:	29 f0       	breq	.+10     	; 0x3338 <SPI_send+0x44>
    332e:	0a c0       	rjmp	.+20     	; 0x3344 <SPI_send+0x50>
    3330:	80 91 11 20 	lds	r24, 0x2011
    3334:	8a 83       	std	Y+2, r24	; 0x02
    3336:	0a c0       	rjmp	.+20     	; 0x334c <SPI_send+0x58>
    3338:	80 91 12 20 	lds	r24, 0x2012
    333c:	8a 83       	std	Y+2, r24	; 0x02
    333e:	81 e0       	ldi	r24, 0x01	; 1
    3340:	89 83       	std	Y+1, r24	; 0x01
    3342:	04 c0       	rjmp	.+8      	; 0x334c <SPI_send+0x58>
    3344:	84 e0       	ldi	r24, 0x04	; 4
    3346:	80 93 4d 20 	sts	0x204D, r24
    334a:	00 00       	nop
    334c:	80 91 4d 20 	lds	r24, 0x204D
    3350:	84 30       	cpi	r24, 0x04	; 4
    3352:	09 f4       	brne	.+2      	; 0x3356 <SPI_send+0x62>
    3354:	d7 c0       	rjmp	.+430    	; 0x3504 <SPI_send+0x210>
    3356:	8e 81       	ldd	r24, Y+6	; 0x06
    3358:	8b 83       	std	Y+3, r24	; 0x03
    335a:	8f 81       	ldd	r24, Y+7	; 0x07
    335c:	8c 83       	std	Y+4, r24	; 0x04
    335e:	ce 01       	movw	r24, r28
    3360:	02 96       	adiw	r24, 0x02	; 2
    3362:	bc 01       	movw	r22, r24
    3364:	80 ec       	ldi	r24, 0xC0	; 192
    3366:	98 e0       	ldi	r25, 0x08	; 8
    3368:	0e 94 c7 0a 	call	0x158e	; 0x158e <spi_select_device>
    336c:	ce 01       	movw	r24, r28
    336e:	03 96       	adiw	r24, 0x03	; 3
    3370:	42 e0       	ldi	r20, 0x02	; 2
    3372:	50 e0       	ldi	r21, 0x00	; 0
    3374:	bc 01       	movw	r22, r24
    3376:	80 ec       	ldi	r24, 0xC0	; 192
    3378:	98 e0       	ldi	r25, 0x08	; 8
    337a:	0e 94 89 0a 	call	0x1512	; 0x1512 <spi_write_packet>
    337e:	ce 01       	movw	r24, r28
    3380:	02 96       	adiw	r24, 0x02	; 2
    3382:	bc 01       	movw	r22, r24
    3384:	80 ec       	ldi	r24, 0xC0	; 192
    3386:	98 e0       	ldi	r25, 0x08	; 8
    3388:	0e 94 dc 0a 	call	0x15b8	; 0x15b8 <spi_deselect_device>
    338c:	89 81       	ldd	r24, Y+1	; 0x01
    338e:	88 23       	and	r24, r24
    3390:	09 f4       	brne	.+2      	; 0x3394 <SPI_send+0xa0>
    3392:	b8 c0       	rjmp	.+368    	; 0x3504 <SPI_send+0x210>
    3394:	62 e1       	ldi	r22, 0x12	; 18
    3396:	70 e2       	ldi	r23, 0x20	; 32
    3398:	80 ec       	ldi	r24, 0xC0	; 192
    339a:	98 e0       	ldi	r25, 0x08	; 8
    339c:	0e 94 c7 0a 	call	0x158e	; 0x158e <spi_select_device>
    33a0:	60 e0       	ldi	r22, 0x00	; 0
    33a2:	80 ec       	ldi	r24, 0xC0	; 192
    33a4:	98 e0       	ldi	r25, 0x08	; 8
    33a6:	13 dd       	rcall	.-1498   	; 0x2dce <spi_put>
    33a8:	80 ec       	ldi	r24, 0xC0	; 192
    33aa:	98 e0       	ldi	r25, 0x08	; 8
    33ac:	24 dd       	rcall	.-1464   	; 0x2df6 <spi_get>
    33ae:	80 93 5a 20 	sts	0x205A, r24
    33b2:	60 e0       	ldi	r22, 0x00	; 0
    33b4:	80 ec       	ldi	r24, 0xC0	; 192
    33b6:	98 e0       	ldi	r25, 0x08	; 8
    33b8:	0a dd       	rcall	.-1516   	; 0x2dce <spi_put>
    33ba:	80 ec       	ldi	r24, 0xC0	; 192
    33bc:	98 e0       	ldi	r25, 0x08	; 8
    33be:	1b dd       	rcall	.-1482   	; 0x2df6 <spi_get>
    33c0:	80 93 5b 20 	sts	0x205B, r24
    33c4:	62 e1       	ldi	r22, 0x12	; 18
    33c6:	70 e2       	ldi	r23, 0x20	; 32
    33c8:	80 ec       	ldi	r24, 0xC0	; 192
    33ca:	98 e0       	ldi	r25, 0x08	; 8
    33cc:	0e 94 dc 0a 	call	0x15b8	; 0x15b8 <spi_deselect_device>
    33d0:	39 dc       	rcall	.-1934   	; 0x2c44 <sysclk_get_cpu_hz>
    33d2:	dc 01       	movw	r26, r24
    33d4:	cb 01       	movw	r24, r22
    33d6:	5c 01       	movw	r10, r24
    33d8:	6d 01       	movw	r12, r26
    33da:	e1 2c       	mov	r14, r1
    33dc:	f1 2c       	mov	r15, r1
    33de:	87 01       	movw	r16, r14
    33e0:	2a 2d       	mov	r18, r10
    33e2:	3b 2d       	mov	r19, r11
    33e4:	4c 2d       	mov	r20, r12
    33e6:	5d 2d       	mov	r21, r13
    33e8:	6e 2d       	mov	r22, r14
    33ea:	7f 2d       	mov	r23, r15
    33ec:	80 2f       	mov	r24, r16
    33ee:	91 2f       	mov	r25, r17
    33f0:	21 5c       	subi	r18, 0xC1	; 193
    33f2:	3d 4b       	sbci	r19, 0xBD	; 189
    33f4:	40 4f       	sbci	r20, 0xF0	; 240
    33f6:	5f 4f       	sbci	r21, 0xFF	; 255
    33f8:	6f 4f       	sbci	r22, 0xFF	; 255
    33fa:	7f 4f       	sbci	r23, 0xFF	; 255
    33fc:	8f 4f       	sbci	r24, 0xFF	; 255
    33fe:	9f 4f       	sbci	r25, 0xFF	; 255
    3400:	a2 2e       	mov	r10, r18
    3402:	b3 2e       	mov	r11, r19
    3404:	c4 2e       	mov	r12, r20
    3406:	d5 2e       	mov	r13, r21
    3408:	e6 2e       	mov	r14, r22
    340a:	f7 2e       	mov	r15, r23
    340c:	08 2f       	mov	r16, r24
    340e:	19 2f       	mov	r17, r25
    3410:	2a 2d       	mov	r18, r10
    3412:	3b 2d       	mov	r19, r11
    3414:	4c 2d       	mov	r20, r12
    3416:	5d 2d       	mov	r21, r13
    3418:	6e 2d       	mov	r22, r14
    341a:	7f 2d       	mov	r23, r15
    341c:	80 2f       	mov	r24, r16
    341e:	91 2f       	mov	r25, r17
    3420:	0e 94 cd 01 	call	0x39a	; 0x39a <__floatundisf>
    3424:	dc 01       	movw	r26, r24
    3426:	cb 01       	movw	r24, r22
    3428:	20 e0       	ldi	r18, 0x00	; 0
    342a:	3b e1       	ldi	r19, 0x1B	; 27
    342c:	47 eb       	ldi	r20, 0xB7	; 183
    342e:	5a e4       	ldi	r21, 0x4A	; 74
    3430:	bc 01       	movw	r22, r24
    3432:	cd 01       	movw	r24, r26
    3434:	0e 94 48 03 	call	0x690	; 0x690 <__divsf3>
    3438:	dc 01       	movw	r26, r24
    343a:	cb 01       	movw	r24, r22
    343c:	bc 01       	movw	r22, r24
    343e:	cd 01       	movw	r24, r26
    3440:	0e 94 1c 01 	call	0x238	; 0x238 <__fixunssfdi>
    3444:	a2 2e       	mov	r10, r18
    3446:	b3 2e       	mov	r11, r19
    3448:	c4 2e       	mov	r12, r20
    344a:	d5 2e       	mov	r13, r21
    344c:	e6 2e       	mov	r14, r22
    344e:	f7 2e       	mov	r15, r23
    3450:	08 2f       	mov	r16, r24
    3452:	19 2f       	mov	r17, r25
    3454:	d6 01       	movw	r26, r12
    3456:	c5 01       	movw	r24, r10
    3458:	bc 01       	movw	r22, r24
    345a:	cd 01       	movw	r24, r26
    345c:	ff db       	rcall	.-2050   	; 0x2c5c <__portable_avr_delay_cycles>
    345e:	80 91 5a 20 	lds	r24, 0x205A
    3462:	68 2f       	mov	r22, r24
    3464:	80 ea       	ldi	r24, 0xA0	; 160
    3466:	9a e0       	ldi	r25, 0x0A	; 10
    3468:	37 dd       	rcall	.-1426   	; 0x2ed8 <usart_put>
    346a:	ec db       	rcall	.-2088   	; 0x2c44 <sysclk_get_cpu_hz>
    346c:	dc 01       	movw	r26, r24
    346e:	cb 01       	movw	r24, r22
    3470:	5c 01       	movw	r10, r24
    3472:	6d 01       	movw	r12, r26
    3474:	e1 2c       	mov	r14, r1
    3476:	f1 2c       	mov	r15, r1
    3478:	87 01       	movw	r16, r14
    347a:	2a 2d       	mov	r18, r10
    347c:	3b 2d       	mov	r19, r11
    347e:	4c 2d       	mov	r20, r12
    3480:	5d 2d       	mov	r21, r13
    3482:	6e 2d       	mov	r22, r14
    3484:	7f 2d       	mov	r23, r15
    3486:	80 2f       	mov	r24, r16
    3488:	91 2f       	mov	r25, r17
    348a:	21 5c       	subi	r18, 0xC1	; 193
    348c:	3d 4b       	sbci	r19, 0xBD	; 189
    348e:	40 4f       	sbci	r20, 0xF0	; 240
    3490:	5f 4f       	sbci	r21, 0xFF	; 255
    3492:	6f 4f       	sbci	r22, 0xFF	; 255
    3494:	7f 4f       	sbci	r23, 0xFF	; 255
    3496:	8f 4f       	sbci	r24, 0xFF	; 255
    3498:	9f 4f       	sbci	r25, 0xFF	; 255
    349a:	a2 2e       	mov	r10, r18
    349c:	b3 2e       	mov	r11, r19
    349e:	c4 2e       	mov	r12, r20
    34a0:	d5 2e       	mov	r13, r21
    34a2:	e6 2e       	mov	r14, r22
    34a4:	f7 2e       	mov	r15, r23
    34a6:	08 2f       	mov	r16, r24
    34a8:	19 2f       	mov	r17, r25
    34aa:	2a 2d       	mov	r18, r10
    34ac:	3b 2d       	mov	r19, r11
    34ae:	4c 2d       	mov	r20, r12
    34b0:	5d 2d       	mov	r21, r13
    34b2:	6e 2d       	mov	r22, r14
    34b4:	7f 2d       	mov	r23, r15
    34b6:	80 2f       	mov	r24, r16
    34b8:	91 2f       	mov	r25, r17
    34ba:	0e 94 cd 01 	call	0x39a	; 0x39a <__floatundisf>
    34be:	dc 01       	movw	r26, r24
    34c0:	cb 01       	movw	r24, r22
    34c2:	20 e0       	ldi	r18, 0x00	; 0
    34c4:	3b e1       	ldi	r19, 0x1B	; 27
    34c6:	47 eb       	ldi	r20, 0xB7	; 183
    34c8:	5a e4       	ldi	r21, 0x4A	; 74
    34ca:	bc 01       	movw	r22, r24
    34cc:	cd 01       	movw	r24, r26
    34ce:	0e 94 48 03 	call	0x690	; 0x690 <__divsf3>
    34d2:	dc 01       	movw	r26, r24
    34d4:	cb 01       	movw	r24, r22
    34d6:	bc 01       	movw	r22, r24
    34d8:	cd 01       	movw	r24, r26
    34da:	0e 94 1c 01 	call	0x238	; 0x238 <__fixunssfdi>
    34de:	a2 2e       	mov	r10, r18
    34e0:	b3 2e       	mov	r11, r19
    34e2:	c4 2e       	mov	r12, r20
    34e4:	d5 2e       	mov	r13, r21
    34e6:	e6 2e       	mov	r14, r22
    34e8:	f7 2e       	mov	r15, r23
    34ea:	08 2f       	mov	r16, r24
    34ec:	19 2f       	mov	r17, r25
    34ee:	d6 01       	movw	r26, r12
    34f0:	c5 01       	movw	r24, r10
    34f2:	bc 01       	movw	r22, r24
    34f4:	cd 01       	movw	r24, r26
    34f6:	b2 db       	rcall	.-2204   	; 0x2c5c <__portable_avr_delay_cycles>
    34f8:	80 91 5b 20 	lds	r24, 0x205B
    34fc:	68 2f       	mov	r22, r24
    34fe:	80 ea       	ldi	r24, 0xA0	; 160
    3500:	9a e0       	ldi	r25, 0x0A	; 10
    3502:	ea dc       	rcall	.-1580   	; 0x2ed8 <usart_put>
    3504:	80 91 4d 20 	lds	r24, 0x204D
    3508:	0e d0       	rcall	.+28     	; 0x3526 <USART_COMP_transmit_report>
    350a:	27 96       	adiw	r28, 0x07	; 7
    350c:	cd bf       	out	0x3d, r28	; 61
    350e:	de bf       	out	0x3e, r29	; 62
    3510:	df 91       	pop	r29
    3512:	cf 91       	pop	r28
    3514:	1f 91       	pop	r17
    3516:	0f 91       	pop	r16
    3518:	ff 90       	pop	r15
    351a:	ef 90       	pop	r14
    351c:	df 90       	pop	r13
    351e:	cf 90       	pop	r12
    3520:	bf 90       	pop	r11
    3522:	af 90       	pop	r10
    3524:	08 95       	ret

00003526 <USART_COMP_transmit_report>:
    3526:	af 92       	push	r10
    3528:	bf 92       	push	r11
    352a:	cf 92       	push	r12
    352c:	df 92       	push	r13
    352e:	ef 92       	push	r14
    3530:	ff 92       	push	r15
    3532:	0f 93       	push	r16
    3534:	1f 93       	push	r17
    3536:	cf 93       	push	r28
    3538:	df 93       	push	r29
    353a:	1f 92       	push	r1
    353c:	cd b7       	in	r28, 0x3d	; 61
    353e:	de b7       	in	r29, 0x3e	; 62
    3540:	89 83       	std	Y+1, r24	; 0x01
    3542:	80 db       	rcall	.-2304   	; 0x2c44 <sysclk_get_cpu_hz>
    3544:	dc 01       	movw	r26, r24
    3546:	cb 01       	movw	r24, r22
    3548:	5c 01       	movw	r10, r24
    354a:	6d 01       	movw	r12, r26
    354c:	e1 2c       	mov	r14, r1
    354e:	f1 2c       	mov	r15, r1
    3550:	87 01       	movw	r16, r14
    3552:	2a 2d       	mov	r18, r10
    3554:	3b 2d       	mov	r19, r11
    3556:	4c 2d       	mov	r20, r12
    3558:	5d 2d       	mov	r21, r13
    355a:	6e 2d       	mov	r22, r14
    355c:	7f 2d       	mov	r23, r15
    355e:	80 2f       	mov	r24, r16
    3560:	91 2f       	mov	r25, r17
    3562:	21 5c       	subi	r18, 0xC1	; 193
    3564:	3d 4b       	sbci	r19, 0xBD	; 189
    3566:	40 4f       	sbci	r20, 0xF0	; 240
    3568:	5f 4f       	sbci	r21, 0xFF	; 255
    356a:	6f 4f       	sbci	r22, 0xFF	; 255
    356c:	7f 4f       	sbci	r23, 0xFF	; 255
    356e:	8f 4f       	sbci	r24, 0xFF	; 255
    3570:	9f 4f       	sbci	r25, 0xFF	; 255
    3572:	a2 2e       	mov	r10, r18
    3574:	b3 2e       	mov	r11, r19
    3576:	c4 2e       	mov	r12, r20
    3578:	d5 2e       	mov	r13, r21
    357a:	e6 2e       	mov	r14, r22
    357c:	f7 2e       	mov	r15, r23
    357e:	08 2f       	mov	r16, r24
    3580:	19 2f       	mov	r17, r25
    3582:	2a 2d       	mov	r18, r10
    3584:	3b 2d       	mov	r19, r11
    3586:	4c 2d       	mov	r20, r12
    3588:	5d 2d       	mov	r21, r13
    358a:	6e 2d       	mov	r22, r14
    358c:	7f 2d       	mov	r23, r15
    358e:	80 2f       	mov	r24, r16
    3590:	91 2f       	mov	r25, r17
    3592:	0e 94 cd 01 	call	0x39a	; 0x39a <__floatundisf>
    3596:	dc 01       	movw	r26, r24
    3598:	cb 01       	movw	r24, r22
    359a:	20 e0       	ldi	r18, 0x00	; 0
    359c:	3b e1       	ldi	r19, 0x1B	; 27
    359e:	47 eb       	ldi	r20, 0xB7	; 183
    35a0:	5a e4       	ldi	r21, 0x4A	; 74
    35a2:	bc 01       	movw	r22, r24
    35a4:	cd 01       	movw	r24, r26
    35a6:	0e 94 48 03 	call	0x690	; 0x690 <__divsf3>
    35aa:	dc 01       	movw	r26, r24
    35ac:	cb 01       	movw	r24, r22
    35ae:	bc 01       	movw	r22, r24
    35b0:	cd 01       	movw	r24, r26
    35b2:	0e 94 1c 01 	call	0x238	; 0x238 <__fixunssfdi>
    35b6:	a2 2e       	mov	r10, r18
    35b8:	b3 2e       	mov	r11, r19
    35ba:	c4 2e       	mov	r12, r20
    35bc:	d5 2e       	mov	r13, r21
    35be:	e6 2e       	mov	r14, r22
    35c0:	f7 2e       	mov	r15, r23
    35c2:	08 2f       	mov	r16, r24
    35c4:	19 2f       	mov	r17, r25
    35c6:	d6 01       	movw	r26, r12
    35c8:	c5 01       	movw	r24, r10
    35ca:	bc 01       	movw	r22, r24
    35cc:	cd 01       	movw	r24, r26
    35ce:	46 db       	rcall	.-2420   	; 0x2c5c <__portable_avr_delay_cycles>
    35d0:	62 e0       	ldi	r22, 0x02	; 2
    35d2:	80 ea       	ldi	r24, 0xA0	; 160
    35d4:	9a e0       	ldi	r25, 0x0A	; 10
    35d6:	80 dc       	rcall	.-1792   	; 0x2ed8 <usart_put>
    35d8:	35 db       	rcall	.-2454   	; 0x2c44 <sysclk_get_cpu_hz>
    35da:	dc 01       	movw	r26, r24
    35dc:	cb 01       	movw	r24, r22
    35de:	5c 01       	movw	r10, r24
    35e0:	6d 01       	movw	r12, r26
    35e2:	e1 2c       	mov	r14, r1
    35e4:	f1 2c       	mov	r15, r1
    35e6:	87 01       	movw	r16, r14
    35e8:	2a 2d       	mov	r18, r10
    35ea:	3b 2d       	mov	r19, r11
    35ec:	4c 2d       	mov	r20, r12
    35ee:	5d 2d       	mov	r21, r13
    35f0:	6e 2d       	mov	r22, r14
    35f2:	7f 2d       	mov	r23, r15
    35f4:	80 2f       	mov	r24, r16
    35f6:	91 2f       	mov	r25, r17
    35f8:	21 5c       	subi	r18, 0xC1	; 193
    35fa:	3d 4b       	sbci	r19, 0xBD	; 189
    35fc:	40 4f       	sbci	r20, 0xF0	; 240
    35fe:	5f 4f       	sbci	r21, 0xFF	; 255
    3600:	6f 4f       	sbci	r22, 0xFF	; 255
    3602:	7f 4f       	sbci	r23, 0xFF	; 255
    3604:	8f 4f       	sbci	r24, 0xFF	; 255
    3606:	9f 4f       	sbci	r25, 0xFF	; 255
    3608:	a2 2e       	mov	r10, r18
    360a:	b3 2e       	mov	r11, r19
    360c:	c4 2e       	mov	r12, r20
    360e:	d5 2e       	mov	r13, r21
    3610:	e6 2e       	mov	r14, r22
    3612:	f7 2e       	mov	r15, r23
    3614:	08 2f       	mov	r16, r24
    3616:	19 2f       	mov	r17, r25
    3618:	2a 2d       	mov	r18, r10
    361a:	3b 2d       	mov	r19, r11
    361c:	4c 2d       	mov	r20, r12
    361e:	5d 2d       	mov	r21, r13
    3620:	6e 2d       	mov	r22, r14
    3622:	7f 2d       	mov	r23, r15
    3624:	80 2f       	mov	r24, r16
    3626:	91 2f       	mov	r25, r17
    3628:	0e 94 cd 01 	call	0x39a	; 0x39a <__floatundisf>
    362c:	dc 01       	movw	r26, r24
    362e:	cb 01       	movw	r24, r22
    3630:	20 e0       	ldi	r18, 0x00	; 0
    3632:	3b e1       	ldi	r19, 0x1B	; 27
    3634:	47 eb       	ldi	r20, 0xB7	; 183
    3636:	5a e4       	ldi	r21, 0x4A	; 74
    3638:	bc 01       	movw	r22, r24
    363a:	cd 01       	movw	r24, r26
    363c:	0e 94 48 03 	call	0x690	; 0x690 <__divsf3>
    3640:	dc 01       	movw	r26, r24
    3642:	cb 01       	movw	r24, r22
    3644:	bc 01       	movw	r22, r24
    3646:	cd 01       	movw	r24, r26
    3648:	0e 94 1c 01 	call	0x238	; 0x238 <__fixunssfdi>
    364c:	a2 2e       	mov	r10, r18
    364e:	b3 2e       	mov	r11, r19
    3650:	c4 2e       	mov	r12, r20
    3652:	d5 2e       	mov	r13, r21
    3654:	e6 2e       	mov	r14, r22
    3656:	f7 2e       	mov	r15, r23
    3658:	08 2f       	mov	r16, r24
    365a:	19 2f       	mov	r17, r25
    365c:	d6 01       	movw	r26, r12
    365e:	c5 01       	movw	r24, r10
    3660:	bc 01       	movw	r22, r24
    3662:	cd 01       	movw	r24, r26
    3664:	fb da       	rcall	.-2570   	; 0x2c5c <__portable_avr_delay_cycles>
    3666:	69 81       	ldd	r22, Y+1	; 0x01
    3668:	80 ea       	ldi	r24, 0xA0	; 160
    366a:	9a e0       	ldi	r25, 0x0A	; 10
    366c:	25 d8       	rcall	.-4022   	; 0x26b8 <usart_putchar>
    366e:	0f 90       	pop	r0
    3670:	df 91       	pop	r29
    3672:	cf 91       	pop	r28
    3674:	1f 91       	pop	r17
    3676:	0f 91       	pop	r16
    3678:	ff 90       	pop	r15
    367a:	ef 90       	pop	r14
    367c:	df 90       	pop	r13
    367e:	cf 90       	pop	r12
    3680:	bf 90       	pop	r11
    3682:	af 90       	pop	r10
    3684:	08 95       	ret

00003686 <USART_COMP_transmit_MCstatus>:
    3686:	af 92       	push	r10
    3688:	bf 92       	push	r11
    368a:	cf 92       	push	r12
    368c:	df 92       	push	r13
    368e:	ef 92       	push	r14
    3690:	ff 92       	push	r15
    3692:	0f 93       	push	r16
    3694:	1f 93       	push	r17
    3696:	cf 93       	push	r28
    3698:	df 93       	push	r29
    369a:	cd b7       	in	r28, 0x3d	; 61
    369c:	de b7       	in	r29, 0x3e	; 62
    369e:	d2 da       	rcall	.-2652   	; 0x2c44 <sysclk_get_cpu_hz>
    36a0:	dc 01       	movw	r26, r24
    36a2:	cb 01       	movw	r24, r22
    36a4:	5c 01       	movw	r10, r24
    36a6:	6d 01       	movw	r12, r26
    36a8:	e1 2c       	mov	r14, r1
    36aa:	f1 2c       	mov	r15, r1
    36ac:	87 01       	movw	r16, r14
    36ae:	2a 2d       	mov	r18, r10
    36b0:	3b 2d       	mov	r19, r11
    36b2:	4c 2d       	mov	r20, r12
    36b4:	5d 2d       	mov	r21, r13
    36b6:	6e 2d       	mov	r22, r14
    36b8:	7f 2d       	mov	r23, r15
    36ba:	80 2f       	mov	r24, r16
    36bc:	91 2f       	mov	r25, r17
    36be:	21 5c       	subi	r18, 0xC1	; 193
    36c0:	3d 4b       	sbci	r19, 0xBD	; 189
    36c2:	40 4f       	sbci	r20, 0xF0	; 240
    36c4:	5f 4f       	sbci	r21, 0xFF	; 255
    36c6:	6f 4f       	sbci	r22, 0xFF	; 255
    36c8:	7f 4f       	sbci	r23, 0xFF	; 255
    36ca:	8f 4f       	sbci	r24, 0xFF	; 255
    36cc:	9f 4f       	sbci	r25, 0xFF	; 255
    36ce:	a2 2e       	mov	r10, r18
    36d0:	b3 2e       	mov	r11, r19
    36d2:	c4 2e       	mov	r12, r20
    36d4:	d5 2e       	mov	r13, r21
    36d6:	e6 2e       	mov	r14, r22
    36d8:	f7 2e       	mov	r15, r23
    36da:	08 2f       	mov	r16, r24
    36dc:	19 2f       	mov	r17, r25
    36de:	2a 2d       	mov	r18, r10
    36e0:	3b 2d       	mov	r19, r11
    36e2:	4c 2d       	mov	r20, r12
    36e4:	5d 2d       	mov	r21, r13
    36e6:	6e 2d       	mov	r22, r14
    36e8:	7f 2d       	mov	r23, r15
    36ea:	80 2f       	mov	r24, r16
    36ec:	91 2f       	mov	r25, r17
    36ee:	0e 94 cd 01 	call	0x39a	; 0x39a <__floatundisf>
    36f2:	dc 01       	movw	r26, r24
    36f4:	cb 01       	movw	r24, r22
    36f6:	20 e0       	ldi	r18, 0x00	; 0
    36f8:	3b e1       	ldi	r19, 0x1B	; 27
    36fa:	47 eb       	ldi	r20, 0xB7	; 183
    36fc:	5a e4       	ldi	r21, 0x4A	; 74
    36fe:	bc 01       	movw	r22, r24
    3700:	cd 01       	movw	r24, r26
    3702:	0e 94 48 03 	call	0x690	; 0x690 <__divsf3>
    3706:	dc 01       	movw	r26, r24
    3708:	cb 01       	movw	r24, r22
    370a:	bc 01       	movw	r22, r24
    370c:	cd 01       	movw	r24, r26
    370e:	0e 94 1c 01 	call	0x238	; 0x238 <__fixunssfdi>
    3712:	a2 2e       	mov	r10, r18
    3714:	b3 2e       	mov	r11, r19
    3716:	c4 2e       	mov	r12, r20
    3718:	d5 2e       	mov	r13, r21
    371a:	e6 2e       	mov	r14, r22
    371c:	f7 2e       	mov	r15, r23
    371e:	08 2f       	mov	r16, r24
    3720:	19 2f       	mov	r17, r25
    3722:	d6 01       	movw	r26, r12
    3724:	c5 01       	movw	r24, r10
    3726:	bc 01       	movw	r22, r24
    3728:	cd 01       	movw	r24, r26
    372a:	98 da       	rcall	.-2768   	; 0x2c5c <__portable_avr_delay_cycles>
    372c:	61 e0       	ldi	r22, 0x01	; 1
    372e:	80 ea       	ldi	r24, 0xA0	; 160
    3730:	9a e0       	ldi	r25, 0x0A	; 10
    3732:	0e 94 5c 13 	call	0x26b8	; 0x26b8 <usart_putchar>
    3736:	86 da       	rcall	.-2804   	; 0x2c44 <sysclk_get_cpu_hz>
    3738:	dc 01       	movw	r26, r24
    373a:	cb 01       	movw	r24, r22
    373c:	5c 01       	movw	r10, r24
    373e:	6d 01       	movw	r12, r26
    3740:	e1 2c       	mov	r14, r1
    3742:	f1 2c       	mov	r15, r1
    3744:	87 01       	movw	r16, r14
    3746:	2a 2d       	mov	r18, r10
    3748:	3b 2d       	mov	r19, r11
    374a:	4c 2d       	mov	r20, r12
    374c:	5d 2d       	mov	r21, r13
    374e:	6e 2d       	mov	r22, r14
    3750:	7f 2d       	mov	r23, r15
    3752:	80 2f       	mov	r24, r16
    3754:	91 2f       	mov	r25, r17
    3756:	21 5c       	subi	r18, 0xC1	; 193
    3758:	3d 4b       	sbci	r19, 0xBD	; 189
    375a:	40 4f       	sbci	r20, 0xF0	; 240
    375c:	5f 4f       	sbci	r21, 0xFF	; 255
    375e:	6f 4f       	sbci	r22, 0xFF	; 255
    3760:	7f 4f       	sbci	r23, 0xFF	; 255
    3762:	8f 4f       	sbci	r24, 0xFF	; 255
    3764:	9f 4f       	sbci	r25, 0xFF	; 255
    3766:	a2 2e       	mov	r10, r18
    3768:	b3 2e       	mov	r11, r19
    376a:	c4 2e       	mov	r12, r20
    376c:	d5 2e       	mov	r13, r21
    376e:	e6 2e       	mov	r14, r22
    3770:	f7 2e       	mov	r15, r23
    3772:	08 2f       	mov	r16, r24
    3774:	19 2f       	mov	r17, r25
    3776:	2a 2d       	mov	r18, r10
    3778:	3b 2d       	mov	r19, r11
    377a:	4c 2d       	mov	r20, r12
    377c:	5d 2d       	mov	r21, r13
    377e:	6e 2d       	mov	r22, r14
    3780:	7f 2d       	mov	r23, r15
    3782:	80 2f       	mov	r24, r16
    3784:	91 2f       	mov	r25, r17
    3786:	0e 94 cd 01 	call	0x39a	; 0x39a <__floatundisf>
    378a:	dc 01       	movw	r26, r24
    378c:	cb 01       	movw	r24, r22
    378e:	20 e0       	ldi	r18, 0x00	; 0
    3790:	3b e1       	ldi	r19, 0x1B	; 27
    3792:	47 eb       	ldi	r20, 0xB7	; 183
    3794:	5a e4       	ldi	r21, 0x4A	; 74
    3796:	bc 01       	movw	r22, r24
    3798:	cd 01       	movw	r24, r26
    379a:	0e 94 48 03 	call	0x690	; 0x690 <__divsf3>
    379e:	dc 01       	movw	r26, r24
    37a0:	cb 01       	movw	r24, r22
    37a2:	bc 01       	movw	r22, r24
    37a4:	cd 01       	movw	r24, r26
    37a6:	0e 94 1c 01 	call	0x238	; 0x238 <__fixunssfdi>
    37aa:	a2 2e       	mov	r10, r18
    37ac:	b3 2e       	mov	r11, r19
    37ae:	c4 2e       	mov	r12, r20
    37b0:	d5 2e       	mov	r13, r21
    37b2:	e6 2e       	mov	r14, r22
    37b4:	f7 2e       	mov	r15, r23
    37b6:	08 2f       	mov	r16, r24
    37b8:	19 2f       	mov	r17, r25
    37ba:	d6 01       	movw	r26, r12
    37bc:	c5 01       	movw	r24, r10
    37be:	bc 01       	movw	r22, r24
    37c0:	cd 01       	movw	r24, r26
    37c2:	4c da       	rcall	.-2920   	; 0x2c5c <__portable_avr_delay_cycles>
    37c4:	80 91 4c 20 	lds	r24, 0x204C
    37c8:	68 2f       	mov	r22, r24
    37ca:	80 ea       	ldi	r24, 0xA0	; 160
    37cc:	9a e0       	ldi	r25, 0x0A	; 10
    37ce:	84 db       	rcall	.-2296   	; 0x2ed8 <usart_put>
    37d0:	df 91       	pop	r29
    37d2:	cf 91       	pop	r28
    37d4:	1f 91       	pop	r17
    37d6:	0f 91       	pop	r16
    37d8:	ff 90       	pop	r15
    37da:	ef 90       	pop	r14
    37dc:	df 90       	pop	r13
    37de:	cf 90       	pop	r12
    37e0:	bf 90       	pop	r11
    37e2:	af 90       	pop	r10
    37e4:	08 95       	ret

000037e6 <USART_COMP_transmit_CPUfreq>:
    37e6:	af 92       	push	r10
    37e8:	bf 92       	push	r11
    37ea:	cf 92       	push	r12
    37ec:	df 92       	push	r13
    37ee:	ef 92       	push	r14
    37f0:	ff 92       	push	r15
    37f2:	0f 93       	push	r16
    37f4:	1f 93       	push	r17
    37f6:	cf 93       	push	r28
    37f8:	df 93       	push	r29
    37fa:	00 d0       	rcall	.+0      	; 0x37fc <USART_COMP_transmit_CPUfreq+0x16>
    37fc:	00 d0       	rcall	.+0      	; 0x37fe <USART_COMP_transmit_CPUfreq+0x18>
    37fe:	cd b7       	in	r28, 0x3d	; 61
    3800:	de b7       	in	r29, 0x3e	; 62
    3802:	20 da       	rcall	.-3008   	; 0x2c44 <sysclk_get_cpu_hz>
    3804:	dc 01       	movw	r26, r24
    3806:	cb 01       	movw	r24, r22
    3808:	89 83       	std	Y+1, r24	; 0x01
    380a:	9a 83       	std	Y+2, r25	; 0x02
    380c:	ab 83       	std	Y+3, r26	; 0x03
    380e:	bc 83       	std	Y+4, r27	; 0x04
    3810:	19 da       	rcall	.-3022   	; 0x2c44 <sysclk_get_cpu_hz>
    3812:	dc 01       	movw	r26, r24
    3814:	cb 01       	movw	r24, r22
    3816:	5c 01       	movw	r10, r24
    3818:	6d 01       	movw	r12, r26
    381a:	e1 2c       	mov	r14, r1
    381c:	f1 2c       	mov	r15, r1
    381e:	87 01       	movw	r16, r14
    3820:	2a 2d       	mov	r18, r10
    3822:	3b 2d       	mov	r19, r11
    3824:	4c 2d       	mov	r20, r12
    3826:	5d 2d       	mov	r21, r13
    3828:	6e 2d       	mov	r22, r14
    382a:	7f 2d       	mov	r23, r15
    382c:	80 2f       	mov	r24, r16
    382e:	91 2f       	mov	r25, r17
    3830:	21 5c       	subi	r18, 0xC1	; 193
    3832:	3d 4b       	sbci	r19, 0xBD	; 189
    3834:	40 4f       	sbci	r20, 0xF0	; 240
    3836:	5f 4f       	sbci	r21, 0xFF	; 255
    3838:	6f 4f       	sbci	r22, 0xFF	; 255
    383a:	7f 4f       	sbci	r23, 0xFF	; 255
    383c:	8f 4f       	sbci	r24, 0xFF	; 255
    383e:	9f 4f       	sbci	r25, 0xFF	; 255
    3840:	a2 2e       	mov	r10, r18
    3842:	b3 2e       	mov	r11, r19
    3844:	c4 2e       	mov	r12, r20
    3846:	d5 2e       	mov	r13, r21
    3848:	e6 2e       	mov	r14, r22
    384a:	f7 2e       	mov	r15, r23
    384c:	08 2f       	mov	r16, r24
    384e:	19 2f       	mov	r17, r25
    3850:	2a 2d       	mov	r18, r10
    3852:	3b 2d       	mov	r19, r11
    3854:	4c 2d       	mov	r20, r12
    3856:	5d 2d       	mov	r21, r13
    3858:	6e 2d       	mov	r22, r14
    385a:	7f 2d       	mov	r23, r15
    385c:	80 2f       	mov	r24, r16
    385e:	91 2f       	mov	r25, r17
    3860:	0e 94 cd 01 	call	0x39a	; 0x39a <__floatundisf>
    3864:	dc 01       	movw	r26, r24
    3866:	cb 01       	movw	r24, r22
    3868:	20 e0       	ldi	r18, 0x00	; 0
    386a:	3b e1       	ldi	r19, 0x1B	; 27
    386c:	47 eb       	ldi	r20, 0xB7	; 183
    386e:	5a e4       	ldi	r21, 0x4A	; 74
    3870:	bc 01       	movw	r22, r24
    3872:	cd 01       	movw	r24, r26
    3874:	0e 94 48 03 	call	0x690	; 0x690 <__divsf3>
    3878:	dc 01       	movw	r26, r24
    387a:	cb 01       	movw	r24, r22
    387c:	bc 01       	movw	r22, r24
    387e:	cd 01       	movw	r24, r26
    3880:	0e 94 1c 01 	call	0x238	; 0x238 <__fixunssfdi>
    3884:	a2 2e       	mov	r10, r18
    3886:	b3 2e       	mov	r11, r19
    3888:	c4 2e       	mov	r12, r20
    388a:	d5 2e       	mov	r13, r21
    388c:	e6 2e       	mov	r14, r22
    388e:	f7 2e       	mov	r15, r23
    3890:	08 2f       	mov	r16, r24
    3892:	19 2f       	mov	r17, r25
    3894:	d6 01       	movw	r26, r12
    3896:	c5 01       	movw	r24, r10
    3898:	bc 01       	movw	r22, r24
    389a:	cd 01       	movw	r24, r26
    389c:	df d9       	rcall	.-3138   	; 0x2c5c <__portable_avr_delay_cycles>
    389e:	66 e0       	ldi	r22, 0x06	; 6
    38a0:	80 ea       	ldi	r24, 0xA0	; 160
    38a2:	9a e0       	ldi	r25, 0x0A	; 10
    38a4:	0e 94 5c 13 	call	0x26b8	; 0x26b8 <usart_putchar>
    38a8:	cd d9       	rcall	.-3174   	; 0x2c44 <sysclk_get_cpu_hz>
    38aa:	dc 01       	movw	r26, r24
    38ac:	cb 01       	movw	r24, r22
    38ae:	5c 01       	movw	r10, r24
    38b0:	6d 01       	movw	r12, r26
    38b2:	e1 2c       	mov	r14, r1
    38b4:	f1 2c       	mov	r15, r1
    38b6:	87 01       	movw	r16, r14
    38b8:	2a 2d       	mov	r18, r10
    38ba:	3b 2d       	mov	r19, r11
    38bc:	4c 2d       	mov	r20, r12
    38be:	5d 2d       	mov	r21, r13
    38c0:	6e 2d       	mov	r22, r14
    38c2:	7f 2d       	mov	r23, r15
    38c4:	80 2f       	mov	r24, r16
    38c6:	91 2f       	mov	r25, r17
    38c8:	21 5c       	subi	r18, 0xC1	; 193
    38ca:	3d 4b       	sbci	r19, 0xBD	; 189
    38cc:	40 4f       	sbci	r20, 0xF0	; 240
    38ce:	5f 4f       	sbci	r21, 0xFF	; 255
    38d0:	6f 4f       	sbci	r22, 0xFF	; 255
    38d2:	7f 4f       	sbci	r23, 0xFF	; 255
    38d4:	8f 4f       	sbci	r24, 0xFF	; 255
    38d6:	9f 4f       	sbci	r25, 0xFF	; 255
    38d8:	a2 2e       	mov	r10, r18
    38da:	b3 2e       	mov	r11, r19
    38dc:	c4 2e       	mov	r12, r20
    38de:	d5 2e       	mov	r13, r21
    38e0:	e6 2e       	mov	r14, r22
    38e2:	f7 2e       	mov	r15, r23
    38e4:	08 2f       	mov	r16, r24
    38e6:	19 2f       	mov	r17, r25
    38e8:	2a 2d       	mov	r18, r10
    38ea:	3b 2d       	mov	r19, r11
    38ec:	4c 2d       	mov	r20, r12
    38ee:	5d 2d       	mov	r21, r13
    38f0:	6e 2d       	mov	r22, r14
    38f2:	7f 2d       	mov	r23, r15
    38f4:	80 2f       	mov	r24, r16
    38f6:	91 2f       	mov	r25, r17
    38f8:	0e 94 cd 01 	call	0x39a	; 0x39a <__floatundisf>
    38fc:	dc 01       	movw	r26, r24
    38fe:	cb 01       	movw	r24, r22
    3900:	20 e0       	ldi	r18, 0x00	; 0
    3902:	3b e1       	ldi	r19, 0x1B	; 27
    3904:	47 eb       	ldi	r20, 0xB7	; 183
    3906:	5a e4       	ldi	r21, 0x4A	; 74
    3908:	bc 01       	movw	r22, r24
    390a:	cd 01       	movw	r24, r26
    390c:	0e 94 48 03 	call	0x690	; 0x690 <__divsf3>
    3910:	dc 01       	movw	r26, r24
    3912:	cb 01       	movw	r24, r22
    3914:	bc 01       	movw	r22, r24
    3916:	cd 01       	movw	r24, r26
    3918:	0e 94 1c 01 	call	0x238	; 0x238 <__fixunssfdi>
    391c:	a2 2e       	mov	r10, r18
    391e:	b3 2e       	mov	r11, r19
    3920:	c4 2e       	mov	r12, r20
    3922:	d5 2e       	mov	r13, r21
    3924:	e6 2e       	mov	r14, r22
    3926:	f7 2e       	mov	r15, r23
    3928:	08 2f       	mov	r16, r24
    392a:	19 2f       	mov	r17, r25
    392c:	d6 01       	movw	r26, r12
    392e:	c5 01       	movw	r24, r10
    3930:	bc 01       	movw	r22, r24
    3932:	cd 01       	movw	r24, r26
    3934:	93 d9       	rcall	.-3290   	; 0x2c5c <__portable_avr_delay_cycles>
    3936:	89 81       	ldd	r24, Y+1	; 0x01
    3938:	68 2f       	mov	r22, r24
    393a:	80 ea       	ldi	r24, 0xA0	; 160
    393c:	9a e0       	ldi	r25, 0x0A	; 10
    393e:	0e 94 5c 13 	call	0x26b8	; 0x26b8 <usart_putchar>
    3942:	80 d9       	rcall	.-3328   	; 0x2c44 <sysclk_get_cpu_hz>
    3944:	dc 01       	movw	r26, r24
    3946:	cb 01       	movw	r24, r22
    3948:	5c 01       	movw	r10, r24
    394a:	6d 01       	movw	r12, r26
    394c:	e1 2c       	mov	r14, r1
    394e:	f1 2c       	mov	r15, r1
    3950:	87 01       	movw	r16, r14
    3952:	2a 2d       	mov	r18, r10
    3954:	3b 2d       	mov	r19, r11
    3956:	4c 2d       	mov	r20, r12
    3958:	5d 2d       	mov	r21, r13
    395a:	6e 2d       	mov	r22, r14
    395c:	7f 2d       	mov	r23, r15
    395e:	80 2f       	mov	r24, r16
    3960:	91 2f       	mov	r25, r17
    3962:	21 5c       	subi	r18, 0xC1	; 193
    3964:	3d 4b       	sbci	r19, 0xBD	; 189
    3966:	40 4f       	sbci	r20, 0xF0	; 240
    3968:	5f 4f       	sbci	r21, 0xFF	; 255
    396a:	6f 4f       	sbci	r22, 0xFF	; 255
    396c:	7f 4f       	sbci	r23, 0xFF	; 255
    396e:	8f 4f       	sbci	r24, 0xFF	; 255
    3970:	9f 4f       	sbci	r25, 0xFF	; 255
    3972:	a2 2e       	mov	r10, r18
    3974:	b3 2e       	mov	r11, r19
    3976:	c4 2e       	mov	r12, r20
    3978:	d5 2e       	mov	r13, r21
    397a:	e6 2e       	mov	r14, r22
    397c:	f7 2e       	mov	r15, r23
    397e:	08 2f       	mov	r16, r24
    3980:	19 2f       	mov	r17, r25
    3982:	2a 2d       	mov	r18, r10
    3984:	3b 2d       	mov	r19, r11
    3986:	4c 2d       	mov	r20, r12
    3988:	5d 2d       	mov	r21, r13
    398a:	6e 2d       	mov	r22, r14
    398c:	7f 2d       	mov	r23, r15
    398e:	80 2f       	mov	r24, r16
    3990:	91 2f       	mov	r25, r17
    3992:	0e 94 cd 01 	call	0x39a	; 0x39a <__floatundisf>
    3996:	dc 01       	movw	r26, r24
    3998:	cb 01       	movw	r24, r22
    399a:	20 e0       	ldi	r18, 0x00	; 0
    399c:	3b e1       	ldi	r19, 0x1B	; 27
    399e:	47 eb       	ldi	r20, 0xB7	; 183
    39a0:	5a e4       	ldi	r21, 0x4A	; 74
    39a2:	bc 01       	movw	r22, r24
    39a4:	cd 01       	movw	r24, r26
    39a6:	0e 94 48 03 	call	0x690	; 0x690 <__divsf3>
    39aa:	dc 01       	movw	r26, r24
    39ac:	cb 01       	movw	r24, r22
    39ae:	bc 01       	movw	r22, r24
    39b0:	cd 01       	movw	r24, r26
    39b2:	0e 94 1c 01 	call	0x238	; 0x238 <__fixunssfdi>
    39b6:	a2 2e       	mov	r10, r18
    39b8:	b3 2e       	mov	r11, r19
    39ba:	c4 2e       	mov	r12, r20
    39bc:	d5 2e       	mov	r13, r21
    39be:	e6 2e       	mov	r14, r22
    39c0:	f7 2e       	mov	r15, r23
    39c2:	08 2f       	mov	r16, r24
    39c4:	19 2f       	mov	r17, r25
    39c6:	d6 01       	movw	r26, r12
    39c8:	c5 01       	movw	r24, r10
    39ca:	bc 01       	movw	r22, r24
    39cc:	cd 01       	movw	r24, r26
    39ce:	46 d9       	rcall	.-3444   	; 0x2c5c <__portable_avr_delay_cycles>
    39d0:	89 81       	ldd	r24, Y+1	; 0x01
    39d2:	9a 81       	ldd	r25, Y+2	; 0x02
    39d4:	ab 81       	ldd	r26, Y+3	; 0x03
    39d6:	bc 81       	ldd	r27, Y+4	; 0x04
    39d8:	89 2f       	mov	r24, r25
    39da:	9a 2f       	mov	r25, r26
    39dc:	ab 2f       	mov	r26, r27
    39de:	bb 27       	eor	r27, r27
    39e0:	68 2f       	mov	r22, r24
    39e2:	80 ea       	ldi	r24, 0xA0	; 160
    39e4:	9a e0       	ldi	r25, 0x0A	; 10
    39e6:	0e 94 5c 13 	call	0x26b8	; 0x26b8 <usart_putchar>
    39ea:	2c d9       	rcall	.-3496   	; 0x2c44 <sysclk_get_cpu_hz>
    39ec:	dc 01       	movw	r26, r24
    39ee:	cb 01       	movw	r24, r22
    39f0:	5c 01       	movw	r10, r24
    39f2:	6d 01       	movw	r12, r26
    39f4:	e1 2c       	mov	r14, r1
    39f6:	f1 2c       	mov	r15, r1
    39f8:	87 01       	movw	r16, r14
    39fa:	2a 2d       	mov	r18, r10
    39fc:	3b 2d       	mov	r19, r11
    39fe:	4c 2d       	mov	r20, r12
    3a00:	5d 2d       	mov	r21, r13
    3a02:	6e 2d       	mov	r22, r14
    3a04:	7f 2d       	mov	r23, r15
    3a06:	80 2f       	mov	r24, r16
    3a08:	91 2f       	mov	r25, r17
    3a0a:	21 5c       	subi	r18, 0xC1	; 193
    3a0c:	3d 4b       	sbci	r19, 0xBD	; 189
    3a0e:	40 4f       	sbci	r20, 0xF0	; 240
    3a10:	5f 4f       	sbci	r21, 0xFF	; 255
    3a12:	6f 4f       	sbci	r22, 0xFF	; 255
    3a14:	7f 4f       	sbci	r23, 0xFF	; 255
    3a16:	8f 4f       	sbci	r24, 0xFF	; 255
    3a18:	9f 4f       	sbci	r25, 0xFF	; 255
    3a1a:	a2 2e       	mov	r10, r18
    3a1c:	b3 2e       	mov	r11, r19
    3a1e:	c4 2e       	mov	r12, r20
    3a20:	d5 2e       	mov	r13, r21
    3a22:	e6 2e       	mov	r14, r22
    3a24:	f7 2e       	mov	r15, r23
    3a26:	08 2f       	mov	r16, r24
    3a28:	19 2f       	mov	r17, r25
    3a2a:	2a 2d       	mov	r18, r10
    3a2c:	3b 2d       	mov	r19, r11
    3a2e:	4c 2d       	mov	r20, r12
    3a30:	5d 2d       	mov	r21, r13
    3a32:	6e 2d       	mov	r22, r14
    3a34:	7f 2d       	mov	r23, r15
    3a36:	80 2f       	mov	r24, r16
    3a38:	91 2f       	mov	r25, r17
    3a3a:	0e 94 cd 01 	call	0x39a	; 0x39a <__floatundisf>
    3a3e:	dc 01       	movw	r26, r24
    3a40:	cb 01       	movw	r24, r22
    3a42:	20 e0       	ldi	r18, 0x00	; 0
    3a44:	3b e1       	ldi	r19, 0x1B	; 27
    3a46:	47 eb       	ldi	r20, 0xB7	; 183
    3a48:	5a e4       	ldi	r21, 0x4A	; 74
    3a4a:	bc 01       	movw	r22, r24
    3a4c:	cd 01       	movw	r24, r26
    3a4e:	0e 94 48 03 	call	0x690	; 0x690 <__divsf3>
    3a52:	dc 01       	movw	r26, r24
    3a54:	cb 01       	movw	r24, r22
    3a56:	bc 01       	movw	r22, r24
    3a58:	cd 01       	movw	r24, r26
    3a5a:	0e 94 1c 01 	call	0x238	; 0x238 <__fixunssfdi>
    3a5e:	a2 2e       	mov	r10, r18
    3a60:	b3 2e       	mov	r11, r19
    3a62:	c4 2e       	mov	r12, r20
    3a64:	d5 2e       	mov	r13, r21
    3a66:	e6 2e       	mov	r14, r22
    3a68:	f7 2e       	mov	r15, r23
    3a6a:	08 2f       	mov	r16, r24
    3a6c:	19 2f       	mov	r17, r25
    3a6e:	d6 01       	movw	r26, r12
    3a70:	c5 01       	movw	r24, r10
    3a72:	bc 01       	movw	r22, r24
    3a74:	cd 01       	movw	r24, r26
    3a76:	f2 d8       	rcall	.-3612   	; 0x2c5c <__portable_avr_delay_cycles>
    3a78:	89 81       	ldd	r24, Y+1	; 0x01
    3a7a:	9a 81       	ldd	r25, Y+2	; 0x02
    3a7c:	ab 81       	ldd	r26, Y+3	; 0x03
    3a7e:	bc 81       	ldd	r27, Y+4	; 0x04
    3a80:	cd 01       	movw	r24, r26
    3a82:	aa 27       	eor	r26, r26
    3a84:	bb 27       	eor	r27, r27
    3a86:	68 2f       	mov	r22, r24
    3a88:	80 ea       	ldi	r24, 0xA0	; 160
    3a8a:	9a e0       	ldi	r25, 0x0A	; 10
    3a8c:	0e 94 5c 13 	call	0x26b8	; 0x26b8 <usart_putchar>
    3a90:	d9 d8       	rcall	.-3662   	; 0x2c44 <sysclk_get_cpu_hz>
    3a92:	dc 01       	movw	r26, r24
    3a94:	cb 01       	movw	r24, r22
    3a96:	5c 01       	movw	r10, r24
    3a98:	6d 01       	movw	r12, r26
    3a9a:	e1 2c       	mov	r14, r1
    3a9c:	f1 2c       	mov	r15, r1
    3a9e:	87 01       	movw	r16, r14
    3aa0:	2a 2d       	mov	r18, r10
    3aa2:	3b 2d       	mov	r19, r11
    3aa4:	4c 2d       	mov	r20, r12
    3aa6:	5d 2d       	mov	r21, r13
    3aa8:	6e 2d       	mov	r22, r14
    3aaa:	7f 2d       	mov	r23, r15
    3aac:	80 2f       	mov	r24, r16
    3aae:	91 2f       	mov	r25, r17
    3ab0:	21 5c       	subi	r18, 0xC1	; 193
    3ab2:	3d 4b       	sbci	r19, 0xBD	; 189
    3ab4:	40 4f       	sbci	r20, 0xF0	; 240
    3ab6:	5f 4f       	sbci	r21, 0xFF	; 255
    3ab8:	6f 4f       	sbci	r22, 0xFF	; 255
    3aba:	7f 4f       	sbci	r23, 0xFF	; 255
    3abc:	8f 4f       	sbci	r24, 0xFF	; 255
    3abe:	9f 4f       	sbci	r25, 0xFF	; 255
    3ac0:	a2 2e       	mov	r10, r18
    3ac2:	b3 2e       	mov	r11, r19
    3ac4:	c4 2e       	mov	r12, r20
    3ac6:	d5 2e       	mov	r13, r21
    3ac8:	e6 2e       	mov	r14, r22
    3aca:	f7 2e       	mov	r15, r23
    3acc:	08 2f       	mov	r16, r24
    3ace:	19 2f       	mov	r17, r25
    3ad0:	2a 2d       	mov	r18, r10
    3ad2:	3b 2d       	mov	r19, r11
    3ad4:	4c 2d       	mov	r20, r12
    3ad6:	5d 2d       	mov	r21, r13
    3ad8:	6e 2d       	mov	r22, r14
    3ada:	7f 2d       	mov	r23, r15
    3adc:	80 2f       	mov	r24, r16
    3ade:	91 2f       	mov	r25, r17
    3ae0:	0e 94 cd 01 	call	0x39a	; 0x39a <__floatundisf>
    3ae4:	dc 01       	movw	r26, r24
    3ae6:	cb 01       	movw	r24, r22
    3ae8:	20 e0       	ldi	r18, 0x00	; 0
    3aea:	3b e1       	ldi	r19, 0x1B	; 27
    3aec:	47 eb       	ldi	r20, 0xB7	; 183
    3aee:	5a e4       	ldi	r21, 0x4A	; 74
    3af0:	bc 01       	movw	r22, r24
    3af2:	cd 01       	movw	r24, r26
    3af4:	0e 94 48 03 	call	0x690	; 0x690 <__divsf3>
    3af8:	dc 01       	movw	r26, r24
    3afa:	cb 01       	movw	r24, r22
    3afc:	bc 01       	movw	r22, r24
    3afe:	cd 01       	movw	r24, r26
    3b00:	0e 94 1c 01 	call	0x238	; 0x238 <__fixunssfdi>
    3b04:	a2 2e       	mov	r10, r18
    3b06:	b3 2e       	mov	r11, r19
    3b08:	c4 2e       	mov	r12, r20
    3b0a:	d5 2e       	mov	r13, r21
    3b0c:	e6 2e       	mov	r14, r22
    3b0e:	f7 2e       	mov	r15, r23
    3b10:	08 2f       	mov	r16, r24
    3b12:	19 2f       	mov	r17, r25
    3b14:	d6 01       	movw	r26, r12
    3b16:	c5 01       	movw	r24, r10
    3b18:	bc 01       	movw	r22, r24
    3b1a:	cd 01       	movw	r24, r26
    3b1c:	9f d8       	rcall	.-3778   	; 0x2c5c <__portable_avr_delay_cycles>
    3b1e:	89 81       	ldd	r24, Y+1	; 0x01
    3b20:	9a 81       	ldd	r25, Y+2	; 0x02
    3b22:	ab 81       	ldd	r26, Y+3	; 0x03
    3b24:	bc 81       	ldd	r27, Y+4	; 0x04
    3b26:	8b 2f       	mov	r24, r27
    3b28:	99 27       	eor	r25, r25
    3b2a:	aa 27       	eor	r26, r26
    3b2c:	bb 27       	eor	r27, r27
    3b2e:	68 2f       	mov	r22, r24
    3b30:	80 ea       	ldi	r24, 0xA0	; 160
    3b32:	9a e0       	ldi	r25, 0x0A	; 10
    3b34:	0e 94 5c 13 	call	0x26b8	; 0x26b8 <usart_putchar>
    3b38:	24 96       	adiw	r28, 0x04	; 4
    3b3a:	cd bf       	out	0x3d, r28	; 61
    3b3c:	de bf       	out	0x3e, r29	; 62
    3b3e:	df 91       	pop	r29
    3b40:	cf 91       	pop	r28
    3b42:	1f 91       	pop	r17
    3b44:	0f 91       	pop	r16
    3b46:	ff 90       	pop	r15
    3b48:	ef 90       	pop	r14
    3b4a:	df 90       	pop	r13
    3b4c:	cf 90       	pop	r12
    3b4e:	bf 90       	pop	r11
    3b50:	af 90       	pop	r10
    3b52:	08 95       	ret

00003b54 <USART_COMP_transmit_MCversion>:
    3b54:	af 92       	push	r10
    3b56:	bf 92       	push	r11
    3b58:	cf 92       	push	r12
    3b5a:	df 92       	push	r13
    3b5c:	ef 92       	push	r14
    3b5e:	ff 92       	push	r15
    3b60:	0f 93       	push	r16
    3b62:	1f 93       	push	r17
    3b64:	cf 93       	push	r28
    3b66:	df 93       	push	r29
    3b68:	cd b7       	in	r28, 0x3d	; 61
    3b6a:	de b7       	in	r29, 0x3e	; 62
    3b6c:	6b d8       	rcall	.-3882   	; 0x2c44 <sysclk_get_cpu_hz>
    3b6e:	dc 01       	movw	r26, r24
    3b70:	cb 01       	movw	r24, r22
    3b72:	5c 01       	movw	r10, r24
    3b74:	6d 01       	movw	r12, r26
    3b76:	e1 2c       	mov	r14, r1
    3b78:	f1 2c       	mov	r15, r1
    3b7a:	87 01       	movw	r16, r14
    3b7c:	2a 2d       	mov	r18, r10
    3b7e:	3b 2d       	mov	r19, r11
    3b80:	4c 2d       	mov	r20, r12
    3b82:	5d 2d       	mov	r21, r13
    3b84:	6e 2d       	mov	r22, r14
    3b86:	7f 2d       	mov	r23, r15
    3b88:	80 2f       	mov	r24, r16
    3b8a:	91 2f       	mov	r25, r17
    3b8c:	21 5c       	subi	r18, 0xC1	; 193
    3b8e:	3d 4b       	sbci	r19, 0xBD	; 189
    3b90:	40 4f       	sbci	r20, 0xF0	; 240
    3b92:	5f 4f       	sbci	r21, 0xFF	; 255
    3b94:	6f 4f       	sbci	r22, 0xFF	; 255
    3b96:	7f 4f       	sbci	r23, 0xFF	; 255
    3b98:	8f 4f       	sbci	r24, 0xFF	; 255
    3b9a:	9f 4f       	sbci	r25, 0xFF	; 255
    3b9c:	a2 2e       	mov	r10, r18
    3b9e:	b3 2e       	mov	r11, r19
    3ba0:	c4 2e       	mov	r12, r20
    3ba2:	d5 2e       	mov	r13, r21
    3ba4:	e6 2e       	mov	r14, r22
    3ba6:	f7 2e       	mov	r15, r23
    3ba8:	08 2f       	mov	r16, r24
    3baa:	19 2f       	mov	r17, r25
    3bac:	2a 2d       	mov	r18, r10
    3bae:	3b 2d       	mov	r19, r11
    3bb0:	4c 2d       	mov	r20, r12
    3bb2:	5d 2d       	mov	r21, r13
    3bb4:	6e 2d       	mov	r22, r14
    3bb6:	7f 2d       	mov	r23, r15
    3bb8:	80 2f       	mov	r24, r16
    3bba:	91 2f       	mov	r25, r17
    3bbc:	0e 94 cd 01 	call	0x39a	; 0x39a <__floatundisf>
    3bc0:	dc 01       	movw	r26, r24
    3bc2:	cb 01       	movw	r24, r22
    3bc4:	20 e0       	ldi	r18, 0x00	; 0
    3bc6:	3b e1       	ldi	r19, 0x1B	; 27
    3bc8:	47 eb       	ldi	r20, 0xB7	; 183
    3bca:	5a e4       	ldi	r21, 0x4A	; 74
    3bcc:	bc 01       	movw	r22, r24
    3bce:	cd 01       	movw	r24, r26
    3bd0:	0e 94 48 03 	call	0x690	; 0x690 <__divsf3>
    3bd4:	dc 01       	movw	r26, r24
    3bd6:	cb 01       	movw	r24, r22
    3bd8:	bc 01       	movw	r22, r24
    3bda:	cd 01       	movw	r24, r26
    3bdc:	0e 94 1c 01 	call	0x238	; 0x238 <__fixunssfdi>
    3be0:	a2 2e       	mov	r10, r18
    3be2:	b3 2e       	mov	r11, r19
    3be4:	c4 2e       	mov	r12, r20
    3be6:	d5 2e       	mov	r13, r21
    3be8:	e6 2e       	mov	r14, r22
    3bea:	f7 2e       	mov	r15, r23
    3bec:	08 2f       	mov	r16, r24
    3bee:	19 2f       	mov	r17, r25
    3bf0:	d6 01       	movw	r26, r12
    3bf2:	c5 01       	movw	r24, r10
    3bf4:	bc 01       	movw	r22, r24
    3bf6:	cd 01       	movw	r24, r26
    3bf8:	31 d8       	rcall	.-3998   	; 0x2c5c <__portable_avr_delay_cycles>
    3bfa:	64 e0       	ldi	r22, 0x04	; 4
    3bfc:	80 ea       	ldi	r24, 0xA0	; 160
    3bfe:	9a e0       	ldi	r25, 0x0A	; 10
    3c00:	0e 94 5c 13 	call	0x26b8	; 0x26b8 <usart_putchar>
    3c04:	1f d8       	rcall	.-4034   	; 0x2c44 <sysclk_get_cpu_hz>
    3c06:	dc 01       	movw	r26, r24
    3c08:	cb 01       	movw	r24, r22
    3c0a:	5c 01       	movw	r10, r24
    3c0c:	6d 01       	movw	r12, r26
    3c0e:	e1 2c       	mov	r14, r1
    3c10:	f1 2c       	mov	r15, r1
    3c12:	87 01       	movw	r16, r14
    3c14:	2a 2d       	mov	r18, r10
    3c16:	3b 2d       	mov	r19, r11
    3c18:	4c 2d       	mov	r20, r12
    3c1a:	5d 2d       	mov	r21, r13
    3c1c:	6e 2d       	mov	r22, r14
    3c1e:	7f 2d       	mov	r23, r15
    3c20:	80 2f       	mov	r24, r16
    3c22:	91 2f       	mov	r25, r17
    3c24:	21 5c       	subi	r18, 0xC1	; 193
    3c26:	3d 4b       	sbci	r19, 0xBD	; 189
    3c28:	40 4f       	sbci	r20, 0xF0	; 240
    3c2a:	5f 4f       	sbci	r21, 0xFF	; 255
    3c2c:	6f 4f       	sbci	r22, 0xFF	; 255
    3c2e:	7f 4f       	sbci	r23, 0xFF	; 255
    3c30:	8f 4f       	sbci	r24, 0xFF	; 255
    3c32:	9f 4f       	sbci	r25, 0xFF	; 255
    3c34:	a2 2e       	mov	r10, r18
    3c36:	b3 2e       	mov	r11, r19
    3c38:	c4 2e       	mov	r12, r20
    3c3a:	d5 2e       	mov	r13, r21
    3c3c:	e6 2e       	mov	r14, r22
    3c3e:	f7 2e       	mov	r15, r23
    3c40:	08 2f       	mov	r16, r24
    3c42:	19 2f       	mov	r17, r25
    3c44:	2a 2d       	mov	r18, r10
    3c46:	3b 2d       	mov	r19, r11
    3c48:	4c 2d       	mov	r20, r12
    3c4a:	5d 2d       	mov	r21, r13
    3c4c:	6e 2d       	mov	r22, r14
    3c4e:	7f 2d       	mov	r23, r15
    3c50:	80 2f       	mov	r24, r16
    3c52:	91 2f       	mov	r25, r17
    3c54:	0e 94 cd 01 	call	0x39a	; 0x39a <__floatundisf>
    3c58:	dc 01       	movw	r26, r24
    3c5a:	cb 01       	movw	r24, r22
    3c5c:	20 e0       	ldi	r18, 0x00	; 0
    3c5e:	3b e1       	ldi	r19, 0x1B	; 27
    3c60:	47 eb       	ldi	r20, 0xB7	; 183
    3c62:	5a e4       	ldi	r21, 0x4A	; 74
    3c64:	bc 01       	movw	r22, r24
    3c66:	cd 01       	movw	r24, r26
    3c68:	0e 94 48 03 	call	0x690	; 0x690 <__divsf3>
    3c6c:	dc 01       	movw	r26, r24
    3c6e:	cb 01       	movw	r24, r22
    3c70:	bc 01       	movw	r22, r24
    3c72:	cd 01       	movw	r24, r26
    3c74:	0e 94 1c 01 	call	0x238	; 0x238 <__fixunssfdi>
    3c78:	a2 2e       	mov	r10, r18
    3c7a:	b3 2e       	mov	r11, r19
    3c7c:	c4 2e       	mov	r12, r20
    3c7e:	d5 2e       	mov	r13, r21
    3c80:	e6 2e       	mov	r14, r22
    3c82:	f7 2e       	mov	r15, r23
    3c84:	08 2f       	mov	r16, r24
    3c86:	19 2f       	mov	r17, r25
    3c88:	d6 01       	movw	r26, r12
    3c8a:	c5 01       	movw	r24, r10
    3c8c:	bc 01       	movw	r22, r24
    3c8e:	cd 01       	movw	r24, r26
    3c90:	0e 94 2e 16 	call	0x2c5c	; 0x2c5c <__portable_avr_delay_cycles>
    3c94:	80 91 00 20 	lds	r24, 0x2000
    3c98:	68 2f       	mov	r22, r24
    3c9a:	80 ea       	ldi	r24, 0xA0	; 160
    3c9c:	9a e0       	ldi	r25, 0x0A	; 10
    3c9e:	0e 94 5c 13 	call	0x26b8	; 0x26b8 <usart_putchar>
    3ca2:	df 91       	pop	r29
    3ca4:	cf 91       	pop	r28
    3ca6:	1f 91       	pop	r17
    3ca8:	0f 91       	pop	r16
    3caa:	ff 90       	pop	r15
    3cac:	ef 90       	pop	r14
    3cae:	df 90       	pop	r13
    3cb0:	cf 90       	pop	r12
    3cb2:	bf 90       	pop	r11
    3cb4:	af 90       	pop	r10
    3cb6:	08 95       	ret

00003cb8 <USART_COMP_transmit_MCbirthday>:
    3cb8:	af 92       	push	r10
    3cba:	bf 92       	push	r11
    3cbc:	cf 92       	push	r12
    3cbe:	df 92       	push	r13
    3cc0:	ef 92       	push	r14
    3cc2:	ff 92       	push	r15
    3cc4:	0f 93       	push	r16
    3cc6:	1f 93       	push	r17
    3cc8:	cf 93       	push	r28
    3cca:	df 93       	push	r29
    3ccc:	cd b7       	in	r28, 0x3d	; 61
    3cce:	de b7       	in	r29, 0x3e	; 62
    3cd0:	0e 94 22 16 	call	0x2c44	; 0x2c44 <sysclk_get_cpu_hz>
    3cd4:	dc 01       	movw	r26, r24
    3cd6:	cb 01       	movw	r24, r22
    3cd8:	5c 01       	movw	r10, r24
    3cda:	6d 01       	movw	r12, r26
    3cdc:	e1 2c       	mov	r14, r1
    3cde:	f1 2c       	mov	r15, r1
    3ce0:	87 01       	movw	r16, r14
    3ce2:	2a 2d       	mov	r18, r10
    3ce4:	3b 2d       	mov	r19, r11
    3ce6:	4c 2d       	mov	r20, r12
    3ce8:	5d 2d       	mov	r21, r13
    3cea:	6e 2d       	mov	r22, r14
    3cec:	7f 2d       	mov	r23, r15
    3cee:	80 2f       	mov	r24, r16
    3cf0:	91 2f       	mov	r25, r17
    3cf2:	21 5c       	subi	r18, 0xC1	; 193
    3cf4:	3d 4b       	sbci	r19, 0xBD	; 189
    3cf6:	40 4f       	sbci	r20, 0xF0	; 240
    3cf8:	5f 4f       	sbci	r21, 0xFF	; 255
    3cfa:	6f 4f       	sbci	r22, 0xFF	; 255
    3cfc:	7f 4f       	sbci	r23, 0xFF	; 255
    3cfe:	8f 4f       	sbci	r24, 0xFF	; 255
    3d00:	9f 4f       	sbci	r25, 0xFF	; 255
    3d02:	a2 2e       	mov	r10, r18
    3d04:	b3 2e       	mov	r11, r19
    3d06:	c4 2e       	mov	r12, r20
    3d08:	d5 2e       	mov	r13, r21
    3d0a:	e6 2e       	mov	r14, r22
    3d0c:	f7 2e       	mov	r15, r23
    3d0e:	08 2f       	mov	r16, r24
    3d10:	19 2f       	mov	r17, r25
    3d12:	2a 2d       	mov	r18, r10
    3d14:	3b 2d       	mov	r19, r11
    3d16:	4c 2d       	mov	r20, r12
    3d18:	5d 2d       	mov	r21, r13
    3d1a:	6e 2d       	mov	r22, r14
    3d1c:	7f 2d       	mov	r23, r15
    3d1e:	80 2f       	mov	r24, r16
    3d20:	91 2f       	mov	r25, r17
    3d22:	0e 94 cd 01 	call	0x39a	; 0x39a <__floatundisf>
    3d26:	dc 01       	movw	r26, r24
    3d28:	cb 01       	movw	r24, r22
    3d2a:	20 e0       	ldi	r18, 0x00	; 0
    3d2c:	3b e1       	ldi	r19, 0x1B	; 27
    3d2e:	47 eb       	ldi	r20, 0xB7	; 183
    3d30:	5a e4       	ldi	r21, 0x4A	; 74
    3d32:	bc 01       	movw	r22, r24
    3d34:	cd 01       	movw	r24, r26
    3d36:	0e 94 48 03 	call	0x690	; 0x690 <__divsf3>
    3d3a:	dc 01       	movw	r26, r24
    3d3c:	cb 01       	movw	r24, r22
    3d3e:	bc 01       	movw	r22, r24
    3d40:	cd 01       	movw	r24, r26
    3d42:	0e 94 1c 01 	call	0x238	; 0x238 <__fixunssfdi>
    3d46:	a2 2e       	mov	r10, r18
    3d48:	b3 2e       	mov	r11, r19
    3d4a:	c4 2e       	mov	r12, r20
    3d4c:	d5 2e       	mov	r13, r21
    3d4e:	e6 2e       	mov	r14, r22
    3d50:	f7 2e       	mov	r15, r23
    3d52:	08 2f       	mov	r16, r24
    3d54:	19 2f       	mov	r17, r25
    3d56:	d6 01       	movw	r26, r12
    3d58:	c5 01       	movw	r24, r10
    3d5a:	bc 01       	movw	r22, r24
    3d5c:	cd 01       	movw	r24, r26
    3d5e:	0e 94 2e 16 	call	0x2c5c	; 0x2c5c <__portable_avr_delay_cycles>
    3d62:	65 e0       	ldi	r22, 0x05	; 5
    3d64:	80 ea       	ldi	r24, 0xA0	; 160
    3d66:	9a e0       	ldi	r25, 0x0A	; 10
    3d68:	0e 94 5c 13 	call	0x26b8	; 0x26b8 <usart_putchar>
    3d6c:	0e 94 22 16 	call	0x2c44	; 0x2c44 <sysclk_get_cpu_hz>
    3d70:	dc 01       	movw	r26, r24
    3d72:	cb 01       	movw	r24, r22
    3d74:	5c 01       	movw	r10, r24
    3d76:	6d 01       	movw	r12, r26
    3d78:	e1 2c       	mov	r14, r1
    3d7a:	f1 2c       	mov	r15, r1
    3d7c:	87 01       	movw	r16, r14
    3d7e:	2a 2d       	mov	r18, r10
    3d80:	3b 2d       	mov	r19, r11
    3d82:	4c 2d       	mov	r20, r12
    3d84:	5d 2d       	mov	r21, r13
    3d86:	6e 2d       	mov	r22, r14
    3d88:	7f 2d       	mov	r23, r15
    3d8a:	80 2f       	mov	r24, r16
    3d8c:	91 2f       	mov	r25, r17
    3d8e:	21 5c       	subi	r18, 0xC1	; 193
    3d90:	3d 4b       	sbci	r19, 0xBD	; 189
    3d92:	40 4f       	sbci	r20, 0xF0	; 240
    3d94:	5f 4f       	sbci	r21, 0xFF	; 255
    3d96:	6f 4f       	sbci	r22, 0xFF	; 255
    3d98:	7f 4f       	sbci	r23, 0xFF	; 255
    3d9a:	8f 4f       	sbci	r24, 0xFF	; 255
    3d9c:	9f 4f       	sbci	r25, 0xFF	; 255
    3d9e:	a2 2e       	mov	r10, r18
    3da0:	b3 2e       	mov	r11, r19
    3da2:	c4 2e       	mov	r12, r20
    3da4:	d5 2e       	mov	r13, r21
    3da6:	e6 2e       	mov	r14, r22
    3da8:	f7 2e       	mov	r15, r23
    3daa:	08 2f       	mov	r16, r24
    3dac:	19 2f       	mov	r17, r25
    3dae:	2a 2d       	mov	r18, r10
    3db0:	3b 2d       	mov	r19, r11
    3db2:	4c 2d       	mov	r20, r12
    3db4:	5d 2d       	mov	r21, r13
    3db6:	6e 2d       	mov	r22, r14
    3db8:	7f 2d       	mov	r23, r15
    3dba:	80 2f       	mov	r24, r16
    3dbc:	91 2f       	mov	r25, r17
    3dbe:	0e 94 cd 01 	call	0x39a	; 0x39a <__floatundisf>
    3dc2:	dc 01       	movw	r26, r24
    3dc4:	cb 01       	movw	r24, r22
    3dc6:	20 e0       	ldi	r18, 0x00	; 0
    3dc8:	3b e1       	ldi	r19, 0x1B	; 27
    3dca:	47 eb       	ldi	r20, 0xB7	; 183
    3dcc:	5a e4       	ldi	r21, 0x4A	; 74
    3dce:	bc 01       	movw	r22, r24
    3dd0:	cd 01       	movw	r24, r26
    3dd2:	0e 94 48 03 	call	0x690	; 0x690 <__divsf3>
    3dd6:	dc 01       	movw	r26, r24
    3dd8:	cb 01       	movw	r24, r22
    3dda:	bc 01       	movw	r22, r24
    3ddc:	cd 01       	movw	r24, r26
    3dde:	0e 94 1c 01 	call	0x238	; 0x238 <__fixunssfdi>
    3de2:	a2 2e       	mov	r10, r18
    3de4:	b3 2e       	mov	r11, r19
    3de6:	c4 2e       	mov	r12, r20
    3de8:	d5 2e       	mov	r13, r21
    3dea:	e6 2e       	mov	r14, r22
    3dec:	f7 2e       	mov	r15, r23
    3dee:	08 2f       	mov	r16, r24
    3df0:	19 2f       	mov	r17, r25
    3df2:	d6 01       	movw	r26, r12
    3df4:	c5 01       	movw	r24, r10
    3df6:	bc 01       	movw	r22, r24
    3df8:	cd 01       	movw	r24, r26
    3dfa:	0e 94 2e 16 	call	0x2c5c	; 0x2c5c <__portable_avr_delay_cycles>
    3dfe:	80 91 01 20 	lds	r24, 0x2001
    3e02:	90 91 02 20 	lds	r25, 0x2002
    3e06:	a0 91 03 20 	lds	r26, 0x2003
    3e0a:	b0 91 04 20 	lds	r27, 0x2004
    3e0e:	68 2f       	mov	r22, r24
    3e10:	80 ea       	ldi	r24, 0xA0	; 160
    3e12:	9a e0       	ldi	r25, 0x0A	; 10
    3e14:	0e 94 5c 13 	call	0x26b8	; 0x26b8 <usart_putchar>
    3e18:	0e 94 22 16 	call	0x2c44	; 0x2c44 <sysclk_get_cpu_hz>
    3e1c:	dc 01       	movw	r26, r24
    3e1e:	cb 01       	movw	r24, r22
    3e20:	5c 01       	movw	r10, r24
    3e22:	6d 01       	movw	r12, r26
    3e24:	e1 2c       	mov	r14, r1
    3e26:	f1 2c       	mov	r15, r1
    3e28:	87 01       	movw	r16, r14
    3e2a:	2a 2d       	mov	r18, r10
    3e2c:	3b 2d       	mov	r19, r11
    3e2e:	4c 2d       	mov	r20, r12
    3e30:	5d 2d       	mov	r21, r13
    3e32:	6e 2d       	mov	r22, r14
    3e34:	7f 2d       	mov	r23, r15
    3e36:	80 2f       	mov	r24, r16
    3e38:	91 2f       	mov	r25, r17
    3e3a:	21 5c       	subi	r18, 0xC1	; 193
    3e3c:	3d 4b       	sbci	r19, 0xBD	; 189
    3e3e:	40 4f       	sbci	r20, 0xF0	; 240
    3e40:	5f 4f       	sbci	r21, 0xFF	; 255
    3e42:	6f 4f       	sbci	r22, 0xFF	; 255
    3e44:	7f 4f       	sbci	r23, 0xFF	; 255
    3e46:	8f 4f       	sbci	r24, 0xFF	; 255
    3e48:	9f 4f       	sbci	r25, 0xFF	; 255
    3e4a:	a2 2e       	mov	r10, r18
    3e4c:	b3 2e       	mov	r11, r19
    3e4e:	c4 2e       	mov	r12, r20
    3e50:	d5 2e       	mov	r13, r21
    3e52:	e6 2e       	mov	r14, r22
    3e54:	f7 2e       	mov	r15, r23
    3e56:	08 2f       	mov	r16, r24
    3e58:	19 2f       	mov	r17, r25
    3e5a:	2a 2d       	mov	r18, r10
    3e5c:	3b 2d       	mov	r19, r11
    3e5e:	4c 2d       	mov	r20, r12
    3e60:	5d 2d       	mov	r21, r13
    3e62:	6e 2d       	mov	r22, r14
    3e64:	7f 2d       	mov	r23, r15
    3e66:	80 2f       	mov	r24, r16
    3e68:	91 2f       	mov	r25, r17
    3e6a:	0e 94 cd 01 	call	0x39a	; 0x39a <__floatundisf>
    3e6e:	dc 01       	movw	r26, r24
    3e70:	cb 01       	movw	r24, r22
    3e72:	20 e0       	ldi	r18, 0x00	; 0
    3e74:	3b e1       	ldi	r19, 0x1B	; 27
    3e76:	47 eb       	ldi	r20, 0xB7	; 183
    3e78:	5a e4       	ldi	r21, 0x4A	; 74
    3e7a:	bc 01       	movw	r22, r24
    3e7c:	cd 01       	movw	r24, r26
    3e7e:	0e 94 48 03 	call	0x690	; 0x690 <__divsf3>
    3e82:	dc 01       	movw	r26, r24
    3e84:	cb 01       	movw	r24, r22
    3e86:	bc 01       	movw	r22, r24
    3e88:	cd 01       	movw	r24, r26
    3e8a:	0e 94 1c 01 	call	0x238	; 0x238 <__fixunssfdi>
    3e8e:	a2 2e       	mov	r10, r18
    3e90:	b3 2e       	mov	r11, r19
    3e92:	c4 2e       	mov	r12, r20
    3e94:	d5 2e       	mov	r13, r21
    3e96:	e6 2e       	mov	r14, r22
    3e98:	f7 2e       	mov	r15, r23
    3e9a:	08 2f       	mov	r16, r24
    3e9c:	19 2f       	mov	r17, r25
    3e9e:	d6 01       	movw	r26, r12
    3ea0:	c5 01       	movw	r24, r10
    3ea2:	bc 01       	movw	r22, r24
    3ea4:	cd 01       	movw	r24, r26
    3ea6:	0e 94 2e 16 	call	0x2c5c	; 0x2c5c <__portable_avr_delay_cycles>
    3eaa:	80 91 01 20 	lds	r24, 0x2001
    3eae:	90 91 02 20 	lds	r25, 0x2002
    3eb2:	a0 91 03 20 	lds	r26, 0x2003
    3eb6:	b0 91 04 20 	lds	r27, 0x2004
    3eba:	89 2f       	mov	r24, r25
    3ebc:	9a 2f       	mov	r25, r26
    3ebe:	ab 2f       	mov	r26, r27
    3ec0:	bb 27       	eor	r27, r27
    3ec2:	68 2f       	mov	r22, r24
    3ec4:	80 ea       	ldi	r24, 0xA0	; 160
    3ec6:	9a e0       	ldi	r25, 0x0A	; 10
    3ec8:	0e 94 5c 13 	call	0x26b8	; 0x26b8 <usart_putchar>
    3ecc:	0e 94 22 16 	call	0x2c44	; 0x2c44 <sysclk_get_cpu_hz>
    3ed0:	dc 01       	movw	r26, r24
    3ed2:	cb 01       	movw	r24, r22
    3ed4:	5c 01       	movw	r10, r24
    3ed6:	6d 01       	movw	r12, r26
    3ed8:	e1 2c       	mov	r14, r1
    3eda:	f1 2c       	mov	r15, r1
    3edc:	87 01       	movw	r16, r14
    3ede:	2a 2d       	mov	r18, r10
    3ee0:	3b 2d       	mov	r19, r11
    3ee2:	4c 2d       	mov	r20, r12
    3ee4:	5d 2d       	mov	r21, r13
    3ee6:	6e 2d       	mov	r22, r14
    3ee8:	7f 2d       	mov	r23, r15
    3eea:	80 2f       	mov	r24, r16
    3eec:	91 2f       	mov	r25, r17
    3eee:	21 5c       	subi	r18, 0xC1	; 193
    3ef0:	3d 4b       	sbci	r19, 0xBD	; 189
    3ef2:	40 4f       	sbci	r20, 0xF0	; 240
    3ef4:	5f 4f       	sbci	r21, 0xFF	; 255
    3ef6:	6f 4f       	sbci	r22, 0xFF	; 255
    3ef8:	7f 4f       	sbci	r23, 0xFF	; 255
    3efa:	8f 4f       	sbci	r24, 0xFF	; 255
    3efc:	9f 4f       	sbci	r25, 0xFF	; 255
    3efe:	a2 2e       	mov	r10, r18
    3f00:	b3 2e       	mov	r11, r19
    3f02:	c4 2e       	mov	r12, r20
    3f04:	d5 2e       	mov	r13, r21
    3f06:	e6 2e       	mov	r14, r22
    3f08:	f7 2e       	mov	r15, r23
    3f0a:	08 2f       	mov	r16, r24
    3f0c:	19 2f       	mov	r17, r25
    3f0e:	2a 2d       	mov	r18, r10
    3f10:	3b 2d       	mov	r19, r11
    3f12:	4c 2d       	mov	r20, r12
    3f14:	5d 2d       	mov	r21, r13
    3f16:	6e 2d       	mov	r22, r14
    3f18:	7f 2d       	mov	r23, r15
    3f1a:	80 2f       	mov	r24, r16
    3f1c:	91 2f       	mov	r25, r17
    3f1e:	0e 94 cd 01 	call	0x39a	; 0x39a <__floatundisf>
    3f22:	dc 01       	movw	r26, r24
    3f24:	cb 01       	movw	r24, r22
    3f26:	20 e0       	ldi	r18, 0x00	; 0
    3f28:	3b e1       	ldi	r19, 0x1B	; 27
    3f2a:	47 eb       	ldi	r20, 0xB7	; 183
    3f2c:	5a e4       	ldi	r21, 0x4A	; 74
    3f2e:	bc 01       	movw	r22, r24
    3f30:	cd 01       	movw	r24, r26
    3f32:	0e 94 48 03 	call	0x690	; 0x690 <__divsf3>
    3f36:	dc 01       	movw	r26, r24
    3f38:	cb 01       	movw	r24, r22
    3f3a:	bc 01       	movw	r22, r24
    3f3c:	cd 01       	movw	r24, r26
    3f3e:	0e 94 1c 01 	call	0x238	; 0x238 <__fixunssfdi>
    3f42:	a2 2e       	mov	r10, r18
    3f44:	b3 2e       	mov	r11, r19
    3f46:	c4 2e       	mov	r12, r20
    3f48:	d5 2e       	mov	r13, r21
    3f4a:	e6 2e       	mov	r14, r22
    3f4c:	f7 2e       	mov	r15, r23
    3f4e:	08 2f       	mov	r16, r24
    3f50:	19 2f       	mov	r17, r25
    3f52:	d6 01       	movw	r26, r12
    3f54:	c5 01       	movw	r24, r10
    3f56:	bc 01       	movw	r22, r24
    3f58:	cd 01       	movw	r24, r26
    3f5a:	0e 94 2e 16 	call	0x2c5c	; 0x2c5c <__portable_avr_delay_cycles>
    3f5e:	80 91 01 20 	lds	r24, 0x2001
    3f62:	90 91 02 20 	lds	r25, 0x2002
    3f66:	a0 91 03 20 	lds	r26, 0x2003
    3f6a:	b0 91 04 20 	lds	r27, 0x2004
    3f6e:	cd 01       	movw	r24, r26
    3f70:	aa 27       	eor	r26, r26
    3f72:	bb 27       	eor	r27, r27
    3f74:	68 2f       	mov	r22, r24
    3f76:	80 ea       	ldi	r24, 0xA0	; 160
    3f78:	9a e0       	ldi	r25, 0x0A	; 10
    3f7a:	0e 94 5c 13 	call	0x26b8	; 0x26b8 <usart_putchar>
    3f7e:	0e 94 22 16 	call	0x2c44	; 0x2c44 <sysclk_get_cpu_hz>
    3f82:	dc 01       	movw	r26, r24
    3f84:	cb 01       	movw	r24, r22
    3f86:	5c 01       	movw	r10, r24
    3f88:	6d 01       	movw	r12, r26
    3f8a:	e1 2c       	mov	r14, r1
    3f8c:	f1 2c       	mov	r15, r1
    3f8e:	87 01       	movw	r16, r14
    3f90:	2a 2d       	mov	r18, r10
    3f92:	3b 2d       	mov	r19, r11
    3f94:	4c 2d       	mov	r20, r12
    3f96:	5d 2d       	mov	r21, r13
    3f98:	6e 2d       	mov	r22, r14
    3f9a:	7f 2d       	mov	r23, r15
    3f9c:	80 2f       	mov	r24, r16
    3f9e:	91 2f       	mov	r25, r17
    3fa0:	21 5c       	subi	r18, 0xC1	; 193
    3fa2:	3d 4b       	sbci	r19, 0xBD	; 189
    3fa4:	40 4f       	sbci	r20, 0xF0	; 240
    3fa6:	5f 4f       	sbci	r21, 0xFF	; 255
    3fa8:	6f 4f       	sbci	r22, 0xFF	; 255
    3faa:	7f 4f       	sbci	r23, 0xFF	; 255
    3fac:	8f 4f       	sbci	r24, 0xFF	; 255
    3fae:	9f 4f       	sbci	r25, 0xFF	; 255
    3fb0:	a2 2e       	mov	r10, r18
    3fb2:	b3 2e       	mov	r11, r19
    3fb4:	c4 2e       	mov	r12, r20
    3fb6:	d5 2e       	mov	r13, r21
    3fb8:	e6 2e       	mov	r14, r22
    3fba:	f7 2e       	mov	r15, r23
    3fbc:	08 2f       	mov	r16, r24
    3fbe:	19 2f       	mov	r17, r25
    3fc0:	2a 2d       	mov	r18, r10
    3fc2:	3b 2d       	mov	r19, r11
    3fc4:	4c 2d       	mov	r20, r12
    3fc6:	5d 2d       	mov	r21, r13
    3fc8:	6e 2d       	mov	r22, r14
    3fca:	7f 2d       	mov	r23, r15
    3fcc:	80 2f       	mov	r24, r16
    3fce:	91 2f       	mov	r25, r17
    3fd0:	0e 94 cd 01 	call	0x39a	; 0x39a <__floatundisf>
    3fd4:	dc 01       	movw	r26, r24
    3fd6:	cb 01       	movw	r24, r22
    3fd8:	20 e0       	ldi	r18, 0x00	; 0
    3fda:	3b e1       	ldi	r19, 0x1B	; 27
    3fdc:	47 eb       	ldi	r20, 0xB7	; 183
    3fde:	5a e4       	ldi	r21, 0x4A	; 74
    3fe0:	bc 01       	movw	r22, r24
    3fe2:	cd 01       	movw	r24, r26
    3fe4:	0e 94 48 03 	call	0x690	; 0x690 <__divsf3>
    3fe8:	dc 01       	movw	r26, r24
    3fea:	cb 01       	movw	r24, r22
    3fec:	bc 01       	movw	r22, r24
    3fee:	cd 01       	movw	r24, r26
    3ff0:	0e 94 1c 01 	call	0x238	; 0x238 <__fixunssfdi>
    3ff4:	a2 2e       	mov	r10, r18
    3ff6:	b3 2e       	mov	r11, r19
    3ff8:	c4 2e       	mov	r12, r20
    3ffa:	d5 2e       	mov	r13, r21
    3ffc:	e6 2e       	mov	r14, r22
    3ffe:	f7 2e       	mov	r15, r23
    4000:	08 2f       	mov	r16, r24
    4002:	19 2f       	mov	r17, r25
    4004:	d6 01       	movw	r26, r12
    4006:	c5 01       	movw	r24, r10
    4008:	bc 01       	movw	r22, r24
    400a:	cd 01       	movw	r24, r26
    400c:	0e 94 2e 16 	call	0x2c5c	; 0x2c5c <__portable_avr_delay_cycles>
    4010:	80 91 01 20 	lds	r24, 0x2001
    4014:	90 91 02 20 	lds	r25, 0x2002
    4018:	a0 91 03 20 	lds	r26, 0x2003
    401c:	b0 91 04 20 	lds	r27, 0x2004
    4020:	8b 2f       	mov	r24, r27
    4022:	99 27       	eor	r25, r25
    4024:	aa 27       	eor	r26, r26
    4026:	bb 27       	eor	r27, r27
    4028:	68 2f       	mov	r22, r24
    402a:	80 ea       	ldi	r24, 0xA0	; 160
    402c:	9a e0       	ldi	r25, 0x0A	; 10
    402e:	0e 94 5c 13 	call	0x26b8	; 0x26b8 <usart_putchar>
    4032:	df 91       	pop	r29
    4034:	cf 91       	pop	r28
    4036:	1f 91       	pop	r17
    4038:	0f 91       	pop	r16
    403a:	ff 90       	pop	r15
    403c:	ef 90       	pop	r14
    403e:	df 90       	pop	r13
    4040:	cf 90       	pop	r12
    4042:	bf 90       	pop	r11
    4044:	af 90       	pop	r10
    4046:	08 95       	ret

00004048 <USART_COMP_transmit_COA_count>:
    4048:	af 92       	push	r10
    404a:	bf 92       	push	r11
    404c:	cf 92       	push	r12
    404e:	df 92       	push	r13
    4050:	ef 92       	push	r14
    4052:	ff 92       	push	r15
    4054:	0f 93       	push	r16
    4056:	1f 93       	push	r17
    4058:	cf 93       	push	r28
    405a:	df 93       	push	r29
    405c:	cd b7       	in	r28, 0x3d	; 61
    405e:	de b7       	in	r29, 0x3e	; 62
    4060:	0e 94 22 16 	call	0x2c44	; 0x2c44 <sysclk_get_cpu_hz>
    4064:	dc 01       	movw	r26, r24
    4066:	cb 01       	movw	r24, r22
    4068:	5c 01       	movw	r10, r24
    406a:	6d 01       	movw	r12, r26
    406c:	e1 2c       	mov	r14, r1
    406e:	f1 2c       	mov	r15, r1
    4070:	87 01       	movw	r16, r14
    4072:	2a 2d       	mov	r18, r10
    4074:	3b 2d       	mov	r19, r11
    4076:	4c 2d       	mov	r20, r12
    4078:	5d 2d       	mov	r21, r13
    407a:	6e 2d       	mov	r22, r14
    407c:	7f 2d       	mov	r23, r15
    407e:	80 2f       	mov	r24, r16
    4080:	91 2f       	mov	r25, r17
    4082:	21 5c       	subi	r18, 0xC1	; 193
    4084:	3d 4b       	sbci	r19, 0xBD	; 189
    4086:	40 4f       	sbci	r20, 0xF0	; 240
    4088:	5f 4f       	sbci	r21, 0xFF	; 255
    408a:	6f 4f       	sbci	r22, 0xFF	; 255
    408c:	7f 4f       	sbci	r23, 0xFF	; 255
    408e:	8f 4f       	sbci	r24, 0xFF	; 255
    4090:	9f 4f       	sbci	r25, 0xFF	; 255
    4092:	a2 2e       	mov	r10, r18
    4094:	b3 2e       	mov	r11, r19
    4096:	c4 2e       	mov	r12, r20
    4098:	d5 2e       	mov	r13, r21
    409a:	e6 2e       	mov	r14, r22
    409c:	f7 2e       	mov	r15, r23
    409e:	08 2f       	mov	r16, r24
    40a0:	19 2f       	mov	r17, r25
    40a2:	2a 2d       	mov	r18, r10
    40a4:	3b 2d       	mov	r19, r11
    40a6:	4c 2d       	mov	r20, r12
    40a8:	5d 2d       	mov	r21, r13
    40aa:	6e 2d       	mov	r22, r14
    40ac:	7f 2d       	mov	r23, r15
    40ae:	80 2f       	mov	r24, r16
    40b0:	91 2f       	mov	r25, r17
    40b2:	0e 94 cd 01 	call	0x39a	; 0x39a <__floatundisf>
    40b6:	dc 01       	movw	r26, r24
    40b8:	cb 01       	movw	r24, r22
    40ba:	20 e0       	ldi	r18, 0x00	; 0
    40bc:	3b e1       	ldi	r19, 0x1B	; 27
    40be:	47 eb       	ldi	r20, 0xB7	; 183
    40c0:	5a e4       	ldi	r21, 0x4A	; 74
    40c2:	bc 01       	movw	r22, r24
    40c4:	cd 01       	movw	r24, r26
    40c6:	0e 94 48 03 	call	0x690	; 0x690 <__divsf3>
    40ca:	dc 01       	movw	r26, r24
    40cc:	cb 01       	movw	r24, r22
    40ce:	bc 01       	movw	r22, r24
    40d0:	cd 01       	movw	r24, r26
    40d2:	0e 94 1c 01 	call	0x238	; 0x238 <__fixunssfdi>
    40d6:	a2 2e       	mov	r10, r18
    40d8:	b3 2e       	mov	r11, r19
    40da:	c4 2e       	mov	r12, r20
    40dc:	d5 2e       	mov	r13, r21
    40de:	e6 2e       	mov	r14, r22
    40e0:	f7 2e       	mov	r15, r23
    40e2:	08 2f       	mov	r16, r24
    40e4:	19 2f       	mov	r17, r25
    40e6:	d6 01       	movw	r26, r12
    40e8:	c5 01       	movw	r24, r10
    40ea:	bc 01       	movw	r22, r24
    40ec:	cd 01       	movw	r24, r26
    40ee:	0e 94 2e 16 	call	0x2c5c	; 0x2c5c <__portable_avr_delay_cycles>
    40f2:	80 91 07 20 	lds	r24, 0x2007
    40f6:	68 2f       	mov	r22, r24
    40f8:	80 ea       	ldi	r24, 0xA0	; 160
    40fa:	9a e0       	ldi	r25, 0x0A	; 10
    40fc:	0e 94 5c 13 	call	0x26b8	; 0x26b8 <usart_putchar>
    4100:	0e 94 22 16 	call	0x2c44	; 0x2c44 <sysclk_get_cpu_hz>
    4104:	dc 01       	movw	r26, r24
    4106:	cb 01       	movw	r24, r22
    4108:	5c 01       	movw	r10, r24
    410a:	6d 01       	movw	r12, r26
    410c:	e1 2c       	mov	r14, r1
    410e:	f1 2c       	mov	r15, r1
    4110:	87 01       	movw	r16, r14
    4112:	2a 2d       	mov	r18, r10
    4114:	3b 2d       	mov	r19, r11
    4116:	4c 2d       	mov	r20, r12
    4118:	5d 2d       	mov	r21, r13
    411a:	6e 2d       	mov	r22, r14
    411c:	7f 2d       	mov	r23, r15
    411e:	80 2f       	mov	r24, r16
    4120:	91 2f       	mov	r25, r17
    4122:	21 5c       	subi	r18, 0xC1	; 193
    4124:	3d 4b       	sbci	r19, 0xBD	; 189
    4126:	40 4f       	sbci	r20, 0xF0	; 240
    4128:	5f 4f       	sbci	r21, 0xFF	; 255
    412a:	6f 4f       	sbci	r22, 0xFF	; 255
    412c:	7f 4f       	sbci	r23, 0xFF	; 255
    412e:	8f 4f       	sbci	r24, 0xFF	; 255
    4130:	9f 4f       	sbci	r25, 0xFF	; 255
    4132:	a2 2e       	mov	r10, r18
    4134:	b3 2e       	mov	r11, r19
    4136:	c4 2e       	mov	r12, r20
    4138:	d5 2e       	mov	r13, r21
    413a:	e6 2e       	mov	r14, r22
    413c:	f7 2e       	mov	r15, r23
    413e:	08 2f       	mov	r16, r24
    4140:	19 2f       	mov	r17, r25
    4142:	2a 2d       	mov	r18, r10
    4144:	3b 2d       	mov	r19, r11
    4146:	4c 2d       	mov	r20, r12
    4148:	5d 2d       	mov	r21, r13
    414a:	6e 2d       	mov	r22, r14
    414c:	7f 2d       	mov	r23, r15
    414e:	80 2f       	mov	r24, r16
    4150:	91 2f       	mov	r25, r17
    4152:	0e 94 cd 01 	call	0x39a	; 0x39a <__floatundisf>
    4156:	dc 01       	movw	r26, r24
    4158:	cb 01       	movw	r24, r22
    415a:	20 e0       	ldi	r18, 0x00	; 0
    415c:	3b e1       	ldi	r19, 0x1B	; 27
    415e:	47 eb       	ldi	r20, 0xB7	; 183
    4160:	5a e4       	ldi	r21, 0x4A	; 74
    4162:	bc 01       	movw	r22, r24
    4164:	cd 01       	movw	r24, r26
    4166:	0e 94 48 03 	call	0x690	; 0x690 <__divsf3>
    416a:	dc 01       	movw	r26, r24
    416c:	cb 01       	movw	r24, r22
    416e:	bc 01       	movw	r22, r24
    4170:	cd 01       	movw	r24, r26
    4172:	0e 94 1c 01 	call	0x238	; 0x238 <__fixunssfdi>
    4176:	a2 2e       	mov	r10, r18
    4178:	b3 2e       	mov	r11, r19
    417a:	c4 2e       	mov	r12, r20
    417c:	d5 2e       	mov	r13, r21
    417e:	e6 2e       	mov	r14, r22
    4180:	f7 2e       	mov	r15, r23
    4182:	08 2f       	mov	r16, r24
    4184:	19 2f       	mov	r17, r25
    4186:	d6 01       	movw	r26, r12
    4188:	c5 01       	movw	r24, r10
    418a:	bc 01       	movw	r22, r24
    418c:	cd 01       	movw	r24, r26
    418e:	0e 94 2e 16 	call	0x2c5c	; 0x2c5c <__portable_avr_delay_cycles>
    4192:	80 91 5c 20 	lds	r24, 0x205C
    4196:	90 91 5d 20 	lds	r25, 0x205D
    419a:	89 2f       	mov	r24, r25
    419c:	99 27       	eor	r25, r25
    419e:	68 2f       	mov	r22, r24
    41a0:	80 ea       	ldi	r24, 0xA0	; 160
    41a2:	9a e0       	ldi	r25, 0x0A	; 10
    41a4:	0e 94 5c 13 	call	0x26b8	; 0x26b8 <usart_putchar>
    41a8:	0e 94 22 16 	call	0x2c44	; 0x2c44 <sysclk_get_cpu_hz>
    41ac:	dc 01       	movw	r26, r24
    41ae:	cb 01       	movw	r24, r22
    41b0:	5c 01       	movw	r10, r24
    41b2:	6d 01       	movw	r12, r26
    41b4:	e1 2c       	mov	r14, r1
    41b6:	f1 2c       	mov	r15, r1
    41b8:	87 01       	movw	r16, r14
    41ba:	2a 2d       	mov	r18, r10
    41bc:	3b 2d       	mov	r19, r11
    41be:	4c 2d       	mov	r20, r12
    41c0:	5d 2d       	mov	r21, r13
    41c2:	6e 2d       	mov	r22, r14
    41c4:	7f 2d       	mov	r23, r15
    41c6:	80 2f       	mov	r24, r16
    41c8:	91 2f       	mov	r25, r17
    41ca:	21 5c       	subi	r18, 0xC1	; 193
    41cc:	3d 4b       	sbci	r19, 0xBD	; 189
    41ce:	40 4f       	sbci	r20, 0xF0	; 240
    41d0:	5f 4f       	sbci	r21, 0xFF	; 255
    41d2:	6f 4f       	sbci	r22, 0xFF	; 255
    41d4:	7f 4f       	sbci	r23, 0xFF	; 255
    41d6:	8f 4f       	sbci	r24, 0xFF	; 255
    41d8:	9f 4f       	sbci	r25, 0xFF	; 255
    41da:	a2 2e       	mov	r10, r18
    41dc:	b3 2e       	mov	r11, r19
    41de:	c4 2e       	mov	r12, r20
    41e0:	d5 2e       	mov	r13, r21
    41e2:	e6 2e       	mov	r14, r22
    41e4:	f7 2e       	mov	r15, r23
    41e6:	08 2f       	mov	r16, r24
    41e8:	19 2f       	mov	r17, r25
    41ea:	2a 2d       	mov	r18, r10
    41ec:	3b 2d       	mov	r19, r11
    41ee:	4c 2d       	mov	r20, r12
    41f0:	5d 2d       	mov	r21, r13
    41f2:	6e 2d       	mov	r22, r14
    41f4:	7f 2d       	mov	r23, r15
    41f6:	80 2f       	mov	r24, r16
    41f8:	91 2f       	mov	r25, r17
    41fa:	0e 94 cd 01 	call	0x39a	; 0x39a <__floatundisf>
    41fe:	dc 01       	movw	r26, r24
    4200:	cb 01       	movw	r24, r22
    4202:	20 e0       	ldi	r18, 0x00	; 0
    4204:	3b e1       	ldi	r19, 0x1B	; 27
    4206:	47 eb       	ldi	r20, 0xB7	; 183
    4208:	5a e4       	ldi	r21, 0x4A	; 74
    420a:	bc 01       	movw	r22, r24
    420c:	cd 01       	movw	r24, r26
    420e:	0e 94 48 03 	call	0x690	; 0x690 <__divsf3>
    4212:	dc 01       	movw	r26, r24
    4214:	cb 01       	movw	r24, r22
    4216:	bc 01       	movw	r22, r24
    4218:	cd 01       	movw	r24, r26
    421a:	0e 94 1c 01 	call	0x238	; 0x238 <__fixunssfdi>
    421e:	a2 2e       	mov	r10, r18
    4220:	b3 2e       	mov	r11, r19
    4222:	c4 2e       	mov	r12, r20
    4224:	d5 2e       	mov	r13, r21
    4226:	e6 2e       	mov	r14, r22
    4228:	f7 2e       	mov	r15, r23
    422a:	08 2f       	mov	r16, r24
    422c:	19 2f       	mov	r17, r25
    422e:	d6 01       	movw	r26, r12
    4230:	c5 01       	movw	r24, r10
    4232:	bc 01       	movw	r22, r24
    4234:	cd 01       	movw	r24, r26
    4236:	0e 94 2e 16 	call	0x2c5c	; 0x2c5c <__portable_avr_delay_cycles>
    423a:	80 91 5c 20 	lds	r24, 0x205C
    423e:	90 91 5d 20 	lds	r25, 0x205D
    4242:	68 2f       	mov	r22, r24
    4244:	80 ea       	ldi	r24, 0xA0	; 160
    4246:	9a e0       	ldi	r25, 0x0A	; 10
    4248:	0e 94 5c 13 	call	0x26b8	; 0x26b8 <usart_putchar>
    424c:	df 91       	pop	r29
    424e:	cf 91       	pop	r28
    4250:	1f 91       	pop	r17
    4252:	0f 91       	pop	r16
    4254:	ff 90       	pop	r15
    4256:	ef 90       	pop	r14
    4258:	df 90       	pop	r13
    425a:	cf 90       	pop	r12
    425c:	bf 90       	pop	r11
    425e:	af 90       	pop	r10
    4260:	08 95       	ret

00004262 <EVSYS_SetEventSource>:
    4262:	cf 93       	push	r28
    4264:	df 93       	push	r29
    4266:	cd b7       	in	r28, 0x3d	; 61
    4268:	de b7       	in	r29, 0x3e	; 62
    426a:	25 97       	sbiw	r28, 0x05	; 5
    426c:	cd bf       	out	0x3d, r28	; 61
    426e:	de bf       	out	0x3e, r29	; 62
    4270:	8b 83       	std	Y+3, r24	; 0x03
    4272:	6c 83       	std	Y+4, r22	; 0x04
    4274:	7d 83       	std	Y+5, r23	; 0x05
    4276:	8b 81       	ldd	r24, Y+3	; 0x03
    4278:	88 30       	cpi	r24, 0x08	; 8
    427a:	70 f4       	brcc	.+28     	; 0x4298 <EVSYS_SetEventSource+0x36>
    427c:	8b 81       	ldd	r24, Y+3	; 0x03
    427e:	88 2f       	mov	r24, r24
    4280:	90 e0       	ldi	r25, 0x00	; 0
    4282:	80 58       	subi	r24, 0x80	; 128
    4284:	9e 4f       	sbci	r25, 0xFE	; 254
    4286:	89 83       	std	Y+1, r24	; 0x01
    4288:	9a 83       	std	Y+2, r25	; 0x02
    428a:	2c 81       	ldd	r18, Y+4	; 0x04
    428c:	89 81       	ldd	r24, Y+1	; 0x01
    428e:	9a 81       	ldd	r25, Y+2	; 0x02
    4290:	fc 01       	movw	r30, r24
    4292:	20 83       	st	Z, r18
    4294:	81 e0       	ldi	r24, 0x01	; 1
    4296:	01 c0       	rjmp	.+2      	; 0x429a <EVSYS_SetEventSource+0x38>
    4298:	80 e0       	ldi	r24, 0x00	; 0
    429a:	25 96       	adiw	r28, 0x05	; 5
    429c:	cd bf       	out	0x3d, r28	; 61
    429e:	de bf       	out	0x3e, r29	; 62
    42a0:	df 91       	pop	r29
    42a2:	cf 91       	pop	r28
    42a4:	08 95       	ret

000042a6 <EVSYS_SetEventChannelFilter>:
    42a6:	cf 93       	push	r28
    42a8:	df 93       	push	r29
    42aa:	cd b7       	in	r28, 0x3d	; 61
    42ac:	de b7       	in	r29, 0x3e	; 62
    42ae:	25 97       	sbiw	r28, 0x05	; 5
    42b0:	cd bf       	out	0x3d, r28	; 61
    42b2:	de bf       	out	0x3e, r29	; 62
    42b4:	8b 83       	std	Y+3, r24	; 0x03
    42b6:	6c 83       	std	Y+4, r22	; 0x04
    42b8:	7d 83       	std	Y+5, r23	; 0x05
    42ba:	8b 81       	ldd	r24, Y+3	; 0x03
    42bc:	88 30       	cpi	r24, 0x08	; 8
    42be:	70 f4       	brcc	.+28     	; 0x42dc <EVSYS_SetEventChannelFilter+0x36>
    42c0:	8b 81       	ldd	r24, Y+3	; 0x03
    42c2:	88 2f       	mov	r24, r24
    42c4:	90 e0       	ldi	r25, 0x00	; 0
    42c6:	88 57       	subi	r24, 0x78	; 120
    42c8:	9e 4f       	sbci	r25, 0xFE	; 254
    42ca:	89 83       	std	Y+1, r24	; 0x01
    42cc:	9a 83       	std	Y+2, r25	; 0x02
    42ce:	2c 81       	ldd	r18, Y+4	; 0x04
    42d0:	89 81       	ldd	r24, Y+1	; 0x01
    42d2:	9a 81       	ldd	r25, Y+2	; 0x02
    42d4:	fc 01       	movw	r30, r24
    42d6:	20 83       	st	Z, r18
    42d8:	81 e0       	ldi	r24, 0x01	; 1
    42da:	01 c0       	rjmp	.+2      	; 0x42de <EVSYS_SetEventChannelFilter+0x38>
    42dc:	80 e0       	ldi	r24, 0x00	; 0
    42de:	25 96       	adiw	r28, 0x05	; 5
    42e0:	cd bf       	out	0x3d, r28	; 61
    42e2:	de bf       	out	0x3e, r29	; 62
    42e4:	df 91       	pop	r29
    42e6:	cf 91       	pop	r28
    42e8:	08 95       	ret

000042ea <COA_set_timeInterval>:
    42ea:	cf 93       	push	r28
    42ec:	df 93       	push	r29
    42ee:	00 d0       	rcall	.+0      	; 0x42f0 <COA_set_timeInterval+0x6>
    42f0:	cd b7       	in	r28, 0x3d	; 61
    42f2:	de b7       	in	r29, 0x3e	; 62
    42f4:	89 83       	std	Y+1, r24	; 0x01
    42f6:	6a 83       	std	Y+2, r22	; 0x02
    42f8:	89 81       	ldd	r24, Y+1	; 0x01
    42fa:	88 2f       	mov	r24, r24
    42fc:	90 e0       	ldi	r25, 0x00	; 0
    42fe:	38 2f       	mov	r19, r24
    4300:	22 27       	eor	r18, r18
    4302:	8a 81       	ldd	r24, Y+2	; 0x02
    4304:	88 2f       	mov	r24, r24
    4306:	90 e0       	ldi	r25, 0x00	; 0
    4308:	82 0f       	add	r24, r18
    430a:	93 1f       	adc	r25, r19
    430c:	80 93 05 20 	sts	0x2005, r24
    4310:	90 93 06 20 	sts	0x2006, r25
    4314:	80 e0       	ldi	r24, 0x00	; 0
    4316:	94 e0       	ldi	r25, 0x04	; 4
    4318:	20 91 05 20 	lds	r18, 0x2005
    431c:	30 91 06 20 	lds	r19, 0x2006
    4320:	fc 01       	movw	r30, r24
    4322:	22 87       	std	Z+10, r18	; 0x0a
    4324:	33 87       	std	Z+11, r19	; 0x0b
    4326:	0f 90       	pop	r0
    4328:	0f 90       	pop	r0
    432a:	df 91       	pop	r29
    432c:	cf 91       	pop	r28
    432e:	08 95       	ret

00004330 <COA_start>:
void COA_start(void)
{
    4330:	cf 93       	push	r28
    4332:	df 93       	push	r29
    4334:	cd b7       	in	r28, 0x3d	; 61
    4336:	de b7       	in	r29, 0x3e	; 62
	//:      
	TCD0.CNT = 0;
    4338:	80 e0       	ldi	r24, 0x00	; 0
    433a:	99 e0       	ldi	r25, 0x09	; 9
    433c:	fc 01       	movw	r30, r24
    433e:	10 a2       	std	Z+32, r1	; 0x20
    4340:	11 a2       	std	Z+33, r1	; 0x21
	TCD1.CNT = 0;
    4342:	80 e4       	ldi	r24, 0x40	; 64
    4344:	99 e0       	ldi	r25, 0x09	; 9
    4346:	fc 01       	movw	r30, r24
    4348:	10 a2       	std	Z+32, r1	; 0x20
    434a:	11 a2       	std	Z+33, r1	; 0x21
	RTC.CNT = 0;
    434c:	80 e0       	ldi	r24, 0x00	; 0
    434e:	94 e0       	ldi	r25, 0x04	; 4
    4350:	fc 01       	movw	r30, r24
    4352:	10 86       	std	Z+8, r1	; 0x08
    4354:	11 86       	std	Z+9, r1	; 0x09
	COA_ovf = 0;
    4356:	10 92 60 20 	sts	0x2060, r1
	COA_setStatus_busy;
    435a:	88 e0       	ldi	r24, 0x08	; 8
    435c:	80 93 07 20 	sts	0x2007, r24
	gpio_set_pin_high(A2);	// 
    4360:	61 e0       	ldi	r22, 0x01	; 1
    4362:	82 e0       	ldi	r24, 0x02	; 2
    4364:	0e 94 34 16 	call	0x2c68	; 0x2c68 <ioport_set_value>
	tc_write_clock_source(&TCD0,TC_CLKSEL_EVCH0_gc);
    4368:	68 e0       	ldi	r22, 0x08	; 8
    436a:	70 e0       	ldi	r23, 0x00	; 0
    436c:	80 e0       	ldi	r24, 0x00	; 0
    436e:	99 e0       	ldi	r25, 0x09	; 9
    4370:	0e 94 30 17 	call	0x2e60	; 0x2e60 <tc_write_clock_source>
	tc_write_clock_source(&TCD1,TC_CLKSEL_EVCH1_gc);
    4374:	69 e0       	ldi	r22, 0x09	; 9
    4376:	70 e0       	ldi	r23, 0x00	; 0
    4378:	80 e4       	ldi	r24, 0x40	; 64
    437a:	99 e0       	ldi	r25, 0x09	; 9
    437c:	0e 94 30 17 	call	0x2e60	; 0x2e60 <tc_write_clock_source>
	RTC.CTRL = RTC_PRESCALER_DIV1_gc;
    4380:	80 e0       	ldi	r24, 0x00	; 0
    4382:	94 e0       	ldi	r25, 0x04	; 4
    4384:	21 e0       	ldi	r18, 0x01	; 1
    4386:	fc 01       	movw	r30, r24
    4388:	20 83       	st	Z, r18
	gpio_set_pin_high(A3);	// 
    438a:	61 e0       	ldi	r22, 0x01	; 1
    438c:	83 e0       	ldi	r24, 0x03	; 3
    438e:	0e 94 34 16 	call	0x2c68	; 0x2c68 <ioport_set_value>
}
    4392:	df 91       	pop	r29
    4394:	cf 91       	pop	r28
    4396:	08 95       	ret

00004398 <COA_stop>:
void COA_stop(void)
{
    4398:	cf 93       	push	r28
    439a:	df 93       	push	r29
    439c:	cd b7       	in	r28, 0x3d	; 61
    439e:	de b7       	in	r29, 0x3e	; 62
	//:   
	tc_write_clock_source(&TCD0, TC_CLKSEL_OFF_gc);
    43a0:	60 e0       	ldi	r22, 0x00	; 0
    43a2:	70 e0       	ldi	r23, 0x00	; 0
    43a4:	80 e0       	ldi	r24, 0x00	; 0
    43a6:	99 e0       	ldi	r25, 0x09	; 9
    43a8:	0e 94 30 17 	call	0x2e60	; 0x2e60 <tc_write_clock_source>
	tc_write_clock_source(&TCD1, TC_CLKSEL_OFF_gc);
    43ac:	60 e0       	ldi	r22, 0x00	; 0
    43ae:	70 e0       	ldi	r23, 0x00	; 0
    43b0:	80 e4       	ldi	r24, 0x40	; 64
    43b2:	99 e0       	ldi	r25, 0x09	; 9
    43b4:	0e 94 30 17 	call	0x2e60	; 0x2e60 <tc_write_clock_source>
	RTC.CTRL = RTC_PRESCALER_OFF_gc;
    43b8:	80 e0       	ldi	r24, 0x00	; 0
    43ba:	94 e0       	ldi	r25, 0x04	; 4
    43bc:	fc 01       	movw	r30, r24
    43be:	10 82       	st	Z, r1
	RTC.CNT = 0;
    43c0:	80 e0       	ldi	r24, 0x00	; 0
    43c2:	94 e0       	ldi	r25, 0x04	; 4
    43c4:	fc 01       	movw	r30, r24
    43c6:	10 86       	std	Z+8, r1	; 0x08
    43c8:	11 86       	std	Z+9, r1	; 0x09
	COA_setStatus_stunned;
    43ca:	89 e0       	ldi	r24, 0x09	; 9
    43cc:	80 93 07 20 	sts	0x2007, r24
}
    43d0:	df 91       	pop	r29
    43d2:	cf 91       	pop	r28
    43d4:	08 95       	ret

000043d6 <main>:

//------------------------------------- -------------------------------------------
int main (void)
{
    43d6:	2f 92       	push	r2
    43d8:	3f 92       	push	r3
    43da:	4f 92       	push	r4
    43dc:	5f 92       	push	r5
    43de:	6f 92       	push	r6
    43e0:	7f 92       	push	r7
    43e2:	8f 92       	push	r8
    43e4:	9f 92       	push	r9
    43e6:	af 92       	push	r10
    43e8:	bf 92       	push	r11
    43ea:	cf 92       	push	r12
    43ec:	df 92       	push	r13
    43ee:	ef 92       	push	r14
    43f0:	ff 92       	push	r15
    43f2:	0f 93       	push	r16
    43f4:	1f 93       	push	r17
    43f6:	cf 93       	push	r28
    43f8:	df 93       	push	r29
    43fa:	cd b7       	in	r28, 0x3d	; 61
    43fc:	de b7       	in	r29, 0x3e	; 62
    43fe:	c9 59       	subi	r28, 0x99	; 153
    4400:	d1 09       	sbc	r29, r1
    4402:	cd bf       	out	0x3d, r28	; 61
    4404:	de bf       	out	0x3e, r29	; 62
	board_init();						// 
    4406:	0e 94 89 2e 	call	0x5d12	; 0x5d12 <board_init>
	SYSCLK_init;						//  (32)
    440a:	82 e0       	ldi	r24, 0x02	; 2
    440c:	0e 94 ab 15 	call	0x2b56	; 0x2b56 <osc_enable>
    4410:	82 e0       	ldi	r24, 0x02	; 2
    4412:	0e 94 d1 15 	call	0x2ba2	; 0x2ba2 <osc_wait_ready>
    4416:	61 e0       	ldi	r22, 0x01	; 1
    4418:	80 e4       	ldi	r24, 0x40	; 64
    441a:	90 e0       	ldi	r25, 0x00	; 0
    441c:	0e 94 f1 0a 	call	0x15e2	; 0x15e2 <ccp_write_io>
    4420:	81 e0       	ldi	r24, 0x01	; 1
    4422:	0e 94 90 15 	call	0x2b20	; 0x2b20 <osc_disable>
	pmic_init();						//  
    4426:	0e 94 c5 16 	call	0x2d8a	; 0x2d8a <pmic_init>
	SPI_init;							//  SPI
    442a:	80 ec       	ldi	r24, 0xC0	; 192
    442c:	98 e0       	ldi	r25, 0x08	; 8
    442e:	0e 94 66 0a 	call	0x14cc	; 0x14cc <spi_master_init>
    4432:	80 ec       	ldi	r24, 0xC0	; 192
    4434:	98 e0       	ldi	r25, 0x08	; 8
    4436:	0e 94 d1 16 	call	0x2da2	; 0x2da2 <spi_enable>
	RTC_init;							//   
    443a:	0e 94 36 0b 	call	0x166c	; 0x166c <rtc_init>
    443e:	80 e4       	ldi	r24, 0x40	; 64
    4440:	90 e0       	ldi	r25, 0x00	; 0
    4442:	2d e0       	ldi	r18, 0x0D	; 13
    4444:	fc 01       	movw	r30, r24
    4446:	23 83       	std	Z+3, r18	; 0x03
	Counters_init;						//  
    4448:	61 e0       	ldi	r22, 0x01	; 1
    444a:	70 e0       	ldi	r23, 0x00	; 0
    444c:	80 e0       	ldi	r24, 0x00	; 0
    444e:	99 e0       	ldi	r25, 0x09	; 9
    4450:	0e 94 0b 17 	call	0x2e16	; 0x2e16 <tc_set_overflow_interrupt_level>
	USART_COMP_init;					// USART  
    4454:	68 e0       	ldi	r22, 0x08	; 8
    4456:	70 e2       	ldi	r23, 0x20	; 32
    4458:	80 ea       	ldi	r24, 0xA0	; 160
    445a:	9a e0       	ldi	r25, 0x0A	; 10
    445c:	0e 94 14 13 	call	0x2628	; 0x2628 <usart_init_rs232>
    4460:	62 e0       	ldi	r22, 0x02	; 2
    4462:	70 e0       	ldi	r23, 0x00	; 0
    4464:	80 ea       	ldi	r24, 0xA0	; 160
    4466:	9a e0       	ldi	r25, 0x0A	; 10
    4468:	0e 94 4d 17 	call	0x2e9a	; 0x2e9a <usart_set_rx_interrupt_level>
	//  
	PORTD.PIN5CTRL = PORT_ISC_RISING_gc;
    446c:	80 e6       	ldi	r24, 0x60	; 96
    446e:	96 e0       	ldi	r25, 0x06	; 6
    4470:	21 e0       	ldi	r18, 0x01	; 1
    4472:	fc 01       	movw	r30, r24
    4474:	25 8b       	std	Z+21, r18	; 0x15
	//PORTD.DIRCLR = 0x01;
	EVSYS_SetEventSource( 0, EVSYS_CHMUX_PORTD_PIN5_gc );
    4476:	6d e6       	ldi	r22, 0x6D	; 109
    4478:	70 e0       	ldi	r23, 0x00	; 0
    447a:	80 e0       	ldi	r24, 0x00	; 0
    447c:	f2 de       	rcall	.-540    	; 0x4262 <EVSYS_SetEventSource>
	EVSYS_SetEventChannelFilter( 0, EVSYS_DIGFILT_8SAMPLES_gc );
    447e:	67 e0       	ldi	r22, 0x07	; 7
    4480:	70 e0       	ldi	r23, 0x00	; 0
    4482:	80 e0       	ldi	r24, 0x00	; 0
    4484:	10 df       	rcall	.-480    	; 0x42a6 <EVSYS_SetEventChannelFilter>
	//  
	EVSYS_SetEventSource(1, EVSYS_CHMUX_TCD0_OVF_gc);
    4486:	60 ed       	ldi	r22, 0xD0	; 208
    4488:	70 e0       	ldi	r23, 0x00	; 0
    448a:	81 e0       	ldi	r24, 0x01	; 1
    448c:	ea de       	rcall	.-556    	; 0x4262 <EVSYS_SetEventSource>
	EVSYS_SetEventChannelFilter( 1, EVSYS_DIGFILT_8SAMPLES_gc );
    448e:	67 e0       	ldi	r22, 0x07	; 7
    4490:	70 e0       	ldi	r23, 0x00	; 0
    4492:	81 e0       	ldi	r24, 0x01	; 1
    4494:	08 df       	rcall	.-496    	; 0x42a6 <EVSYS_SetEventChannelFilter>
	
	MC_status = 1;						// 
    4496:	81 e0       	ldi	r24, 0x01	; 1
    4498:	80 93 4c 20 	sts	0x204C, r24
	MC_error = 1;						// 
    449c:	81 e0       	ldi	r24, 0x01	; 1
    449e:	80 93 4d 20 	sts	0x204D, r24
	cpu_irq_enable();					// 	
    44a2:	78 94       	sei
	
	gpio_set_pin_low(A2);
    44a4:	60 e0       	ldi	r22, 0x00	; 0
    44a6:	82 e0       	ldi	r24, 0x02	; 2
    44a8:	0e 94 34 16 	call	0x2c68	; 0x2c68 <ioport_set_value>
	gpio_set_pin_low(A3);
    44ac:	60 e0       	ldi	r22, 0x00	; 0
    44ae:	83 e0       	ldi	r24, 0x03	; 3
    44b0:	0e 94 34 16 	call	0x2c68	; 0x2c68 <ioport_set_value>
	// 
	//uint16_t duoByte;
	while (1) 
	{
		switch (MC_status)
    44b4:	80 91 4c 20 	lds	r24, 0x204C
    44b8:	88 2f       	mov	r24, r24
    44ba:	90 e0       	ldi	r25, 0x00	; 0
    44bc:	82 30       	cpi	r24, 0x02	; 2
    44be:	91 05       	cpc	r25, r1
    44c0:	11 f4       	brne	.+4      	; 0x44c6 <main+0xf0>
    44c2:	0c 94 84 2e 	jmp	0x5d08	; 0x5d08 <main+0x1932>
    44c6:	83 30       	cpi	r24, 0x03	; 3
    44c8:	91 05       	cpc	r25, r1
    44ca:	2c f4       	brge	.+10     	; 0x44d6 <main+0x100>
    44cc:	81 30       	cpi	r24, 0x01	; 1
    44ce:	91 05       	cpc	r25, r1
    44d0:	69 f0       	breq	.+26     	; 0x44ec <main+0x116>
    44d2:	0c 94 87 2e 	jmp	0x5d0e	; 0x5d0e <main+0x1938>
    44d6:	83 30       	cpi	r24, 0x03	; 3
    44d8:	91 05       	cpc	r25, r1
    44da:	11 f4       	brne	.+4      	; 0x44e0 <main+0x10a>
    44dc:	0c 94 86 2e 	jmp	0x5d0c	; 0x5d0c <main+0x1936>
    44e0:	84 30       	cpi	r24, 0x04	; 4
    44e2:	91 05       	cpc	r25, r1
    44e4:	09 f4       	brne	.+2      	; 0x44e8 <main+0x112>
    44e6:	3d c1       	rjmp	.+634    	; 0x4762 <main+0x38c>
    44e8:	0c 94 87 2e 	jmp	0x5d0e	; 0x5d0e <main+0x1938>
		{
			case 1: delay_ms(1000);
    44ec:	0e 94 22 16 	call	0x2c44	; 0x2c44 <sysclk_get_cpu_hz>
    44f0:	dc 01       	movw	r26, r24
    44f2:	cb 01       	movw	r24, r22
    44f4:	8c 01       	movw	r16, r24
    44f6:	9d 01       	movw	r18, r26
    44f8:	40 e0       	ldi	r20, 0x00	; 0
    44fa:	50 e0       	ldi	r21, 0x00	; 0
    44fc:	ba 01       	movw	r22, r20
    44fe:	0a 83       	std	Y+2, r16	; 0x02
    4500:	1b 83       	std	Y+3, r17	; 0x03
    4502:	2c 83       	std	Y+4, r18	; 0x04
    4504:	3d 83       	std	Y+5, r19	; 0x05
    4506:	4e 83       	std	Y+6, r20	; 0x06
    4508:	5f 83       	std	Y+7, r21	; 0x07
    450a:	68 87       	std	Y+8, r22	; 0x08
    450c:	79 87       	std	Y+9, r23	; 0x09
    450e:	1a 81       	ldd	r17, Y+2	; 0x02
    4510:	23 96       	adiw	r28, 0x03	; 3
    4512:	1f af       	std	Y+63, r17	; 0x3f
    4514:	23 97       	sbiw	r28, 0x03	; 3
    4516:	2b 81       	ldd	r18, Y+3	; 0x03
    4518:	24 96       	adiw	r28, 0x04	; 4
    451a:	2f af       	std	Y+63, r18	; 0x3f
    451c:	24 97       	sbiw	r28, 0x04	; 4
    451e:	3c 81       	ldd	r19, Y+4	; 0x04
    4520:	25 96       	adiw	r28, 0x05	; 5
    4522:	3f af       	std	Y+63, r19	; 0x3f
    4524:	25 97       	sbiw	r28, 0x05	; 5
    4526:	4d 81       	ldd	r20, Y+5	; 0x05
    4528:	26 96       	adiw	r28, 0x06	; 6
    452a:	4f af       	std	Y+63, r20	; 0x3f
    452c:	26 97       	sbiw	r28, 0x06	; 6
    452e:	5e 81       	ldd	r21, Y+6	; 0x06
    4530:	27 96       	adiw	r28, 0x07	; 7
    4532:	5f af       	std	Y+63, r21	; 0x3f
    4534:	27 97       	sbiw	r28, 0x07	; 7
    4536:	6f 81       	ldd	r22, Y+7	; 0x07
    4538:	28 96       	adiw	r28, 0x08	; 8
    453a:	6f af       	std	Y+63, r22	; 0x3f
    453c:	28 97       	sbiw	r28, 0x08	; 8
    453e:	78 85       	ldd	r23, Y+8	; 0x08
    4540:	29 96       	adiw	r28, 0x09	; 9
    4542:	7f af       	std	Y+63, r23	; 0x3f
    4544:	29 97       	sbiw	r28, 0x09	; 9
    4546:	89 85       	ldd	r24, Y+9	; 0x09
    4548:	2a 96       	adiw	r28, 0x0a	; 10
    454a:	8f af       	std	Y+63, r24	; 0x3f
    454c:	2a 97       	sbiw	r28, 0x0a	; 10
    454e:	23 96       	adiw	r28, 0x03	; 3
    4550:	2f ad       	ldd	r18, Y+63	; 0x3f
    4552:	23 97       	sbiw	r28, 0x03	; 3
    4554:	24 96       	adiw	r28, 0x04	; 4
    4556:	3f ad       	ldd	r19, Y+63	; 0x3f
    4558:	24 97       	sbiw	r28, 0x04	; 4
    455a:	25 96       	adiw	r28, 0x05	; 5
    455c:	4f ad       	ldd	r20, Y+63	; 0x3f
    455e:	25 97       	sbiw	r28, 0x05	; 5
    4560:	26 96       	adiw	r28, 0x06	; 6
    4562:	5f ad       	ldd	r21, Y+63	; 0x3f
    4564:	26 97       	sbiw	r28, 0x06	; 6
    4566:	27 96       	adiw	r28, 0x07	; 7
    4568:	6f ad       	ldd	r22, Y+63	; 0x3f
    456a:	27 97       	sbiw	r28, 0x07	; 7
    456c:	28 96       	adiw	r28, 0x08	; 8
    456e:	7f ad       	ldd	r23, Y+63	; 0x3f
    4570:	28 97       	sbiw	r28, 0x08	; 8
    4572:	29 96       	adiw	r28, 0x09	; 9
    4574:	8f ad       	ldd	r24, Y+63	; 0x3f
    4576:	29 97       	sbiw	r28, 0x09	; 9
    4578:	2a 96       	adiw	r28, 0x0a	; 10
    457a:	9f ad       	ldd	r25, Y+63	; 0x3f
    457c:	2a 97       	sbiw	r28, 0x0a	; 10
    457e:	02 e0       	ldi	r16, 0x02	; 2
    4580:	0e 94 61 2f 	call	0x5ec2	; 0x5ec2 <__ashldi3>
    4584:	a2 2e       	mov	r10, r18
    4586:	b3 2e       	mov	r11, r19
    4588:	c4 2e       	mov	r12, r20
    458a:	d5 2e       	mov	r13, r21
    458c:	e6 2e       	mov	r14, r22
    458e:	f7 2e       	mov	r15, r23
    4590:	08 2f       	mov	r16, r24
    4592:	19 2f       	mov	r17, r25
    4594:	23 96       	adiw	r28, 0x03	; 3
    4596:	af ae       	std	Y+63, r10	; 0x3f
    4598:	23 97       	sbiw	r28, 0x03	; 3
    459a:	24 96       	adiw	r28, 0x04	; 4
    459c:	bf ae       	std	Y+63, r11	; 0x3f
    459e:	24 97       	sbiw	r28, 0x04	; 4
    45a0:	25 96       	adiw	r28, 0x05	; 5
    45a2:	cf ae       	std	Y+63, r12	; 0x3f
    45a4:	25 97       	sbiw	r28, 0x05	; 5
    45a6:	26 96       	adiw	r28, 0x06	; 6
    45a8:	df ae       	std	Y+63, r13	; 0x3f
    45aa:	26 97       	sbiw	r28, 0x06	; 6
    45ac:	27 96       	adiw	r28, 0x07	; 7
    45ae:	ef ae       	std	Y+63, r14	; 0x3f
    45b0:	27 97       	sbiw	r28, 0x07	; 7
    45b2:	28 96       	adiw	r28, 0x08	; 8
    45b4:	ff ae       	std	Y+63, r15	; 0x3f
    45b6:	28 97       	sbiw	r28, 0x08	; 8
    45b8:	29 96       	adiw	r28, 0x09	; 9
    45ba:	0f af       	std	Y+63, r16	; 0x3f
    45bc:	29 97       	sbiw	r28, 0x09	; 9
    45be:	2a 96       	adiw	r28, 0x0a	; 10
    45c0:	1f af       	std	Y+63, r17	; 0x3f
    45c2:	2a 97       	sbiw	r28, 0x0a	; 10
    45c4:	23 96       	adiw	r28, 0x03	; 3
    45c6:	2f ad       	ldd	r18, Y+63	; 0x3f
    45c8:	23 97       	sbiw	r28, 0x03	; 3
    45ca:	24 96       	adiw	r28, 0x04	; 4
    45cc:	3f ad       	ldd	r19, Y+63	; 0x3f
    45ce:	24 97       	sbiw	r28, 0x04	; 4
    45d0:	25 96       	adiw	r28, 0x05	; 5
    45d2:	4f ad       	ldd	r20, Y+63	; 0x3f
    45d4:	25 97       	sbiw	r28, 0x05	; 5
    45d6:	26 96       	adiw	r28, 0x06	; 6
    45d8:	5f ad       	ldd	r21, Y+63	; 0x3f
    45da:	26 97       	sbiw	r28, 0x06	; 6
    45dc:	27 96       	adiw	r28, 0x07	; 7
    45de:	6f ad       	ldd	r22, Y+63	; 0x3f
    45e0:	27 97       	sbiw	r28, 0x07	; 7
    45e2:	28 96       	adiw	r28, 0x08	; 8
    45e4:	7f ad       	ldd	r23, Y+63	; 0x3f
    45e6:	28 97       	sbiw	r28, 0x08	; 8
    45e8:	29 96       	adiw	r28, 0x09	; 9
    45ea:	8f ad       	ldd	r24, Y+63	; 0x3f
    45ec:	29 97       	sbiw	r28, 0x09	; 9
    45ee:	2a 96       	adiw	r28, 0x0a	; 10
    45f0:	9f ad       	ldd	r25, Y+63	; 0x3f
    45f2:	2a 97       	sbiw	r28, 0x0a	; 10
    45f4:	05 e0       	ldi	r16, 0x05	; 5
    45f6:	0e 94 61 2f 	call	0x5ec2	; 0x5ec2 <__ashldi3>
    45fa:	22 2e       	mov	r2, r18
    45fc:	33 2e       	mov	r3, r19
    45fe:	44 2e       	mov	r4, r20
    4600:	55 2e       	mov	r5, r21
    4602:	66 2e       	mov	r6, r22
    4604:	77 2e       	mov	r7, r23
    4606:	88 2e       	mov	r8, r24
    4608:	99 2e       	mov	r9, r25
    460a:	22 2d       	mov	r18, r2
    460c:	33 2d       	mov	r19, r3
    460e:	44 2d       	mov	r20, r4
    4610:	55 2d       	mov	r21, r5
    4612:	66 2d       	mov	r22, r6
    4614:	77 2d       	mov	r23, r7
    4616:	88 2d       	mov	r24, r8
    4618:	99 2d       	mov	r25, r9
    461a:	23 96       	adiw	r28, 0x03	; 3
    461c:	af ac       	ldd	r10, Y+63	; 0x3f
    461e:	23 97       	sbiw	r28, 0x03	; 3
    4620:	24 96       	adiw	r28, 0x04	; 4
    4622:	bf ac       	ldd	r11, Y+63	; 0x3f
    4624:	24 97       	sbiw	r28, 0x04	; 4
    4626:	25 96       	adiw	r28, 0x05	; 5
    4628:	cf ac       	ldd	r12, Y+63	; 0x3f
    462a:	25 97       	sbiw	r28, 0x05	; 5
    462c:	26 96       	adiw	r28, 0x06	; 6
    462e:	df ac       	ldd	r13, Y+63	; 0x3f
    4630:	26 97       	sbiw	r28, 0x06	; 6
    4632:	27 96       	adiw	r28, 0x07	; 7
    4634:	ef ac       	ldd	r14, Y+63	; 0x3f
    4636:	27 97       	sbiw	r28, 0x07	; 7
    4638:	28 96       	adiw	r28, 0x08	; 8
    463a:	ff ac       	ldd	r15, Y+63	; 0x3f
    463c:	28 97       	sbiw	r28, 0x08	; 8
    463e:	29 96       	adiw	r28, 0x09	; 9
    4640:	0f ad       	ldd	r16, Y+63	; 0x3f
    4642:	29 97       	sbiw	r28, 0x09	; 9
    4644:	2a 96       	adiw	r28, 0x0a	; 10
    4646:	1f ad       	ldd	r17, Y+63	; 0x3f
    4648:	2a 97       	sbiw	r28, 0x0a	; 10
    464a:	0e 94 79 2f 	call	0x5ef2	; 0x5ef2 <__subdi3>
    464e:	22 2e       	mov	r2, r18
    4650:	33 2e       	mov	r3, r19
    4652:	44 2e       	mov	r4, r20
    4654:	55 2e       	mov	r5, r21
    4656:	66 2e       	mov	r6, r22
    4658:	77 2e       	mov	r7, r23
    465a:	88 2e       	mov	r8, r24
    465c:	99 2e       	mov	r9, r25
    465e:	22 2d       	mov	r18, r2
    4660:	33 2d       	mov	r19, r3
    4662:	44 2d       	mov	r20, r4
    4664:	55 2d       	mov	r21, r5
    4666:	66 2d       	mov	r22, r6
    4668:	77 2d       	mov	r23, r7
    466a:	88 2d       	mov	r24, r8
    466c:	99 2d       	mov	r25, r9
    466e:	aa 80       	ldd	r10, Y+2	; 0x02
    4670:	bb 80       	ldd	r11, Y+3	; 0x03
    4672:	cc 80       	ldd	r12, Y+4	; 0x04
    4674:	dd 80       	ldd	r13, Y+5	; 0x05
    4676:	ee 80       	ldd	r14, Y+6	; 0x06
    4678:	ff 80       	ldd	r15, Y+7	; 0x07
    467a:	08 85       	ldd	r16, Y+8	; 0x08
    467c:	19 85       	ldd	r17, Y+9	; 0x09
    467e:	0e 94 70 2f 	call	0x5ee0	; 0x5ee0 <__adddi3>
    4682:	22 2e       	mov	r2, r18
    4684:	33 2e       	mov	r3, r19
    4686:	44 2e       	mov	r4, r20
    4688:	55 2e       	mov	r5, r21
    468a:	66 2e       	mov	r6, r22
    468c:	77 2e       	mov	r7, r23
    468e:	88 2e       	mov	r8, r24
    4690:	99 2e       	mov	r9, r25
    4692:	22 2d       	mov	r18, r2
    4694:	33 2d       	mov	r19, r3
    4696:	44 2d       	mov	r20, r4
    4698:	55 2d       	mov	r21, r5
    469a:	66 2d       	mov	r22, r6
    469c:	77 2d       	mov	r23, r7
    469e:	88 2d       	mov	r24, r8
    46a0:	99 2d       	mov	r25, r9
    46a2:	03 e0       	ldi	r16, 0x03	; 3
    46a4:	0e 94 61 2f 	call	0x5ec2	; 0x5ec2 <__ashldi3>
    46a8:	a2 2e       	mov	r10, r18
    46aa:	b3 2e       	mov	r11, r19
    46ac:	c4 2e       	mov	r12, r20
    46ae:	d5 2e       	mov	r13, r21
    46b0:	e6 2e       	mov	r14, r22
    46b2:	f7 2e       	mov	r15, r23
    46b4:	08 2f       	mov	r16, r24
    46b6:	19 2f       	mov	r17, r25
    46b8:	2a 2c       	mov	r2, r10
    46ba:	3b 2c       	mov	r3, r11
    46bc:	4c 2c       	mov	r4, r12
    46be:	5d 2c       	mov	r5, r13
    46c0:	6e 2c       	mov	r6, r14
    46c2:	7f 2c       	mov	r7, r15
    46c4:	80 2e       	mov	r8, r16
    46c6:	91 2e       	mov	r9, r17
    46c8:	a2 2c       	mov	r10, r2
    46ca:	b3 2c       	mov	r11, r3
    46cc:	c4 2c       	mov	r12, r4
    46ce:	d5 2c       	mov	r13, r5
    46d0:	e6 2c       	mov	r14, r6
    46d2:	f7 2c       	mov	r15, r7
    46d4:	08 2d       	mov	r16, r8
    46d6:	19 2d       	mov	r17, r9
    46d8:	2a 2d       	mov	r18, r10
    46da:	3b 2d       	mov	r19, r11
    46dc:	4c 2d       	mov	r20, r12
    46de:	5d 2d       	mov	r21, r13
    46e0:	6e 2d       	mov	r22, r14
    46e2:	7f 2d       	mov	r23, r15
    46e4:	80 2f       	mov	r24, r16
    46e6:	91 2f       	mov	r25, r17
    46e8:	29 51       	subi	r18, 0x19	; 25
    46ea:	3c 4f       	sbci	r19, 0xFC	; 252
    46ec:	4f 4f       	sbci	r20, 0xFF	; 255
    46ee:	5f 4f       	sbci	r21, 0xFF	; 255
    46f0:	6f 4f       	sbci	r22, 0xFF	; 255
    46f2:	7f 4f       	sbci	r23, 0xFF	; 255
    46f4:	8f 4f       	sbci	r24, 0xFF	; 255
    46f6:	9f 4f       	sbci	r25, 0xFF	; 255
    46f8:	a2 2e       	mov	r10, r18
    46fa:	b3 2e       	mov	r11, r19
    46fc:	c4 2e       	mov	r12, r20
    46fe:	d5 2e       	mov	r13, r21
    4700:	e6 2e       	mov	r14, r22
    4702:	f7 2e       	mov	r15, r23
    4704:	08 2f       	mov	r16, r24
    4706:	19 2f       	mov	r17, r25
    4708:	2a 2d       	mov	r18, r10
    470a:	3b 2d       	mov	r19, r11
    470c:	4c 2d       	mov	r20, r12
    470e:	5d 2d       	mov	r21, r13
    4710:	6e 2d       	mov	r22, r14
    4712:	7f 2d       	mov	r23, r15
    4714:	80 2f       	mov	r24, r16
    4716:	91 2f       	mov	r25, r17
    4718:	0e 94 cd 01 	call	0x39a	; 0x39a <__floatundisf>
    471c:	dc 01       	movw	r26, r24
    471e:	cb 01       	movw	r24, r22
    4720:	20 e0       	ldi	r18, 0x00	; 0
    4722:	30 e8       	ldi	r19, 0x80	; 128
    4724:	4b eb       	ldi	r20, 0xBB	; 187
    4726:	55 e4       	ldi	r21, 0x45	; 69
    4728:	bc 01       	movw	r22, r24
    472a:	cd 01       	movw	r24, r26
    472c:	0e 94 48 03 	call	0x690	; 0x690 <__divsf3>
    4730:	dc 01       	movw	r26, r24
    4732:	cb 01       	movw	r24, r22
    4734:	bc 01       	movw	r22, r24
    4736:	cd 01       	movw	r24, r26
    4738:	0e 94 1c 01 	call	0x238	; 0x238 <__fixunssfdi>
    473c:	a2 2e       	mov	r10, r18
    473e:	b3 2e       	mov	r11, r19
    4740:	c4 2e       	mov	r12, r20
    4742:	d5 2e       	mov	r13, r21
    4744:	e6 2e       	mov	r14, r22
    4746:	f7 2e       	mov	r15, r23
    4748:	08 2f       	mov	r16, r24
    474a:	19 2f       	mov	r17, r25
    474c:	d6 01       	movw	r26, r12
    474e:	c5 01       	movw	r24, r10
    4750:	bc 01       	movw	r22, r24
    4752:	cd 01       	movw	r24, r26
    4754:	0e 94 2e 16 	call	0x2c5c	; 0x2c5c <__portable_avr_delay_cycles>
					gpio_toggle_pin(LED_VD1);
    4758:	88 e0       	ldi	r24, 0x08	; 8
    475a:	0e 94 8a 16 	call	0x2d14	; 0x2d14 <ioport_toggle_pin>
				break;
    475e:	0c 94 87 2e 	jmp	0x5d0e	; 0x5d0e <main+0x1938>
			case 2: //showMeByte(duoByte);
				break;
			case 3: //showMeByte(duoByte >> 8);
				break;
			case 4:	for (Byte i = 0; i < 20; i++)
    4762:	19 82       	std	Y+1, r1	; 0x01
    4764:	2c c1       	rjmp	.+600    	; 0x49be <main+0x5e8>
					{
						gpio_toggle_pin(LED_VD1);
    4766:	88 e0       	ldi	r24, 0x08	; 8
    4768:	0e 94 8a 16 	call	0x2d14	; 0x2d14 <ioport_toggle_pin>
						delay_ms(50);
    476c:	0e 94 22 16 	call	0x2c44	; 0x2c44 <sysclk_get_cpu_hz>
    4770:	dc 01       	movw	r26, r24
    4772:	cb 01       	movw	r24, r22
    4774:	9c 01       	movw	r18, r24
    4776:	ad 01       	movw	r20, r26
    4778:	60 e0       	ldi	r22, 0x00	; 0
    477a:	70 e0       	ldi	r23, 0x00	; 0
    477c:	cb 01       	movw	r24, r22
    477e:	82 2e       	mov	r8, r18
    4780:	93 2e       	mov	r9, r19
    4782:	a4 2e       	mov	r10, r20
    4784:	b5 2e       	mov	r11, r21
    4786:	c6 2e       	mov	r12, r22
    4788:	d7 2e       	mov	r13, r23
    478a:	e8 2e       	mov	r14, r24
    478c:	f9 2e       	mov	r15, r25
    478e:	28 2d       	mov	r18, r8
    4790:	39 2d       	mov	r19, r9
    4792:	4a 2d       	mov	r20, r10
    4794:	5b 2d       	mov	r21, r11
    4796:	6c 2d       	mov	r22, r12
    4798:	7d 2d       	mov	r23, r13
    479a:	8e 2d       	mov	r24, r14
    479c:	9f 2d       	mov	r25, r15
    479e:	01 e0       	ldi	r16, 0x01	; 1
    47a0:	0e 94 61 2f 	call	0x5ec2	; 0x5ec2 <__ashldi3>
    47a4:	2b 96       	adiw	r28, 0x0b	; 11
    47a6:	2f af       	std	Y+63, r18	; 0x3f
    47a8:	2b 97       	sbiw	r28, 0x0b	; 11
    47aa:	2c 96       	adiw	r28, 0x0c	; 12
    47ac:	3f af       	std	Y+63, r19	; 0x3f
    47ae:	2c 97       	sbiw	r28, 0x0c	; 12
    47b0:	2d 96       	adiw	r28, 0x0d	; 13
    47b2:	4f af       	std	Y+63, r20	; 0x3f
    47b4:	2d 97       	sbiw	r28, 0x0d	; 13
    47b6:	2e 96       	adiw	r28, 0x0e	; 14
    47b8:	5f af       	std	Y+63, r21	; 0x3f
    47ba:	2e 97       	sbiw	r28, 0x0e	; 14
    47bc:	2f 96       	adiw	r28, 0x0f	; 15
    47be:	6f af       	std	Y+63, r22	; 0x3f
    47c0:	2f 97       	sbiw	r28, 0x0f	; 15
    47c2:	60 96       	adiw	r28, 0x10	; 16
    47c4:	7f af       	std	Y+63, r23	; 0x3f
    47c6:	60 97       	sbiw	r28, 0x10	; 16
    47c8:	61 96       	adiw	r28, 0x11	; 17
    47ca:	8f af       	std	Y+63, r24	; 0x3f
    47cc:	61 97       	sbiw	r28, 0x11	; 17
    47ce:	62 96       	adiw	r28, 0x12	; 18
    47d0:	9f af       	std	Y+63, r25	; 0x3f
    47d2:	62 97       	sbiw	r28, 0x12	; 18
    47d4:	2b 96       	adiw	r28, 0x0b	; 11
    47d6:	8f ac       	ldd	r8, Y+63	; 0x3f
    47d8:	2b 97       	sbiw	r28, 0x0b	; 11
    47da:	2c 96       	adiw	r28, 0x0c	; 12
    47dc:	9f ac       	ldd	r9, Y+63	; 0x3f
    47de:	2c 97       	sbiw	r28, 0x0c	; 12
    47e0:	2d 96       	adiw	r28, 0x0d	; 13
    47e2:	af ac       	ldd	r10, Y+63	; 0x3f
    47e4:	2d 97       	sbiw	r28, 0x0d	; 13
    47e6:	2e 96       	adiw	r28, 0x0e	; 14
    47e8:	bf ac       	ldd	r11, Y+63	; 0x3f
    47ea:	2e 97       	sbiw	r28, 0x0e	; 14
    47ec:	2f 96       	adiw	r28, 0x0f	; 15
    47ee:	cf ac       	ldd	r12, Y+63	; 0x3f
    47f0:	2f 97       	sbiw	r28, 0x0f	; 15
    47f2:	60 96       	adiw	r28, 0x10	; 16
    47f4:	df ac       	ldd	r13, Y+63	; 0x3f
    47f6:	60 97       	sbiw	r28, 0x10	; 16
    47f8:	61 96       	adiw	r28, 0x11	; 17
    47fa:	ef ac       	ldd	r14, Y+63	; 0x3f
    47fc:	61 97       	sbiw	r28, 0x11	; 17
    47fe:	62 96       	adiw	r28, 0x12	; 18
    4800:	ff ac       	ldd	r15, Y+63	; 0x3f
    4802:	62 97       	sbiw	r28, 0x12	; 18
    4804:	28 2d       	mov	r18, r8
    4806:	39 2d       	mov	r19, r9
    4808:	4a 2d       	mov	r20, r10
    480a:	5b 2d       	mov	r21, r11
    480c:	6c 2d       	mov	r22, r12
    480e:	7d 2d       	mov	r23, r13
    4810:	8e 2d       	mov	r24, r14
    4812:	9f 2d       	mov	r25, r15
    4814:	02 e0       	ldi	r16, 0x02	; 2
    4816:	0e 94 61 2f 	call	0x5ec2	; 0x5ec2 <__ashldi3>
    481a:	63 96       	adiw	r28, 0x13	; 19
    481c:	2f af       	std	Y+63, r18	; 0x3f
    481e:	63 97       	sbiw	r28, 0x13	; 19
    4820:	64 96       	adiw	r28, 0x14	; 20
    4822:	3f af       	std	Y+63, r19	; 0x3f
    4824:	64 97       	sbiw	r28, 0x14	; 20
    4826:	65 96       	adiw	r28, 0x15	; 21
    4828:	4f af       	std	Y+63, r20	; 0x3f
    482a:	65 97       	sbiw	r28, 0x15	; 21
    482c:	66 96       	adiw	r28, 0x16	; 22
    482e:	5f af       	std	Y+63, r21	; 0x3f
    4830:	66 97       	sbiw	r28, 0x16	; 22
    4832:	67 96       	adiw	r28, 0x17	; 23
    4834:	6f af       	std	Y+63, r22	; 0x3f
    4836:	67 97       	sbiw	r28, 0x17	; 23
    4838:	68 96       	adiw	r28, 0x18	; 24
    483a:	7f af       	std	Y+63, r23	; 0x3f
    483c:	68 97       	sbiw	r28, 0x18	; 24
    483e:	69 96       	adiw	r28, 0x19	; 25
    4840:	8f af       	std	Y+63, r24	; 0x3f
    4842:	69 97       	sbiw	r28, 0x19	; 25
    4844:	6a 96       	adiw	r28, 0x1a	; 26
    4846:	9f af       	std	Y+63, r25	; 0x3f
    4848:	6a 97       	sbiw	r28, 0x1a	; 26
    484a:	28 2d       	mov	r18, r8
    484c:	39 2d       	mov	r19, r9
    484e:	4a 2d       	mov	r20, r10
    4850:	5b 2d       	mov	r21, r11
    4852:	6c 2d       	mov	r22, r12
    4854:	7d 2d       	mov	r23, r13
    4856:	8e 2d       	mov	r24, r14
    4858:	9f 2d       	mov	r25, r15
    485a:	63 96       	adiw	r28, 0x13	; 19
    485c:	af ac       	ldd	r10, Y+63	; 0x3f
    485e:	63 97       	sbiw	r28, 0x13	; 19
    4860:	64 96       	adiw	r28, 0x14	; 20
    4862:	bf ac       	ldd	r11, Y+63	; 0x3f
    4864:	64 97       	sbiw	r28, 0x14	; 20
    4866:	65 96       	adiw	r28, 0x15	; 21
    4868:	cf ac       	ldd	r12, Y+63	; 0x3f
    486a:	65 97       	sbiw	r28, 0x15	; 21
    486c:	66 96       	adiw	r28, 0x16	; 22
    486e:	df ac       	ldd	r13, Y+63	; 0x3f
    4870:	66 97       	sbiw	r28, 0x16	; 22
    4872:	67 96       	adiw	r28, 0x17	; 23
    4874:	ef ac       	ldd	r14, Y+63	; 0x3f
    4876:	67 97       	sbiw	r28, 0x17	; 23
    4878:	68 96       	adiw	r28, 0x18	; 24
    487a:	ff ac       	ldd	r15, Y+63	; 0x3f
    487c:	68 97       	sbiw	r28, 0x18	; 24
    487e:	69 96       	adiw	r28, 0x19	; 25
    4880:	0f ad       	ldd	r16, Y+63	; 0x3f
    4882:	69 97       	sbiw	r28, 0x19	; 25
    4884:	6a 96       	adiw	r28, 0x1a	; 26
    4886:	1f ad       	ldd	r17, Y+63	; 0x3f
    4888:	6a 97       	sbiw	r28, 0x1a	; 26
    488a:	0e 94 70 2f 	call	0x5ee0	; 0x5ee0 <__adddi3>
    488e:	82 2e       	mov	r8, r18
    4890:	93 2e       	mov	r9, r19
    4892:	a4 2e       	mov	r10, r20
    4894:	b5 2e       	mov	r11, r21
    4896:	c6 2e       	mov	r12, r22
    4898:	d7 2e       	mov	r13, r23
    489a:	e8 2e       	mov	r14, r24
    489c:	f9 2e       	mov	r15, r25
    489e:	28 2d       	mov	r18, r8
    48a0:	39 2d       	mov	r19, r9
    48a2:	4a 2d       	mov	r20, r10
    48a4:	5b 2d       	mov	r21, r11
    48a6:	6c 2d       	mov	r22, r12
    48a8:	7d 2d       	mov	r23, r13
    48aa:	8e 2d       	mov	r24, r14
    48ac:	9f 2d       	mov	r25, r15
    48ae:	02 e0       	ldi	r16, 0x02	; 2
    48b0:	0e 94 61 2f 	call	0x5ec2	; 0x5ec2 <__ashldi3>
    48b4:	6b 96       	adiw	r28, 0x1b	; 27
    48b6:	2f af       	std	Y+63, r18	; 0x3f
    48b8:	6b 97       	sbiw	r28, 0x1b	; 27
    48ba:	6c 96       	adiw	r28, 0x1c	; 28
    48bc:	3f af       	std	Y+63, r19	; 0x3f
    48be:	6c 97       	sbiw	r28, 0x1c	; 28
    48c0:	6d 96       	adiw	r28, 0x1d	; 29
    48c2:	4f af       	std	Y+63, r20	; 0x3f
    48c4:	6d 97       	sbiw	r28, 0x1d	; 29
    48c6:	6e 96       	adiw	r28, 0x1e	; 30
    48c8:	5f af       	std	Y+63, r21	; 0x3f
    48ca:	6e 97       	sbiw	r28, 0x1e	; 30
    48cc:	6f 96       	adiw	r28, 0x1f	; 31
    48ce:	6f af       	std	Y+63, r22	; 0x3f
    48d0:	6f 97       	sbiw	r28, 0x1f	; 31
    48d2:	a0 96       	adiw	r28, 0x20	; 32
    48d4:	7f af       	std	Y+63, r23	; 0x3f
    48d6:	a0 97       	sbiw	r28, 0x20	; 32
    48d8:	a1 96       	adiw	r28, 0x21	; 33
    48da:	8f af       	std	Y+63, r24	; 0x3f
    48dc:	a1 97       	sbiw	r28, 0x21	; 33
    48de:	a2 96       	adiw	r28, 0x22	; 34
    48e0:	9f af       	std	Y+63, r25	; 0x3f
    48e2:	a2 97       	sbiw	r28, 0x22	; 34
    48e4:	28 2d       	mov	r18, r8
    48e6:	39 2d       	mov	r19, r9
    48e8:	4a 2d       	mov	r20, r10
    48ea:	5b 2d       	mov	r21, r11
    48ec:	6c 2d       	mov	r22, r12
    48ee:	7d 2d       	mov	r23, r13
    48f0:	8e 2d       	mov	r24, r14
    48f2:	9f 2d       	mov	r25, r15
    48f4:	6b 96       	adiw	r28, 0x1b	; 27
    48f6:	af ac       	ldd	r10, Y+63	; 0x3f
    48f8:	6b 97       	sbiw	r28, 0x1b	; 27
    48fa:	6c 96       	adiw	r28, 0x1c	; 28
    48fc:	bf ac       	ldd	r11, Y+63	; 0x3f
    48fe:	6c 97       	sbiw	r28, 0x1c	; 28
    4900:	6d 96       	adiw	r28, 0x1d	; 29
    4902:	cf ac       	ldd	r12, Y+63	; 0x3f
    4904:	6d 97       	sbiw	r28, 0x1d	; 29
    4906:	6e 96       	adiw	r28, 0x1e	; 30
    4908:	df ac       	ldd	r13, Y+63	; 0x3f
    490a:	6e 97       	sbiw	r28, 0x1e	; 30
    490c:	6f 96       	adiw	r28, 0x1f	; 31
    490e:	ef ac       	ldd	r14, Y+63	; 0x3f
    4910:	6f 97       	sbiw	r28, 0x1f	; 31
    4912:	a0 96       	adiw	r28, 0x20	; 32
    4914:	ff ac       	ldd	r15, Y+63	; 0x3f
    4916:	a0 97       	sbiw	r28, 0x20	; 32
    4918:	a1 96       	adiw	r28, 0x21	; 33
    491a:	0f ad       	ldd	r16, Y+63	; 0x3f
    491c:	a1 97       	sbiw	r28, 0x21	; 33
    491e:	a2 96       	adiw	r28, 0x22	; 34
    4920:	1f ad       	ldd	r17, Y+63	; 0x3f
    4922:	a2 97       	sbiw	r28, 0x22	; 34
    4924:	0e 94 70 2f 	call	0x5ee0	; 0x5ee0 <__adddi3>
    4928:	a2 2e       	mov	r10, r18
    492a:	b3 2e       	mov	r11, r19
    492c:	c4 2e       	mov	r12, r20
    492e:	d5 2e       	mov	r13, r21
    4930:	e6 2e       	mov	r14, r22
    4932:	f7 2e       	mov	r15, r23
    4934:	08 2f       	mov	r16, r24
    4936:	19 2f       	mov	r17, r25
    4938:	2a 2d       	mov	r18, r10
    493a:	3b 2d       	mov	r19, r11
    493c:	4c 2d       	mov	r20, r12
    493e:	5d 2d       	mov	r21, r13
    4940:	6e 2d       	mov	r22, r14
    4942:	7f 2d       	mov	r23, r15
    4944:	80 2f       	mov	r24, r16
    4946:	91 2f       	mov	r25, r17
    4948:	29 51       	subi	r18, 0x19	; 25
    494a:	3c 4f       	sbci	r19, 0xFC	; 252
    494c:	4f 4f       	sbci	r20, 0xFF	; 255
    494e:	5f 4f       	sbci	r21, 0xFF	; 255
    4950:	6f 4f       	sbci	r22, 0xFF	; 255
    4952:	7f 4f       	sbci	r23, 0xFF	; 255
    4954:	8f 4f       	sbci	r24, 0xFF	; 255
    4956:	9f 4f       	sbci	r25, 0xFF	; 255
    4958:	a2 2e       	mov	r10, r18
    495a:	b3 2e       	mov	r11, r19
    495c:	c4 2e       	mov	r12, r20
    495e:	d5 2e       	mov	r13, r21
    4960:	e6 2e       	mov	r14, r22
    4962:	f7 2e       	mov	r15, r23
    4964:	08 2f       	mov	r16, r24
    4966:	19 2f       	mov	r17, r25
    4968:	2a 2d       	mov	r18, r10
    496a:	3b 2d       	mov	r19, r11
    496c:	4c 2d       	mov	r20, r12
    496e:	5d 2d       	mov	r21, r13
    4970:	6e 2d       	mov	r22, r14
    4972:	7f 2d       	mov	r23, r15
    4974:	80 2f       	mov	r24, r16
    4976:	91 2f       	mov	r25, r17
    4978:	0e 94 cd 01 	call	0x39a	; 0x39a <__floatundisf>
    497c:	dc 01       	movw	r26, r24
    497e:	cb 01       	movw	r24, r22
    4980:	20 e0       	ldi	r18, 0x00	; 0
    4982:	30 e8       	ldi	r19, 0x80	; 128
    4984:	4b eb       	ldi	r20, 0xBB	; 187
    4986:	55 e4       	ldi	r21, 0x45	; 69
    4988:	bc 01       	movw	r22, r24
    498a:	cd 01       	movw	r24, r26
    498c:	0e 94 48 03 	call	0x690	; 0x690 <__divsf3>
    4990:	dc 01       	movw	r26, r24
    4992:	cb 01       	movw	r24, r22
    4994:	bc 01       	movw	r22, r24
    4996:	cd 01       	movw	r24, r26
    4998:	0e 94 1c 01 	call	0x238	; 0x238 <__fixunssfdi>
    499c:	a2 2e       	mov	r10, r18
    499e:	b3 2e       	mov	r11, r19
    49a0:	c4 2e       	mov	r12, r20
    49a2:	d5 2e       	mov	r13, r21
    49a4:	e6 2e       	mov	r14, r22
    49a6:	f7 2e       	mov	r15, r23
    49a8:	08 2f       	mov	r16, r24
    49aa:	19 2f       	mov	r17, r25
    49ac:	d6 01       	movw	r26, r12
    49ae:	c5 01       	movw	r24, r10
    49b0:	bc 01       	movw	r22, r24
    49b2:	cd 01       	movw	r24, r26
    49b4:	0e 94 2e 16 	call	0x2c5c	; 0x2c5c <__portable_avr_delay_cycles>
				break;
			case 2: //showMeByte(duoByte);
				break;
			case 3: //showMeByte(duoByte >> 8);
				break;
			case 4:	for (Byte i = 0; i < 20; i++)
    49b8:	89 81       	ldd	r24, Y+1	; 0x01
    49ba:	8f 5f       	subi	r24, 0xFF	; 255
    49bc:	89 83       	std	Y+1, r24	; 0x01
    49be:	89 81       	ldd	r24, Y+1	; 0x01
    49c0:	84 31       	cpi	r24, 0x14	; 20
    49c2:	08 f4       	brcc	.+2      	; 0x49c6 <main+0x5f0>
    49c4:	d0 ce       	rjmp	.-608    	; 0x4766 <main+0x390>
					{
						gpio_toggle_pin(LED_VD1);
						delay_ms(50);
					}
					showMeByte(COA_measurment_2 >> 8);
    49c6:	80 91 5e 20 	lds	r24, 0x205E
    49ca:	90 91 5f 20 	lds	r25, 0x205F
    49ce:	89 2f       	mov	r24, r25
    49d0:	99 27       	eor	r25, r25
    49d2:	0e 94 ef 18 	call	0x31de	; 0x31de <showMeByte>
					delay_ms(2000);
    49d6:	0e 94 22 16 	call	0x2c44	; 0x2c44 <sysclk_get_cpu_hz>
    49da:	dc 01       	movw	r26, r24
    49dc:	cb 01       	movw	r24, r22
    49de:	8c 01       	movw	r16, r24
    49e0:	9d 01       	movw	r18, r26
    49e2:	40 e0       	ldi	r20, 0x00	; 0
    49e4:	50 e0       	ldi	r21, 0x00	; 0
    49e6:	ba 01       	movw	r22, r20
    49e8:	0a 87       	std	Y+10, r16	; 0x0a
    49ea:	1b 87       	std	Y+11, r17	; 0x0b
    49ec:	2c 87       	std	Y+12, r18	; 0x0c
    49ee:	3d 87       	std	Y+13, r19	; 0x0d
    49f0:	4e 87       	std	Y+14, r20	; 0x0e
    49f2:	5f 87       	std	Y+15, r21	; 0x0f
    49f4:	68 8b       	std	Y+16, r22	; 0x10
    49f6:	79 8b       	std	Y+17, r23	; 0x11
    49f8:	1a 85       	ldd	r17, Y+10	; 0x0a
    49fa:	a3 96       	adiw	r28, 0x23	; 35
    49fc:	1f af       	std	Y+63, r17	; 0x3f
    49fe:	a3 97       	sbiw	r28, 0x23	; 35
    4a00:	2b 85       	ldd	r18, Y+11	; 0x0b
    4a02:	a4 96       	adiw	r28, 0x24	; 36
    4a04:	2f af       	std	Y+63, r18	; 0x3f
    4a06:	a4 97       	sbiw	r28, 0x24	; 36
    4a08:	3c 85       	ldd	r19, Y+12	; 0x0c
    4a0a:	a5 96       	adiw	r28, 0x25	; 37
    4a0c:	3f af       	std	Y+63, r19	; 0x3f
    4a0e:	a5 97       	sbiw	r28, 0x25	; 37
    4a10:	4d 85       	ldd	r20, Y+13	; 0x0d
    4a12:	a6 96       	adiw	r28, 0x26	; 38
    4a14:	4f af       	std	Y+63, r20	; 0x3f
    4a16:	a6 97       	sbiw	r28, 0x26	; 38
    4a18:	5e 85       	ldd	r21, Y+14	; 0x0e
    4a1a:	a7 96       	adiw	r28, 0x27	; 39
    4a1c:	5f af       	std	Y+63, r21	; 0x3f
    4a1e:	a7 97       	sbiw	r28, 0x27	; 39
    4a20:	6f 85       	ldd	r22, Y+15	; 0x0f
    4a22:	a8 96       	adiw	r28, 0x28	; 40
    4a24:	6f af       	std	Y+63, r22	; 0x3f
    4a26:	a8 97       	sbiw	r28, 0x28	; 40
    4a28:	78 89       	ldd	r23, Y+16	; 0x10
    4a2a:	a9 96       	adiw	r28, 0x29	; 41
    4a2c:	7f af       	std	Y+63, r23	; 0x3f
    4a2e:	a9 97       	sbiw	r28, 0x29	; 41
    4a30:	89 89       	ldd	r24, Y+17	; 0x11
    4a32:	aa 96       	adiw	r28, 0x2a	; 42
    4a34:	8f af       	std	Y+63, r24	; 0x3f
    4a36:	aa 97       	sbiw	r28, 0x2a	; 42
    4a38:	a3 96       	adiw	r28, 0x23	; 35
    4a3a:	2f ad       	ldd	r18, Y+63	; 0x3f
    4a3c:	a3 97       	sbiw	r28, 0x23	; 35
    4a3e:	a4 96       	adiw	r28, 0x24	; 36
    4a40:	3f ad       	ldd	r19, Y+63	; 0x3f
    4a42:	a4 97       	sbiw	r28, 0x24	; 36
    4a44:	a5 96       	adiw	r28, 0x25	; 37
    4a46:	4f ad       	ldd	r20, Y+63	; 0x3f
    4a48:	a5 97       	sbiw	r28, 0x25	; 37
    4a4a:	a6 96       	adiw	r28, 0x26	; 38
    4a4c:	5f ad       	ldd	r21, Y+63	; 0x3f
    4a4e:	a6 97       	sbiw	r28, 0x26	; 38
    4a50:	a7 96       	adiw	r28, 0x27	; 39
    4a52:	6f ad       	ldd	r22, Y+63	; 0x3f
    4a54:	a7 97       	sbiw	r28, 0x27	; 39
    4a56:	a8 96       	adiw	r28, 0x28	; 40
    4a58:	7f ad       	ldd	r23, Y+63	; 0x3f
    4a5a:	a8 97       	sbiw	r28, 0x28	; 40
    4a5c:	a9 96       	adiw	r28, 0x29	; 41
    4a5e:	8f ad       	ldd	r24, Y+63	; 0x3f
    4a60:	a9 97       	sbiw	r28, 0x29	; 41
    4a62:	aa 96       	adiw	r28, 0x2a	; 42
    4a64:	9f ad       	ldd	r25, Y+63	; 0x3f
    4a66:	aa 97       	sbiw	r28, 0x2a	; 42
    4a68:	02 e0       	ldi	r16, 0x02	; 2
    4a6a:	0e 94 61 2f 	call	0x5ec2	; 0x5ec2 <__ashldi3>
    4a6e:	a2 2e       	mov	r10, r18
    4a70:	b3 2e       	mov	r11, r19
    4a72:	c4 2e       	mov	r12, r20
    4a74:	d5 2e       	mov	r13, r21
    4a76:	e6 2e       	mov	r14, r22
    4a78:	f7 2e       	mov	r15, r23
    4a7a:	08 2f       	mov	r16, r24
    4a7c:	19 2f       	mov	r17, r25
    4a7e:	a3 96       	adiw	r28, 0x23	; 35
    4a80:	af ae       	std	Y+63, r10	; 0x3f
    4a82:	a3 97       	sbiw	r28, 0x23	; 35
    4a84:	a4 96       	adiw	r28, 0x24	; 36
    4a86:	bf ae       	std	Y+63, r11	; 0x3f
    4a88:	a4 97       	sbiw	r28, 0x24	; 36
    4a8a:	a5 96       	adiw	r28, 0x25	; 37
    4a8c:	cf ae       	std	Y+63, r12	; 0x3f
    4a8e:	a5 97       	sbiw	r28, 0x25	; 37
    4a90:	a6 96       	adiw	r28, 0x26	; 38
    4a92:	df ae       	std	Y+63, r13	; 0x3f
    4a94:	a6 97       	sbiw	r28, 0x26	; 38
    4a96:	a7 96       	adiw	r28, 0x27	; 39
    4a98:	ef ae       	std	Y+63, r14	; 0x3f
    4a9a:	a7 97       	sbiw	r28, 0x27	; 39
    4a9c:	a8 96       	adiw	r28, 0x28	; 40
    4a9e:	ff ae       	std	Y+63, r15	; 0x3f
    4aa0:	a8 97       	sbiw	r28, 0x28	; 40
    4aa2:	a9 96       	adiw	r28, 0x29	; 41
    4aa4:	0f af       	std	Y+63, r16	; 0x3f
    4aa6:	a9 97       	sbiw	r28, 0x29	; 41
    4aa8:	aa 96       	adiw	r28, 0x2a	; 42
    4aaa:	1f af       	std	Y+63, r17	; 0x3f
    4aac:	aa 97       	sbiw	r28, 0x2a	; 42
    4aae:	a3 96       	adiw	r28, 0x23	; 35
    4ab0:	2f ad       	ldd	r18, Y+63	; 0x3f
    4ab2:	a3 97       	sbiw	r28, 0x23	; 35
    4ab4:	a4 96       	adiw	r28, 0x24	; 36
    4ab6:	3f ad       	ldd	r19, Y+63	; 0x3f
    4ab8:	a4 97       	sbiw	r28, 0x24	; 36
    4aba:	a5 96       	adiw	r28, 0x25	; 37
    4abc:	4f ad       	ldd	r20, Y+63	; 0x3f
    4abe:	a5 97       	sbiw	r28, 0x25	; 37
    4ac0:	a6 96       	adiw	r28, 0x26	; 38
    4ac2:	5f ad       	ldd	r21, Y+63	; 0x3f
    4ac4:	a6 97       	sbiw	r28, 0x26	; 38
    4ac6:	a7 96       	adiw	r28, 0x27	; 39
    4ac8:	6f ad       	ldd	r22, Y+63	; 0x3f
    4aca:	a7 97       	sbiw	r28, 0x27	; 39
    4acc:	a8 96       	adiw	r28, 0x28	; 40
    4ace:	7f ad       	ldd	r23, Y+63	; 0x3f
    4ad0:	a8 97       	sbiw	r28, 0x28	; 40
    4ad2:	a9 96       	adiw	r28, 0x29	; 41
    4ad4:	8f ad       	ldd	r24, Y+63	; 0x3f
    4ad6:	a9 97       	sbiw	r28, 0x29	; 41
    4ad8:	aa 96       	adiw	r28, 0x2a	; 42
    4ada:	9f ad       	ldd	r25, Y+63	; 0x3f
    4adc:	aa 97       	sbiw	r28, 0x2a	; 42
    4ade:	05 e0       	ldi	r16, 0x05	; 5
    4ae0:	0e 94 61 2f 	call	0x5ec2	; 0x5ec2 <__ashldi3>
    4ae4:	22 2e       	mov	r2, r18
    4ae6:	33 2e       	mov	r3, r19
    4ae8:	44 2e       	mov	r4, r20
    4aea:	55 2e       	mov	r5, r21
    4aec:	66 2e       	mov	r6, r22
    4aee:	77 2e       	mov	r7, r23
    4af0:	88 2e       	mov	r8, r24
    4af2:	99 2e       	mov	r9, r25
    4af4:	22 2d       	mov	r18, r2
    4af6:	33 2d       	mov	r19, r3
    4af8:	44 2d       	mov	r20, r4
    4afa:	55 2d       	mov	r21, r5
    4afc:	66 2d       	mov	r22, r6
    4afe:	77 2d       	mov	r23, r7
    4b00:	88 2d       	mov	r24, r8
    4b02:	99 2d       	mov	r25, r9
    4b04:	a3 96       	adiw	r28, 0x23	; 35
    4b06:	af ac       	ldd	r10, Y+63	; 0x3f
    4b08:	a3 97       	sbiw	r28, 0x23	; 35
    4b0a:	a4 96       	adiw	r28, 0x24	; 36
    4b0c:	bf ac       	ldd	r11, Y+63	; 0x3f
    4b0e:	a4 97       	sbiw	r28, 0x24	; 36
    4b10:	a5 96       	adiw	r28, 0x25	; 37
    4b12:	cf ac       	ldd	r12, Y+63	; 0x3f
    4b14:	a5 97       	sbiw	r28, 0x25	; 37
    4b16:	a6 96       	adiw	r28, 0x26	; 38
    4b18:	df ac       	ldd	r13, Y+63	; 0x3f
    4b1a:	a6 97       	sbiw	r28, 0x26	; 38
    4b1c:	a7 96       	adiw	r28, 0x27	; 39
    4b1e:	ef ac       	ldd	r14, Y+63	; 0x3f
    4b20:	a7 97       	sbiw	r28, 0x27	; 39
    4b22:	a8 96       	adiw	r28, 0x28	; 40
    4b24:	ff ac       	ldd	r15, Y+63	; 0x3f
    4b26:	a8 97       	sbiw	r28, 0x28	; 40
    4b28:	a9 96       	adiw	r28, 0x29	; 41
    4b2a:	0f ad       	ldd	r16, Y+63	; 0x3f
    4b2c:	a9 97       	sbiw	r28, 0x29	; 41
    4b2e:	aa 96       	adiw	r28, 0x2a	; 42
    4b30:	1f ad       	ldd	r17, Y+63	; 0x3f
    4b32:	aa 97       	sbiw	r28, 0x2a	; 42
    4b34:	0e 94 79 2f 	call	0x5ef2	; 0x5ef2 <__subdi3>
    4b38:	22 2e       	mov	r2, r18
    4b3a:	33 2e       	mov	r3, r19
    4b3c:	44 2e       	mov	r4, r20
    4b3e:	55 2e       	mov	r5, r21
    4b40:	66 2e       	mov	r6, r22
    4b42:	77 2e       	mov	r7, r23
    4b44:	88 2e       	mov	r8, r24
    4b46:	99 2e       	mov	r9, r25
    4b48:	22 2d       	mov	r18, r2
    4b4a:	33 2d       	mov	r19, r3
    4b4c:	44 2d       	mov	r20, r4
    4b4e:	55 2d       	mov	r21, r5
    4b50:	66 2d       	mov	r22, r6
    4b52:	77 2d       	mov	r23, r7
    4b54:	88 2d       	mov	r24, r8
    4b56:	99 2d       	mov	r25, r9
    4b58:	aa 84       	ldd	r10, Y+10	; 0x0a
    4b5a:	bb 84       	ldd	r11, Y+11	; 0x0b
    4b5c:	cc 84       	ldd	r12, Y+12	; 0x0c
    4b5e:	dd 84       	ldd	r13, Y+13	; 0x0d
    4b60:	ee 84       	ldd	r14, Y+14	; 0x0e
    4b62:	ff 84       	ldd	r15, Y+15	; 0x0f
    4b64:	08 89       	ldd	r16, Y+16	; 0x10
    4b66:	19 89       	ldd	r17, Y+17	; 0x11
    4b68:	0e 94 70 2f 	call	0x5ee0	; 0x5ee0 <__adddi3>
    4b6c:	22 2e       	mov	r2, r18
    4b6e:	33 2e       	mov	r3, r19
    4b70:	44 2e       	mov	r4, r20
    4b72:	55 2e       	mov	r5, r21
    4b74:	66 2e       	mov	r6, r22
    4b76:	77 2e       	mov	r7, r23
    4b78:	88 2e       	mov	r8, r24
    4b7a:	99 2e       	mov	r9, r25
    4b7c:	22 2d       	mov	r18, r2
    4b7e:	33 2d       	mov	r19, r3
    4b80:	44 2d       	mov	r20, r4
    4b82:	55 2d       	mov	r21, r5
    4b84:	66 2d       	mov	r22, r6
    4b86:	77 2d       	mov	r23, r7
    4b88:	88 2d       	mov	r24, r8
    4b8a:	99 2d       	mov	r25, r9
    4b8c:	04 e0       	ldi	r16, 0x04	; 4
    4b8e:	0e 94 61 2f 	call	0x5ec2	; 0x5ec2 <__ashldi3>
    4b92:	a2 2e       	mov	r10, r18
    4b94:	b3 2e       	mov	r11, r19
    4b96:	c4 2e       	mov	r12, r20
    4b98:	d5 2e       	mov	r13, r21
    4b9a:	e6 2e       	mov	r14, r22
    4b9c:	f7 2e       	mov	r15, r23
    4b9e:	08 2f       	mov	r16, r24
    4ba0:	19 2f       	mov	r17, r25
    4ba2:	2a 2c       	mov	r2, r10
    4ba4:	3b 2c       	mov	r3, r11
    4ba6:	4c 2c       	mov	r4, r12
    4ba8:	5d 2c       	mov	r5, r13
    4baa:	6e 2c       	mov	r6, r14
    4bac:	7f 2c       	mov	r7, r15
    4bae:	80 2e       	mov	r8, r16
    4bb0:	91 2e       	mov	r9, r17
    4bb2:	a2 2c       	mov	r10, r2
    4bb4:	b3 2c       	mov	r11, r3
    4bb6:	c4 2c       	mov	r12, r4
    4bb8:	d5 2c       	mov	r13, r5
    4bba:	e6 2c       	mov	r14, r6
    4bbc:	f7 2c       	mov	r15, r7
    4bbe:	08 2d       	mov	r16, r8
    4bc0:	19 2d       	mov	r17, r9
    4bc2:	2a 2d       	mov	r18, r10
    4bc4:	3b 2d       	mov	r19, r11
    4bc6:	4c 2d       	mov	r20, r12
    4bc8:	5d 2d       	mov	r21, r13
    4bca:	6e 2d       	mov	r22, r14
    4bcc:	7f 2d       	mov	r23, r15
    4bce:	80 2f       	mov	r24, r16
    4bd0:	91 2f       	mov	r25, r17
    4bd2:	29 51       	subi	r18, 0x19	; 25
    4bd4:	3c 4f       	sbci	r19, 0xFC	; 252
    4bd6:	4f 4f       	sbci	r20, 0xFF	; 255
    4bd8:	5f 4f       	sbci	r21, 0xFF	; 255
    4bda:	6f 4f       	sbci	r22, 0xFF	; 255
    4bdc:	7f 4f       	sbci	r23, 0xFF	; 255
    4bde:	8f 4f       	sbci	r24, 0xFF	; 255
    4be0:	9f 4f       	sbci	r25, 0xFF	; 255
    4be2:	a2 2e       	mov	r10, r18
    4be4:	b3 2e       	mov	r11, r19
    4be6:	c4 2e       	mov	r12, r20
    4be8:	d5 2e       	mov	r13, r21
    4bea:	e6 2e       	mov	r14, r22
    4bec:	f7 2e       	mov	r15, r23
    4bee:	08 2f       	mov	r16, r24
    4bf0:	19 2f       	mov	r17, r25
    4bf2:	2a 2d       	mov	r18, r10
    4bf4:	3b 2d       	mov	r19, r11
    4bf6:	4c 2d       	mov	r20, r12
    4bf8:	5d 2d       	mov	r21, r13
    4bfa:	6e 2d       	mov	r22, r14
    4bfc:	7f 2d       	mov	r23, r15
    4bfe:	80 2f       	mov	r24, r16
    4c00:	91 2f       	mov	r25, r17
    4c02:	0e 94 cd 01 	call	0x39a	; 0x39a <__floatundisf>
    4c06:	dc 01       	movw	r26, r24
    4c08:	cb 01       	movw	r24, r22
    4c0a:	20 e0       	ldi	r18, 0x00	; 0
    4c0c:	30 e8       	ldi	r19, 0x80	; 128
    4c0e:	4b eb       	ldi	r20, 0xBB	; 187
    4c10:	55 e4       	ldi	r21, 0x45	; 69
    4c12:	bc 01       	movw	r22, r24
    4c14:	cd 01       	movw	r24, r26
    4c16:	0e 94 48 03 	call	0x690	; 0x690 <__divsf3>
    4c1a:	dc 01       	movw	r26, r24
    4c1c:	cb 01       	movw	r24, r22
    4c1e:	bc 01       	movw	r22, r24
    4c20:	cd 01       	movw	r24, r26
    4c22:	0e 94 1c 01 	call	0x238	; 0x238 <__fixunssfdi>
    4c26:	a2 2e       	mov	r10, r18
    4c28:	b3 2e       	mov	r11, r19
    4c2a:	c4 2e       	mov	r12, r20
    4c2c:	d5 2e       	mov	r13, r21
    4c2e:	e6 2e       	mov	r14, r22
    4c30:	f7 2e       	mov	r15, r23
    4c32:	08 2f       	mov	r16, r24
    4c34:	19 2f       	mov	r17, r25
    4c36:	d6 01       	movw	r26, r12
    4c38:	c5 01       	movw	r24, r10
    4c3a:	bc 01       	movw	r22, r24
    4c3c:	cd 01       	movw	r24, r26
    4c3e:	0e 94 2e 16 	call	0x2c5c	; 0x2c5c <__portable_avr_delay_cycles>
					showMeByte(0);
    4c42:	80 e0       	ldi	r24, 0x00	; 0
    4c44:	0e 94 ef 18 	call	0x31de	; 0x31de <showMeByte>
					delay_ms(500);
    4c48:	0e 94 22 16 	call	0x2c44	; 0x2c44 <sysclk_get_cpu_hz>
    4c4c:	dc 01       	movw	r26, r24
    4c4e:	cb 01       	movw	r24, r22
    4c50:	8c 01       	movw	r16, r24
    4c52:	9d 01       	movw	r18, r26
    4c54:	40 e0       	ldi	r20, 0x00	; 0
    4c56:	50 e0       	ldi	r21, 0x00	; 0
    4c58:	ba 01       	movw	r22, r20
    4c5a:	0a 8b       	std	Y+18, r16	; 0x12
    4c5c:	1b 8b       	std	Y+19, r17	; 0x13
    4c5e:	2c 8b       	std	Y+20, r18	; 0x14
    4c60:	3d 8b       	std	Y+21, r19	; 0x15
    4c62:	4e 8b       	std	Y+22, r20	; 0x16
    4c64:	5f 8b       	std	Y+23, r21	; 0x17
    4c66:	68 8f       	std	Y+24, r22	; 0x18
    4c68:	79 8f       	std	Y+25, r23	; 0x19
    4c6a:	1a 89       	ldd	r17, Y+18	; 0x12
    4c6c:	ab 96       	adiw	r28, 0x2b	; 43
    4c6e:	1f af       	std	Y+63, r17	; 0x3f
    4c70:	ab 97       	sbiw	r28, 0x2b	; 43
    4c72:	2b 89       	ldd	r18, Y+19	; 0x13
    4c74:	ac 96       	adiw	r28, 0x2c	; 44
    4c76:	2f af       	std	Y+63, r18	; 0x3f
    4c78:	ac 97       	sbiw	r28, 0x2c	; 44
    4c7a:	3c 89       	ldd	r19, Y+20	; 0x14
    4c7c:	ad 96       	adiw	r28, 0x2d	; 45
    4c7e:	3f af       	std	Y+63, r19	; 0x3f
    4c80:	ad 97       	sbiw	r28, 0x2d	; 45
    4c82:	4d 89       	ldd	r20, Y+21	; 0x15
    4c84:	ae 96       	adiw	r28, 0x2e	; 46
    4c86:	4f af       	std	Y+63, r20	; 0x3f
    4c88:	ae 97       	sbiw	r28, 0x2e	; 46
    4c8a:	5e 89       	ldd	r21, Y+22	; 0x16
    4c8c:	af 96       	adiw	r28, 0x2f	; 47
    4c8e:	5f af       	std	Y+63, r21	; 0x3f
    4c90:	af 97       	sbiw	r28, 0x2f	; 47
    4c92:	6f 89       	ldd	r22, Y+23	; 0x17
    4c94:	e0 96       	adiw	r28, 0x30	; 48
    4c96:	6f af       	std	Y+63, r22	; 0x3f
    4c98:	e0 97       	sbiw	r28, 0x30	; 48
    4c9a:	78 8d       	ldd	r23, Y+24	; 0x18
    4c9c:	e1 96       	adiw	r28, 0x31	; 49
    4c9e:	7f af       	std	Y+63, r23	; 0x3f
    4ca0:	e1 97       	sbiw	r28, 0x31	; 49
    4ca2:	89 8d       	ldd	r24, Y+25	; 0x19
    4ca4:	e2 96       	adiw	r28, 0x32	; 50
    4ca6:	8f af       	std	Y+63, r24	; 0x3f
    4ca8:	e2 97       	sbiw	r28, 0x32	; 50
    4caa:	ab 96       	adiw	r28, 0x2b	; 43
    4cac:	2f ad       	ldd	r18, Y+63	; 0x3f
    4cae:	ab 97       	sbiw	r28, 0x2b	; 43
    4cb0:	ac 96       	adiw	r28, 0x2c	; 44
    4cb2:	3f ad       	ldd	r19, Y+63	; 0x3f
    4cb4:	ac 97       	sbiw	r28, 0x2c	; 44
    4cb6:	ad 96       	adiw	r28, 0x2d	; 45
    4cb8:	4f ad       	ldd	r20, Y+63	; 0x3f
    4cba:	ad 97       	sbiw	r28, 0x2d	; 45
    4cbc:	ae 96       	adiw	r28, 0x2e	; 46
    4cbe:	5f ad       	ldd	r21, Y+63	; 0x3f
    4cc0:	ae 97       	sbiw	r28, 0x2e	; 46
    4cc2:	af 96       	adiw	r28, 0x2f	; 47
    4cc4:	6f ad       	ldd	r22, Y+63	; 0x3f
    4cc6:	af 97       	sbiw	r28, 0x2f	; 47
    4cc8:	e0 96       	adiw	r28, 0x30	; 48
    4cca:	7f ad       	ldd	r23, Y+63	; 0x3f
    4ccc:	e0 97       	sbiw	r28, 0x30	; 48
    4cce:	e1 96       	adiw	r28, 0x31	; 49
    4cd0:	8f ad       	ldd	r24, Y+63	; 0x3f
    4cd2:	e1 97       	sbiw	r28, 0x31	; 49
    4cd4:	e2 96       	adiw	r28, 0x32	; 50
    4cd6:	9f ad       	ldd	r25, Y+63	; 0x3f
    4cd8:	e2 97       	sbiw	r28, 0x32	; 50
    4cda:	02 e0       	ldi	r16, 0x02	; 2
    4cdc:	0e 94 61 2f 	call	0x5ec2	; 0x5ec2 <__ashldi3>
    4ce0:	a2 2e       	mov	r10, r18
    4ce2:	b3 2e       	mov	r11, r19
    4ce4:	c4 2e       	mov	r12, r20
    4ce6:	d5 2e       	mov	r13, r21
    4ce8:	e6 2e       	mov	r14, r22
    4cea:	f7 2e       	mov	r15, r23
    4cec:	08 2f       	mov	r16, r24
    4cee:	19 2f       	mov	r17, r25
    4cf0:	ab 96       	adiw	r28, 0x2b	; 43
    4cf2:	af ae       	std	Y+63, r10	; 0x3f
    4cf4:	ab 97       	sbiw	r28, 0x2b	; 43
    4cf6:	ac 96       	adiw	r28, 0x2c	; 44
    4cf8:	bf ae       	std	Y+63, r11	; 0x3f
    4cfa:	ac 97       	sbiw	r28, 0x2c	; 44
    4cfc:	ad 96       	adiw	r28, 0x2d	; 45
    4cfe:	cf ae       	std	Y+63, r12	; 0x3f
    4d00:	ad 97       	sbiw	r28, 0x2d	; 45
    4d02:	ae 96       	adiw	r28, 0x2e	; 46
    4d04:	df ae       	std	Y+63, r13	; 0x3f
    4d06:	ae 97       	sbiw	r28, 0x2e	; 46
    4d08:	af 96       	adiw	r28, 0x2f	; 47
    4d0a:	ef ae       	std	Y+63, r14	; 0x3f
    4d0c:	af 97       	sbiw	r28, 0x2f	; 47
    4d0e:	e0 96       	adiw	r28, 0x30	; 48
    4d10:	ff ae       	std	Y+63, r15	; 0x3f
    4d12:	e0 97       	sbiw	r28, 0x30	; 48
    4d14:	e1 96       	adiw	r28, 0x31	; 49
    4d16:	0f af       	std	Y+63, r16	; 0x3f
    4d18:	e1 97       	sbiw	r28, 0x31	; 49
    4d1a:	e2 96       	adiw	r28, 0x32	; 50
    4d1c:	1f af       	std	Y+63, r17	; 0x3f
    4d1e:	e2 97       	sbiw	r28, 0x32	; 50
    4d20:	ab 96       	adiw	r28, 0x2b	; 43
    4d22:	2f ad       	ldd	r18, Y+63	; 0x3f
    4d24:	ab 97       	sbiw	r28, 0x2b	; 43
    4d26:	ac 96       	adiw	r28, 0x2c	; 44
    4d28:	3f ad       	ldd	r19, Y+63	; 0x3f
    4d2a:	ac 97       	sbiw	r28, 0x2c	; 44
    4d2c:	ad 96       	adiw	r28, 0x2d	; 45
    4d2e:	4f ad       	ldd	r20, Y+63	; 0x3f
    4d30:	ad 97       	sbiw	r28, 0x2d	; 45
    4d32:	ae 96       	adiw	r28, 0x2e	; 46
    4d34:	5f ad       	ldd	r21, Y+63	; 0x3f
    4d36:	ae 97       	sbiw	r28, 0x2e	; 46
    4d38:	af 96       	adiw	r28, 0x2f	; 47
    4d3a:	6f ad       	ldd	r22, Y+63	; 0x3f
    4d3c:	af 97       	sbiw	r28, 0x2f	; 47
    4d3e:	e0 96       	adiw	r28, 0x30	; 48
    4d40:	7f ad       	ldd	r23, Y+63	; 0x3f
    4d42:	e0 97       	sbiw	r28, 0x30	; 48
    4d44:	e1 96       	adiw	r28, 0x31	; 49
    4d46:	8f ad       	ldd	r24, Y+63	; 0x3f
    4d48:	e1 97       	sbiw	r28, 0x31	; 49
    4d4a:	e2 96       	adiw	r28, 0x32	; 50
    4d4c:	9f ad       	ldd	r25, Y+63	; 0x3f
    4d4e:	e2 97       	sbiw	r28, 0x32	; 50
    4d50:	05 e0       	ldi	r16, 0x05	; 5
    4d52:	0e 94 61 2f 	call	0x5ec2	; 0x5ec2 <__ashldi3>
    4d56:	22 2e       	mov	r2, r18
    4d58:	33 2e       	mov	r3, r19
    4d5a:	44 2e       	mov	r4, r20
    4d5c:	55 2e       	mov	r5, r21
    4d5e:	66 2e       	mov	r6, r22
    4d60:	77 2e       	mov	r7, r23
    4d62:	88 2e       	mov	r8, r24
    4d64:	99 2e       	mov	r9, r25
    4d66:	22 2d       	mov	r18, r2
    4d68:	33 2d       	mov	r19, r3
    4d6a:	44 2d       	mov	r20, r4
    4d6c:	55 2d       	mov	r21, r5
    4d6e:	66 2d       	mov	r22, r6
    4d70:	77 2d       	mov	r23, r7
    4d72:	88 2d       	mov	r24, r8
    4d74:	99 2d       	mov	r25, r9
    4d76:	ab 96       	adiw	r28, 0x2b	; 43
    4d78:	af ac       	ldd	r10, Y+63	; 0x3f
    4d7a:	ab 97       	sbiw	r28, 0x2b	; 43
    4d7c:	ac 96       	adiw	r28, 0x2c	; 44
    4d7e:	bf ac       	ldd	r11, Y+63	; 0x3f
    4d80:	ac 97       	sbiw	r28, 0x2c	; 44
    4d82:	ad 96       	adiw	r28, 0x2d	; 45
    4d84:	cf ac       	ldd	r12, Y+63	; 0x3f
    4d86:	ad 97       	sbiw	r28, 0x2d	; 45
    4d88:	ae 96       	adiw	r28, 0x2e	; 46
    4d8a:	df ac       	ldd	r13, Y+63	; 0x3f
    4d8c:	ae 97       	sbiw	r28, 0x2e	; 46
    4d8e:	af 96       	adiw	r28, 0x2f	; 47
    4d90:	ef ac       	ldd	r14, Y+63	; 0x3f
    4d92:	af 97       	sbiw	r28, 0x2f	; 47
    4d94:	e0 96       	adiw	r28, 0x30	; 48
    4d96:	ff ac       	ldd	r15, Y+63	; 0x3f
    4d98:	e0 97       	sbiw	r28, 0x30	; 48
    4d9a:	e1 96       	adiw	r28, 0x31	; 49
    4d9c:	0f ad       	ldd	r16, Y+63	; 0x3f
    4d9e:	e1 97       	sbiw	r28, 0x31	; 49
    4da0:	e2 96       	adiw	r28, 0x32	; 50
    4da2:	1f ad       	ldd	r17, Y+63	; 0x3f
    4da4:	e2 97       	sbiw	r28, 0x32	; 50
    4da6:	0e 94 79 2f 	call	0x5ef2	; 0x5ef2 <__subdi3>
    4daa:	22 2e       	mov	r2, r18
    4dac:	33 2e       	mov	r3, r19
    4dae:	44 2e       	mov	r4, r20
    4db0:	55 2e       	mov	r5, r21
    4db2:	66 2e       	mov	r6, r22
    4db4:	77 2e       	mov	r7, r23
    4db6:	88 2e       	mov	r8, r24
    4db8:	99 2e       	mov	r9, r25
    4dba:	22 2d       	mov	r18, r2
    4dbc:	33 2d       	mov	r19, r3
    4dbe:	44 2d       	mov	r20, r4
    4dc0:	55 2d       	mov	r21, r5
    4dc2:	66 2d       	mov	r22, r6
    4dc4:	77 2d       	mov	r23, r7
    4dc6:	88 2d       	mov	r24, r8
    4dc8:	99 2d       	mov	r25, r9
    4dca:	aa 88       	ldd	r10, Y+18	; 0x12
    4dcc:	bb 88       	ldd	r11, Y+19	; 0x13
    4dce:	cc 88       	ldd	r12, Y+20	; 0x14
    4dd0:	dd 88       	ldd	r13, Y+21	; 0x15
    4dd2:	ee 88       	ldd	r14, Y+22	; 0x16
    4dd4:	ff 88       	ldd	r15, Y+23	; 0x17
    4dd6:	08 8d       	ldd	r16, Y+24	; 0x18
    4dd8:	19 8d       	ldd	r17, Y+25	; 0x19
    4dda:	0e 94 70 2f 	call	0x5ee0	; 0x5ee0 <__adddi3>
    4dde:	22 2e       	mov	r2, r18
    4de0:	33 2e       	mov	r3, r19
    4de2:	44 2e       	mov	r4, r20
    4de4:	55 2e       	mov	r5, r21
    4de6:	66 2e       	mov	r6, r22
    4de8:	77 2e       	mov	r7, r23
    4dea:	88 2e       	mov	r8, r24
    4dec:	99 2e       	mov	r9, r25
    4dee:	22 2d       	mov	r18, r2
    4df0:	33 2d       	mov	r19, r3
    4df2:	44 2d       	mov	r20, r4
    4df4:	55 2d       	mov	r21, r5
    4df6:	66 2d       	mov	r22, r6
    4df8:	77 2d       	mov	r23, r7
    4dfa:	88 2d       	mov	r24, r8
    4dfc:	99 2d       	mov	r25, r9
    4dfe:	02 e0       	ldi	r16, 0x02	; 2
    4e00:	0e 94 61 2f 	call	0x5ec2	; 0x5ec2 <__ashldi3>
    4e04:	a2 2e       	mov	r10, r18
    4e06:	b3 2e       	mov	r11, r19
    4e08:	c4 2e       	mov	r12, r20
    4e0a:	d5 2e       	mov	r13, r21
    4e0c:	e6 2e       	mov	r14, r22
    4e0e:	f7 2e       	mov	r15, r23
    4e10:	08 2f       	mov	r16, r24
    4e12:	19 2f       	mov	r17, r25
    4e14:	2a 2c       	mov	r2, r10
    4e16:	3b 2c       	mov	r3, r11
    4e18:	4c 2c       	mov	r4, r12
    4e1a:	5d 2c       	mov	r5, r13
    4e1c:	6e 2c       	mov	r6, r14
    4e1e:	7f 2c       	mov	r7, r15
    4e20:	80 2e       	mov	r8, r16
    4e22:	91 2e       	mov	r9, r17
    4e24:	a2 2c       	mov	r10, r2
    4e26:	b3 2c       	mov	r11, r3
    4e28:	c4 2c       	mov	r12, r4
    4e2a:	d5 2c       	mov	r13, r5
    4e2c:	e6 2c       	mov	r14, r6
    4e2e:	f7 2c       	mov	r15, r7
    4e30:	08 2d       	mov	r16, r8
    4e32:	19 2d       	mov	r17, r9
    4e34:	2a 2d       	mov	r18, r10
    4e36:	3b 2d       	mov	r19, r11
    4e38:	4c 2d       	mov	r20, r12
    4e3a:	5d 2d       	mov	r21, r13
    4e3c:	6e 2d       	mov	r22, r14
    4e3e:	7f 2d       	mov	r23, r15
    4e40:	80 2f       	mov	r24, r16
    4e42:	91 2f       	mov	r25, r17
    4e44:	29 51       	subi	r18, 0x19	; 25
    4e46:	3c 4f       	sbci	r19, 0xFC	; 252
    4e48:	4f 4f       	sbci	r20, 0xFF	; 255
    4e4a:	5f 4f       	sbci	r21, 0xFF	; 255
    4e4c:	6f 4f       	sbci	r22, 0xFF	; 255
    4e4e:	7f 4f       	sbci	r23, 0xFF	; 255
    4e50:	8f 4f       	sbci	r24, 0xFF	; 255
    4e52:	9f 4f       	sbci	r25, 0xFF	; 255
    4e54:	a2 2e       	mov	r10, r18
    4e56:	b3 2e       	mov	r11, r19
    4e58:	c4 2e       	mov	r12, r20
    4e5a:	d5 2e       	mov	r13, r21
    4e5c:	e6 2e       	mov	r14, r22
    4e5e:	f7 2e       	mov	r15, r23
    4e60:	08 2f       	mov	r16, r24
    4e62:	19 2f       	mov	r17, r25
    4e64:	2a 2d       	mov	r18, r10
    4e66:	3b 2d       	mov	r19, r11
    4e68:	4c 2d       	mov	r20, r12
    4e6a:	5d 2d       	mov	r21, r13
    4e6c:	6e 2d       	mov	r22, r14
    4e6e:	7f 2d       	mov	r23, r15
    4e70:	80 2f       	mov	r24, r16
    4e72:	91 2f       	mov	r25, r17
    4e74:	0e 94 cd 01 	call	0x39a	; 0x39a <__floatundisf>
    4e78:	dc 01       	movw	r26, r24
    4e7a:	cb 01       	movw	r24, r22
    4e7c:	20 e0       	ldi	r18, 0x00	; 0
    4e7e:	30 e8       	ldi	r19, 0x80	; 128
    4e80:	4b eb       	ldi	r20, 0xBB	; 187
    4e82:	55 e4       	ldi	r21, 0x45	; 69
    4e84:	bc 01       	movw	r22, r24
    4e86:	cd 01       	movw	r24, r26
    4e88:	0e 94 48 03 	call	0x690	; 0x690 <__divsf3>
    4e8c:	dc 01       	movw	r26, r24
    4e8e:	cb 01       	movw	r24, r22
    4e90:	bc 01       	movw	r22, r24
    4e92:	cd 01       	movw	r24, r26
    4e94:	0e 94 1c 01 	call	0x238	; 0x238 <__fixunssfdi>
    4e98:	a2 2e       	mov	r10, r18
    4e9a:	b3 2e       	mov	r11, r19
    4e9c:	c4 2e       	mov	r12, r20
    4e9e:	d5 2e       	mov	r13, r21
    4ea0:	e6 2e       	mov	r14, r22
    4ea2:	f7 2e       	mov	r15, r23
    4ea4:	08 2f       	mov	r16, r24
    4ea6:	19 2f       	mov	r17, r25
    4ea8:	d6 01       	movw	r26, r12
    4eaa:	c5 01       	movw	r24, r10
    4eac:	bc 01       	movw	r22, r24
    4eae:	cd 01       	movw	r24, r26
    4eb0:	0e 94 2e 16 	call	0x2c5c	; 0x2c5c <__portable_avr_delay_cycles>
					showMeByte(COA_measurment_2);
    4eb4:	80 91 5e 20 	lds	r24, 0x205E
    4eb8:	90 91 5f 20 	lds	r25, 0x205F
    4ebc:	0e 94 ef 18 	call	0x31de	; 0x31de <showMeByte>
					delay_ms(2000);
    4ec0:	0e 94 22 16 	call	0x2c44	; 0x2c44 <sysclk_get_cpu_hz>
    4ec4:	dc 01       	movw	r26, r24
    4ec6:	cb 01       	movw	r24, r22
    4ec8:	8c 01       	movw	r16, r24
    4eca:	9d 01       	movw	r18, r26
    4ecc:	40 e0       	ldi	r20, 0x00	; 0
    4ece:	50 e0       	ldi	r21, 0x00	; 0
    4ed0:	ba 01       	movw	r22, r20
    4ed2:	0a 8f       	std	Y+26, r16	; 0x1a
    4ed4:	1b 8f       	std	Y+27, r17	; 0x1b
    4ed6:	2c 8f       	std	Y+28, r18	; 0x1c
    4ed8:	3d 8f       	std	Y+29, r19	; 0x1d
    4eda:	4e 8f       	std	Y+30, r20	; 0x1e
    4edc:	5f 8f       	std	Y+31, r21	; 0x1f
    4ede:	68 a3       	std	Y+32, r22	; 0x20
    4ee0:	79 a3       	std	Y+33, r23	; 0x21
    4ee2:	1a 8d       	ldd	r17, Y+26	; 0x1a
    4ee4:	e3 96       	adiw	r28, 0x33	; 51
    4ee6:	1f af       	std	Y+63, r17	; 0x3f
    4ee8:	e3 97       	sbiw	r28, 0x33	; 51
    4eea:	2b 8d       	ldd	r18, Y+27	; 0x1b
    4eec:	e4 96       	adiw	r28, 0x34	; 52
    4eee:	2f af       	std	Y+63, r18	; 0x3f
    4ef0:	e4 97       	sbiw	r28, 0x34	; 52
    4ef2:	3c 8d       	ldd	r19, Y+28	; 0x1c
    4ef4:	e5 96       	adiw	r28, 0x35	; 53
    4ef6:	3f af       	std	Y+63, r19	; 0x3f
    4ef8:	e5 97       	sbiw	r28, 0x35	; 53
    4efa:	4d 8d       	ldd	r20, Y+29	; 0x1d
    4efc:	e6 96       	adiw	r28, 0x36	; 54
    4efe:	4f af       	std	Y+63, r20	; 0x3f
    4f00:	e6 97       	sbiw	r28, 0x36	; 54
    4f02:	5e 8d       	ldd	r21, Y+30	; 0x1e
    4f04:	e7 96       	adiw	r28, 0x37	; 55
    4f06:	5f af       	std	Y+63, r21	; 0x3f
    4f08:	e7 97       	sbiw	r28, 0x37	; 55
    4f0a:	6f 8d       	ldd	r22, Y+31	; 0x1f
    4f0c:	e8 96       	adiw	r28, 0x38	; 56
    4f0e:	6f af       	std	Y+63, r22	; 0x3f
    4f10:	e8 97       	sbiw	r28, 0x38	; 56
    4f12:	78 a1       	ldd	r23, Y+32	; 0x20
    4f14:	e9 96       	adiw	r28, 0x39	; 57
    4f16:	7f af       	std	Y+63, r23	; 0x3f
    4f18:	e9 97       	sbiw	r28, 0x39	; 57
    4f1a:	89 a1       	ldd	r24, Y+33	; 0x21
    4f1c:	ea 96       	adiw	r28, 0x3a	; 58
    4f1e:	8f af       	std	Y+63, r24	; 0x3f
    4f20:	ea 97       	sbiw	r28, 0x3a	; 58
    4f22:	e3 96       	adiw	r28, 0x33	; 51
    4f24:	2f ad       	ldd	r18, Y+63	; 0x3f
    4f26:	e3 97       	sbiw	r28, 0x33	; 51
    4f28:	e4 96       	adiw	r28, 0x34	; 52
    4f2a:	3f ad       	ldd	r19, Y+63	; 0x3f
    4f2c:	e4 97       	sbiw	r28, 0x34	; 52
    4f2e:	e5 96       	adiw	r28, 0x35	; 53
    4f30:	4f ad       	ldd	r20, Y+63	; 0x3f
    4f32:	e5 97       	sbiw	r28, 0x35	; 53
    4f34:	e6 96       	adiw	r28, 0x36	; 54
    4f36:	5f ad       	ldd	r21, Y+63	; 0x3f
    4f38:	e6 97       	sbiw	r28, 0x36	; 54
    4f3a:	e7 96       	adiw	r28, 0x37	; 55
    4f3c:	6f ad       	ldd	r22, Y+63	; 0x3f
    4f3e:	e7 97       	sbiw	r28, 0x37	; 55
    4f40:	e8 96       	adiw	r28, 0x38	; 56
    4f42:	7f ad       	ldd	r23, Y+63	; 0x3f
    4f44:	e8 97       	sbiw	r28, 0x38	; 56
    4f46:	e9 96       	adiw	r28, 0x39	; 57
    4f48:	8f ad       	ldd	r24, Y+63	; 0x3f
    4f4a:	e9 97       	sbiw	r28, 0x39	; 57
    4f4c:	ea 96       	adiw	r28, 0x3a	; 58
    4f4e:	9f ad       	ldd	r25, Y+63	; 0x3f
    4f50:	ea 97       	sbiw	r28, 0x3a	; 58
    4f52:	02 e0       	ldi	r16, 0x02	; 2
    4f54:	b6 d7       	rcall	.+3948   	; 0x5ec2 <__ashldi3>
    4f56:	a2 2e       	mov	r10, r18
    4f58:	b3 2e       	mov	r11, r19
    4f5a:	c4 2e       	mov	r12, r20
    4f5c:	d5 2e       	mov	r13, r21
    4f5e:	e6 2e       	mov	r14, r22
    4f60:	f7 2e       	mov	r15, r23
    4f62:	08 2f       	mov	r16, r24
    4f64:	19 2f       	mov	r17, r25
    4f66:	e3 96       	adiw	r28, 0x33	; 51
    4f68:	af ae       	std	Y+63, r10	; 0x3f
    4f6a:	e3 97       	sbiw	r28, 0x33	; 51
    4f6c:	e4 96       	adiw	r28, 0x34	; 52
    4f6e:	bf ae       	std	Y+63, r11	; 0x3f
    4f70:	e4 97       	sbiw	r28, 0x34	; 52
    4f72:	e5 96       	adiw	r28, 0x35	; 53
    4f74:	cf ae       	std	Y+63, r12	; 0x3f
    4f76:	e5 97       	sbiw	r28, 0x35	; 53
    4f78:	e6 96       	adiw	r28, 0x36	; 54
    4f7a:	df ae       	std	Y+63, r13	; 0x3f
    4f7c:	e6 97       	sbiw	r28, 0x36	; 54
    4f7e:	e7 96       	adiw	r28, 0x37	; 55
    4f80:	ef ae       	std	Y+63, r14	; 0x3f
    4f82:	e7 97       	sbiw	r28, 0x37	; 55
    4f84:	e8 96       	adiw	r28, 0x38	; 56
    4f86:	ff ae       	std	Y+63, r15	; 0x3f
    4f88:	e8 97       	sbiw	r28, 0x38	; 56
    4f8a:	e9 96       	adiw	r28, 0x39	; 57
    4f8c:	0f af       	std	Y+63, r16	; 0x3f
    4f8e:	e9 97       	sbiw	r28, 0x39	; 57
    4f90:	ea 96       	adiw	r28, 0x3a	; 58
    4f92:	1f af       	std	Y+63, r17	; 0x3f
    4f94:	ea 97       	sbiw	r28, 0x3a	; 58
    4f96:	e3 96       	adiw	r28, 0x33	; 51
    4f98:	2f ad       	ldd	r18, Y+63	; 0x3f
    4f9a:	e3 97       	sbiw	r28, 0x33	; 51
    4f9c:	e4 96       	adiw	r28, 0x34	; 52
    4f9e:	3f ad       	ldd	r19, Y+63	; 0x3f
    4fa0:	e4 97       	sbiw	r28, 0x34	; 52
    4fa2:	e5 96       	adiw	r28, 0x35	; 53
    4fa4:	4f ad       	ldd	r20, Y+63	; 0x3f
    4fa6:	e5 97       	sbiw	r28, 0x35	; 53
    4fa8:	e6 96       	adiw	r28, 0x36	; 54
    4faa:	5f ad       	ldd	r21, Y+63	; 0x3f
    4fac:	e6 97       	sbiw	r28, 0x36	; 54
    4fae:	e7 96       	adiw	r28, 0x37	; 55
    4fb0:	6f ad       	ldd	r22, Y+63	; 0x3f
    4fb2:	e7 97       	sbiw	r28, 0x37	; 55
    4fb4:	e8 96       	adiw	r28, 0x38	; 56
    4fb6:	7f ad       	ldd	r23, Y+63	; 0x3f
    4fb8:	e8 97       	sbiw	r28, 0x38	; 56
    4fba:	e9 96       	adiw	r28, 0x39	; 57
    4fbc:	8f ad       	ldd	r24, Y+63	; 0x3f
    4fbe:	e9 97       	sbiw	r28, 0x39	; 57
    4fc0:	ea 96       	adiw	r28, 0x3a	; 58
    4fc2:	9f ad       	ldd	r25, Y+63	; 0x3f
    4fc4:	ea 97       	sbiw	r28, 0x3a	; 58
    4fc6:	05 e0       	ldi	r16, 0x05	; 5
    4fc8:	7c d7       	rcall	.+3832   	; 0x5ec2 <__ashldi3>
    4fca:	22 2e       	mov	r2, r18
    4fcc:	33 2e       	mov	r3, r19
    4fce:	44 2e       	mov	r4, r20
    4fd0:	55 2e       	mov	r5, r21
    4fd2:	66 2e       	mov	r6, r22
    4fd4:	77 2e       	mov	r7, r23
    4fd6:	88 2e       	mov	r8, r24
    4fd8:	99 2e       	mov	r9, r25
    4fda:	22 2d       	mov	r18, r2
    4fdc:	33 2d       	mov	r19, r3
    4fde:	44 2d       	mov	r20, r4
    4fe0:	55 2d       	mov	r21, r5
    4fe2:	66 2d       	mov	r22, r6
    4fe4:	77 2d       	mov	r23, r7
    4fe6:	88 2d       	mov	r24, r8
    4fe8:	99 2d       	mov	r25, r9
    4fea:	e3 96       	adiw	r28, 0x33	; 51
    4fec:	af ac       	ldd	r10, Y+63	; 0x3f
    4fee:	e3 97       	sbiw	r28, 0x33	; 51
    4ff0:	e4 96       	adiw	r28, 0x34	; 52
    4ff2:	bf ac       	ldd	r11, Y+63	; 0x3f
    4ff4:	e4 97       	sbiw	r28, 0x34	; 52
    4ff6:	e5 96       	adiw	r28, 0x35	; 53
    4ff8:	cf ac       	ldd	r12, Y+63	; 0x3f
    4ffa:	e5 97       	sbiw	r28, 0x35	; 53
    4ffc:	e6 96       	adiw	r28, 0x36	; 54
    4ffe:	df ac       	ldd	r13, Y+63	; 0x3f
    5000:	e6 97       	sbiw	r28, 0x36	; 54
    5002:	e7 96       	adiw	r28, 0x37	; 55
    5004:	ef ac       	ldd	r14, Y+63	; 0x3f
    5006:	e7 97       	sbiw	r28, 0x37	; 55
    5008:	e8 96       	adiw	r28, 0x38	; 56
    500a:	ff ac       	ldd	r15, Y+63	; 0x3f
    500c:	e8 97       	sbiw	r28, 0x38	; 56
    500e:	e9 96       	adiw	r28, 0x39	; 57
    5010:	0f ad       	ldd	r16, Y+63	; 0x3f
    5012:	e9 97       	sbiw	r28, 0x39	; 57
    5014:	ea 96       	adiw	r28, 0x3a	; 58
    5016:	1f ad       	ldd	r17, Y+63	; 0x3f
    5018:	ea 97       	sbiw	r28, 0x3a	; 58
    501a:	6b d7       	rcall	.+3798   	; 0x5ef2 <__subdi3>
    501c:	22 2e       	mov	r2, r18
    501e:	33 2e       	mov	r3, r19
    5020:	44 2e       	mov	r4, r20
    5022:	55 2e       	mov	r5, r21
    5024:	66 2e       	mov	r6, r22
    5026:	77 2e       	mov	r7, r23
    5028:	88 2e       	mov	r8, r24
    502a:	99 2e       	mov	r9, r25
    502c:	22 2d       	mov	r18, r2
    502e:	33 2d       	mov	r19, r3
    5030:	44 2d       	mov	r20, r4
    5032:	55 2d       	mov	r21, r5
    5034:	66 2d       	mov	r22, r6
    5036:	77 2d       	mov	r23, r7
    5038:	88 2d       	mov	r24, r8
    503a:	99 2d       	mov	r25, r9
    503c:	aa 8c       	ldd	r10, Y+26	; 0x1a
    503e:	bb 8c       	ldd	r11, Y+27	; 0x1b
    5040:	cc 8c       	ldd	r12, Y+28	; 0x1c
    5042:	dd 8c       	ldd	r13, Y+29	; 0x1d
    5044:	ee 8c       	ldd	r14, Y+30	; 0x1e
    5046:	ff 8c       	ldd	r15, Y+31	; 0x1f
    5048:	08 a1       	ldd	r16, Y+32	; 0x20
    504a:	19 a1       	ldd	r17, Y+33	; 0x21
    504c:	49 d7       	rcall	.+3730   	; 0x5ee0 <__adddi3>
    504e:	22 2e       	mov	r2, r18
    5050:	33 2e       	mov	r3, r19
    5052:	44 2e       	mov	r4, r20
    5054:	55 2e       	mov	r5, r21
    5056:	66 2e       	mov	r6, r22
    5058:	77 2e       	mov	r7, r23
    505a:	88 2e       	mov	r8, r24
    505c:	99 2e       	mov	r9, r25
    505e:	22 2d       	mov	r18, r2
    5060:	33 2d       	mov	r19, r3
    5062:	44 2d       	mov	r20, r4
    5064:	55 2d       	mov	r21, r5
    5066:	66 2d       	mov	r22, r6
    5068:	77 2d       	mov	r23, r7
    506a:	88 2d       	mov	r24, r8
    506c:	99 2d       	mov	r25, r9
    506e:	04 e0       	ldi	r16, 0x04	; 4
    5070:	28 d7       	rcall	.+3664   	; 0x5ec2 <__ashldi3>
    5072:	a2 2e       	mov	r10, r18
    5074:	b3 2e       	mov	r11, r19
    5076:	c4 2e       	mov	r12, r20
    5078:	d5 2e       	mov	r13, r21
    507a:	e6 2e       	mov	r14, r22
    507c:	f7 2e       	mov	r15, r23
    507e:	08 2f       	mov	r16, r24
    5080:	19 2f       	mov	r17, r25
    5082:	2a 2c       	mov	r2, r10
    5084:	3b 2c       	mov	r3, r11
    5086:	4c 2c       	mov	r4, r12
    5088:	5d 2c       	mov	r5, r13
    508a:	6e 2c       	mov	r6, r14
    508c:	7f 2c       	mov	r7, r15
    508e:	80 2e       	mov	r8, r16
    5090:	91 2e       	mov	r9, r17
    5092:	a2 2c       	mov	r10, r2
    5094:	b3 2c       	mov	r11, r3
    5096:	c4 2c       	mov	r12, r4
    5098:	d5 2c       	mov	r13, r5
    509a:	e6 2c       	mov	r14, r6
    509c:	f7 2c       	mov	r15, r7
    509e:	08 2d       	mov	r16, r8
    50a0:	19 2d       	mov	r17, r9
    50a2:	2a 2d       	mov	r18, r10
    50a4:	3b 2d       	mov	r19, r11
    50a6:	4c 2d       	mov	r20, r12
    50a8:	5d 2d       	mov	r21, r13
    50aa:	6e 2d       	mov	r22, r14
    50ac:	7f 2d       	mov	r23, r15
    50ae:	80 2f       	mov	r24, r16
    50b0:	91 2f       	mov	r25, r17
    50b2:	29 51       	subi	r18, 0x19	; 25
    50b4:	3c 4f       	sbci	r19, 0xFC	; 252
    50b6:	4f 4f       	sbci	r20, 0xFF	; 255
    50b8:	5f 4f       	sbci	r21, 0xFF	; 255
    50ba:	6f 4f       	sbci	r22, 0xFF	; 255
    50bc:	7f 4f       	sbci	r23, 0xFF	; 255
    50be:	8f 4f       	sbci	r24, 0xFF	; 255
    50c0:	9f 4f       	sbci	r25, 0xFF	; 255
    50c2:	a2 2e       	mov	r10, r18
    50c4:	b3 2e       	mov	r11, r19
    50c6:	c4 2e       	mov	r12, r20
    50c8:	d5 2e       	mov	r13, r21
    50ca:	e6 2e       	mov	r14, r22
    50cc:	f7 2e       	mov	r15, r23
    50ce:	08 2f       	mov	r16, r24
    50d0:	19 2f       	mov	r17, r25
    50d2:	2a 2d       	mov	r18, r10
    50d4:	3b 2d       	mov	r19, r11
    50d6:	4c 2d       	mov	r20, r12
    50d8:	5d 2d       	mov	r21, r13
    50da:	6e 2d       	mov	r22, r14
    50dc:	7f 2d       	mov	r23, r15
    50de:	80 2f       	mov	r24, r16
    50e0:	91 2f       	mov	r25, r17
    50e2:	0e 94 cd 01 	call	0x39a	; 0x39a <__floatundisf>
    50e6:	dc 01       	movw	r26, r24
    50e8:	cb 01       	movw	r24, r22
    50ea:	20 e0       	ldi	r18, 0x00	; 0
    50ec:	30 e8       	ldi	r19, 0x80	; 128
    50ee:	4b eb       	ldi	r20, 0xBB	; 187
    50f0:	55 e4       	ldi	r21, 0x45	; 69
    50f2:	bc 01       	movw	r22, r24
    50f4:	cd 01       	movw	r24, r26
    50f6:	0e 94 48 03 	call	0x690	; 0x690 <__divsf3>
    50fa:	dc 01       	movw	r26, r24
    50fc:	cb 01       	movw	r24, r22
    50fe:	bc 01       	movw	r22, r24
    5100:	cd 01       	movw	r24, r26
    5102:	0e 94 1c 01 	call	0x238	; 0x238 <__fixunssfdi>
    5106:	a2 2e       	mov	r10, r18
    5108:	b3 2e       	mov	r11, r19
    510a:	c4 2e       	mov	r12, r20
    510c:	d5 2e       	mov	r13, r21
    510e:	e6 2e       	mov	r14, r22
    5110:	f7 2e       	mov	r15, r23
    5112:	08 2f       	mov	r16, r24
    5114:	19 2f       	mov	r17, r25
    5116:	d6 01       	movw	r26, r12
    5118:	c5 01       	movw	r24, r10
    511a:	bc 01       	movw	r22, r24
    511c:	cd 01       	movw	r24, r26
    511e:	0e 94 2e 16 	call	0x2c5c	; 0x2c5c <__portable_avr_delay_cycles>
					showMeByte(0);
    5122:	80 e0       	ldi	r24, 0x00	; 0
    5124:	0e 94 ef 18 	call	0x31de	; 0x31de <showMeByte>
					delay_ms(500);
    5128:	0e 94 22 16 	call	0x2c44	; 0x2c44 <sysclk_get_cpu_hz>
    512c:	dc 01       	movw	r26, r24
    512e:	cb 01       	movw	r24, r22
    5130:	8c 01       	movw	r16, r24
    5132:	9d 01       	movw	r18, r26
    5134:	40 e0       	ldi	r20, 0x00	; 0
    5136:	50 e0       	ldi	r21, 0x00	; 0
    5138:	ba 01       	movw	r22, r20
    513a:	0a a3       	std	Y+34, r16	; 0x22
    513c:	1b a3       	std	Y+35, r17	; 0x23
    513e:	2c a3       	std	Y+36, r18	; 0x24
    5140:	3d a3       	std	Y+37, r19	; 0x25
    5142:	4e a3       	std	Y+38, r20	; 0x26
    5144:	5f a3       	std	Y+39, r21	; 0x27
    5146:	68 a7       	std	Y+40, r22	; 0x28
    5148:	79 a7       	std	Y+41, r23	; 0x29
    514a:	1a a1       	ldd	r17, Y+34	; 0x22
    514c:	eb 96       	adiw	r28, 0x3b	; 59
    514e:	1f af       	std	Y+63, r17	; 0x3f
    5150:	eb 97       	sbiw	r28, 0x3b	; 59
    5152:	2b a1       	ldd	r18, Y+35	; 0x23
    5154:	ec 96       	adiw	r28, 0x3c	; 60
    5156:	2f af       	std	Y+63, r18	; 0x3f
    5158:	ec 97       	sbiw	r28, 0x3c	; 60
    515a:	3c a1       	ldd	r19, Y+36	; 0x24
    515c:	ed 96       	adiw	r28, 0x3d	; 61
    515e:	3f af       	std	Y+63, r19	; 0x3f
    5160:	ed 97       	sbiw	r28, 0x3d	; 61
    5162:	4d a1       	ldd	r20, Y+37	; 0x25
    5164:	ee 96       	adiw	r28, 0x3e	; 62
    5166:	4f af       	std	Y+63, r20	; 0x3f
    5168:	ee 97       	sbiw	r28, 0x3e	; 62
    516a:	5e a1       	ldd	r21, Y+38	; 0x26
    516c:	ef 96       	adiw	r28, 0x3f	; 63
    516e:	5f af       	std	Y+63, r21	; 0x3f
    5170:	ef 97       	sbiw	r28, 0x3f	; 63
    5172:	6f a1       	ldd	r22, Y+39	; 0x27
    5174:	c1 58       	subi	r28, 0x81	; 129
    5176:	df 4f       	sbci	r29, 0xFF	; 255
    5178:	68 83       	st	Y, r22
    517a:	cf 57       	subi	r28, 0x7F	; 127
    517c:	d0 40       	sbci	r29, 0x00	; 0
    517e:	78 a5       	ldd	r23, Y+40	; 0x28
    5180:	c0 58       	subi	r28, 0x80	; 128
    5182:	df 4f       	sbci	r29, 0xFF	; 255
    5184:	78 83       	st	Y, r23
    5186:	c0 58       	subi	r28, 0x80	; 128
    5188:	d0 40       	sbci	r29, 0x00	; 0
    518a:	89 a5       	ldd	r24, Y+41	; 0x29
    518c:	cf 57       	subi	r28, 0x7F	; 127
    518e:	df 4f       	sbci	r29, 0xFF	; 255
    5190:	88 83       	st	Y, r24
    5192:	c1 58       	subi	r28, 0x81	; 129
    5194:	d0 40       	sbci	r29, 0x00	; 0
    5196:	eb 96       	adiw	r28, 0x3b	; 59
    5198:	2f ad       	ldd	r18, Y+63	; 0x3f
    519a:	eb 97       	sbiw	r28, 0x3b	; 59
    519c:	ec 96       	adiw	r28, 0x3c	; 60
    519e:	3f ad       	ldd	r19, Y+63	; 0x3f
    51a0:	ec 97       	sbiw	r28, 0x3c	; 60
    51a2:	ed 96       	adiw	r28, 0x3d	; 61
    51a4:	4f ad       	ldd	r20, Y+63	; 0x3f
    51a6:	ed 97       	sbiw	r28, 0x3d	; 61
    51a8:	ee 96       	adiw	r28, 0x3e	; 62
    51aa:	5f ad       	ldd	r21, Y+63	; 0x3f
    51ac:	ee 97       	sbiw	r28, 0x3e	; 62
    51ae:	ef 96       	adiw	r28, 0x3f	; 63
    51b0:	6f ad       	ldd	r22, Y+63	; 0x3f
    51b2:	ef 97       	sbiw	r28, 0x3f	; 63
    51b4:	c1 58       	subi	r28, 0x81	; 129
    51b6:	df 4f       	sbci	r29, 0xFF	; 255
    51b8:	78 81       	ld	r23, Y
    51ba:	cf 57       	subi	r28, 0x7F	; 127
    51bc:	d0 40       	sbci	r29, 0x00	; 0
    51be:	c0 58       	subi	r28, 0x80	; 128
    51c0:	df 4f       	sbci	r29, 0xFF	; 255
    51c2:	88 81       	ld	r24, Y
    51c4:	c0 58       	subi	r28, 0x80	; 128
    51c6:	d0 40       	sbci	r29, 0x00	; 0
    51c8:	cf 57       	subi	r28, 0x7F	; 127
    51ca:	df 4f       	sbci	r29, 0xFF	; 255
    51cc:	98 81       	ld	r25, Y
    51ce:	c1 58       	subi	r28, 0x81	; 129
    51d0:	d0 40       	sbci	r29, 0x00	; 0
    51d2:	02 e0       	ldi	r16, 0x02	; 2
    51d4:	76 d6       	rcall	.+3308   	; 0x5ec2 <__ashldi3>
    51d6:	a2 2e       	mov	r10, r18
    51d8:	b3 2e       	mov	r11, r19
    51da:	c4 2e       	mov	r12, r20
    51dc:	d5 2e       	mov	r13, r21
    51de:	e6 2e       	mov	r14, r22
    51e0:	f7 2e       	mov	r15, r23
    51e2:	08 2f       	mov	r16, r24
    51e4:	19 2f       	mov	r17, r25
    51e6:	eb 96       	adiw	r28, 0x3b	; 59
    51e8:	af ae       	std	Y+63, r10	; 0x3f
    51ea:	eb 97       	sbiw	r28, 0x3b	; 59
    51ec:	ec 96       	adiw	r28, 0x3c	; 60
    51ee:	bf ae       	std	Y+63, r11	; 0x3f
    51f0:	ec 97       	sbiw	r28, 0x3c	; 60
    51f2:	ed 96       	adiw	r28, 0x3d	; 61
    51f4:	cf ae       	std	Y+63, r12	; 0x3f
    51f6:	ed 97       	sbiw	r28, 0x3d	; 61
    51f8:	ee 96       	adiw	r28, 0x3e	; 62
    51fa:	df ae       	std	Y+63, r13	; 0x3f
    51fc:	ee 97       	sbiw	r28, 0x3e	; 62
    51fe:	ef 96       	adiw	r28, 0x3f	; 63
    5200:	ef ae       	std	Y+63, r14	; 0x3f
    5202:	ef 97       	sbiw	r28, 0x3f	; 63
    5204:	c1 58       	subi	r28, 0x81	; 129
    5206:	df 4f       	sbci	r29, 0xFF	; 255
    5208:	f8 82       	st	Y, r15
    520a:	cf 57       	subi	r28, 0x7F	; 127
    520c:	d0 40       	sbci	r29, 0x00	; 0
    520e:	c0 58       	subi	r28, 0x80	; 128
    5210:	df 4f       	sbci	r29, 0xFF	; 255
    5212:	08 83       	st	Y, r16
    5214:	c0 58       	subi	r28, 0x80	; 128
    5216:	d0 40       	sbci	r29, 0x00	; 0
    5218:	cf 57       	subi	r28, 0x7F	; 127
    521a:	df 4f       	sbci	r29, 0xFF	; 255
    521c:	18 83       	st	Y, r17
    521e:	c1 58       	subi	r28, 0x81	; 129
    5220:	d0 40       	sbci	r29, 0x00	; 0
    5222:	eb 96       	adiw	r28, 0x3b	; 59
    5224:	2f ad       	ldd	r18, Y+63	; 0x3f
    5226:	eb 97       	sbiw	r28, 0x3b	; 59
    5228:	ec 96       	adiw	r28, 0x3c	; 60
    522a:	3f ad       	ldd	r19, Y+63	; 0x3f
    522c:	ec 97       	sbiw	r28, 0x3c	; 60
    522e:	ed 96       	adiw	r28, 0x3d	; 61
    5230:	4f ad       	ldd	r20, Y+63	; 0x3f
    5232:	ed 97       	sbiw	r28, 0x3d	; 61
    5234:	ee 96       	adiw	r28, 0x3e	; 62
    5236:	5f ad       	ldd	r21, Y+63	; 0x3f
    5238:	ee 97       	sbiw	r28, 0x3e	; 62
    523a:	ef 96       	adiw	r28, 0x3f	; 63
    523c:	6f ad       	ldd	r22, Y+63	; 0x3f
    523e:	ef 97       	sbiw	r28, 0x3f	; 63
    5240:	c1 58       	subi	r28, 0x81	; 129
    5242:	df 4f       	sbci	r29, 0xFF	; 255
    5244:	78 81       	ld	r23, Y
    5246:	cf 57       	subi	r28, 0x7F	; 127
    5248:	d0 40       	sbci	r29, 0x00	; 0
    524a:	c0 58       	subi	r28, 0x80	; 128
    524c:	df 4f       	sbci	r29, 0xFF	; 255
    524e:	88 81       	ld	r24, Y
    5250:	c0 58       	subi	r28, 0x80	; 128
    5252:	d0 40       	sbci	r29, 0x00	; 0
    5254:	cf 57       	subi	r28, 0x7F	; 127
    5256:	df 4f       	sbci	r29, 0xFF	; 255
    5258:	98 81       	ld	r25, Y
    525a:	c1 58       	subi	r28, 0x81	; 129
    525c:	d0 40       	sbci	r29, 0x00	; 0
    525e:	05 e0       	ldi	r16, 0x05	; 5
    5260:	30 d6       	rcall	.+3168   	; 0x5ec2 <__ashldi3>
    5262:	22 2e       	mov	r2, r18
    5264:	33 2e       	mov	r3, r19
    5266:	44 2e       	mov	r4, r20
    5268:	55 2e       	mov	r5, r21
    526a:	66 2e       	mov	r6, r22
    526c:	77 2e       	mov	r7, r23
    526e:	88 2e       	mov	r8, r24
    5270:	99 2e       	mov	r9, r25
    5272:	22 2d       	mov	r18, r2
    5274:	33 2d       	mov	r19, r3
    5276:	44 2d       	mov	r20, r4
    5278:	55 2d       	mov	r21, r5
    527a:	66 2d       	mov	r22, r6
    527c:	77 2d       	mov	r23, r7
    527e:	88 2d       	mov	r24, r8
    5280:	99 2d       	mov	r25, r9
    5282:	eb 96       	adiw	r28, 0x3b	; 59
    5284:	af ac       	ldd	r10, Y+63	; 0x3f
    5286:	eb 97       	sbiw	r28, 0x3b	; 59
    5288:	ec 96       	adiw	r28, 0x3c	; 60
    528a:	bf ac       	ldd	r11, Y+63	; 0x3f
    528c:	ec 97       	sbiw	r28, 0x3c	; 60
    528e:	ed 96       	adiw	r28, 0x3d	; 61
    5290:	cf ac       	ldd	r12, Y+63	; 0x3f
    5292:	ed 97       	sbiw	r28, 0x3d	; 61
    5294:	ee 96       	adiw	r28, 0x3e	; 62
    5296:	df ac       	ldd	r13, Y+63	; 0x3f
    5298:	ee 97       	sbiw	r28, 0x3e	; 62
    529a:	ef 96       	adiw	r28, 0x3f	; 63
    529c:	ef ac       	ldd	r14, Y+63	; 0x3f
    529e:	ef 97       	sbiw	r28, 0x3f	; 63
    52a0:	c1 58       	subi	r28, 0x81	; 129
    52a2:	df 4f       	sbci	r29, 0xFF	; 255
    52a4:	f8 80       	ld	r15, Y
    52a6:	cf 57       	subi	r28, 0x7F	; 127
    52a8:	d0 40       	sbci	r29, 0x00	; 0
    52aa:	c0 58       	subi	r28, 0x80	; 128
    52ac:	df 4f       	sbci	r29, 0xFF	; 255
    52ae:	08 81       	ld	r16, Y
    52b0:	c0 58       	subi	r28, 0x80	; 128
    52b2:	d0 40       	sbci	r29, 0x00	; 0
    52b4:	cf 57       	subi	r28, 0x7F	; 127
    52b6:	df 4f       	sbci	r29, 0xFF	; 255
    52b8:	18 81       	ld	r17, Y
    52ba:	c1 58       	subi	r28, 0x81	; 129
    52bc:	d0 40       	sbci	r29, 0x00	; 0
    52be:	19 d6       	rcall	.+3122   	; 0x5ef2 <__subdi3>
    52c0:	22 2e       	mov	r2, r18
    52c2:	33 2e       	mov	r3, r19
    52c4:	44 2e       	mov	r4, r20
    52c6:	55 2e       	mov	r5, r21
    52c8:	66 2e       	mov	r6, r22
    52ca:	77 2e       	mov	r7, r23
    52cc:	88 2e       	mov	r8, r24
    52ce:	99 2e       	mov	r9, r25
    52d0:	22 2d       	mov	r18, r2
    52d2:	33 2d       	mov	r19, r3
    52d4:	44 2d       	mov	r20, r4
    52d6:	55 2d       	mov	r21, r5
    52d8:	66 2d       	mov	r22, r6
    52da:	77 2d       	mov	r23, r7
    52dc:	88 2d       	mov	r24, r8
    52de:	99 2d       	mov	r25, r9
    52e0:	aa a0       	ldd	r10, Y+34	; 0x22
    52e2:	bb a0       	ldd	r11, Y+35	; 0x23
    52e4:	cc a0       	ldd	r12, Y+36	; 0x24
    52e6:	dd a0       	ldd	r13, Y+37	; 0x25
    52e8:	ee a0       	ldd	r14, Y+38	; 0x26
    52ea:	ff a0       	ldd	r15, Y+39	; 0x27
    52ec:	08 a5       	ldd	r16, Y+40	; 0x28
    52ee:	19 a5       	ldd	r17, Y+41	; 0x29
    52f0:	f7 d5       	rcall	.+3054   	; 0x5ee0 <__adddi3>
    52f2:	22 2e       	mov	r2, r18
    52f4:	33 2e       	mov	r3, r19
    52f6:	44 2e       	mov	r4, r20
    52f8:	55 2e       	mov	r5, r21
    52fa:	66 2e       	mov	r6, r22
    52fc:	77 2e       	mov	r7, r23
    52fe:	88 2e       	mov	r8, r24
    5300:	99 2e       	mov	r9, r25
    5302:	22 2d       	mov	r18, r2
    5304:	33 2d       	mov	r19, r3
    5306:	44 2d       	mov	r20, r4
    5308:	55 2d       	mov	r21, r5
    530a:	66 2d       	mov	r22, r6
    530c:	77 2d       	mov	r23, r7
    530e:	88 2d       	mov	r24, r8
    5310:	99 2d       	mov	r25, r9
    5312:	02 e0       	ldi	r16, 0x02	; 2
    5314:	d6 d5       	rcall	.+2988   	; 0x5ec2 <__ashldi3>
    5316:	a2 2e       	mov	r10, r18
    5318:	b3 2e       	mov	r11, r19
    531a:	c4 2e       	mov	r12, r20
    531c:	d5 2e       	mov	r13, r21
    531e:	e6 2e       	mov	r14, r22
    5320:	f7 2e       	mov	r15, r23
    5322:	08 2f       	mov	r16, r24
    5324:	19 2f       	mov	r17, r25
    5326:	2a 2c       	mov	r2, r10
    5328:	3b 2c       	mov	r3, r11
    532a:	4c 2c       	mov	r4, r12
    532c:	5d 2c       	mov	r5, r13
    532e:	6e 2c       	mov	r6, r14
    5330:	7f 2c       	mov	r7, r15
    5332:	80 2e       	mov	r8, r16
    5334:	91 2e       	mov	r9, r17
    5336:	a2 2c       	mov	r10, r2
    5338:	b3 2c       	mov	r11, r3
    533a:	c4 2c       	mov	r12, r4
    533c:	d5 2c       	mov	r13, r5
    533e:	e6 2c       	mov	r14, r6
    5340:	f7 2c       	mov	r15, r7
    5342:	08 2d       	mov	r16, r8
    5344:	19 2d       	mov	r17, r9
    5346:	2a 2d       	mov	r18, r10
    5348:	3b 2d       	mov	r19, r11
    534a:	4c 2d       	mov	r20, r12
    534c:	5d 2d       	mov	r21, r13
    534e:	6e 2d       	mov	r22, r14
    5350:	7f 2d       	mov	r23, r15
    5352:	80 2f       	mov	r24, r16
    5354:	91 2f       	mov	r25, r17
    5356:	29 51       	subi	r18, 0x19	; 25
    5358:	3c 4f       	sbci	r19, 0xFC	; 252
    535a:	4f 4f       	sbci	r20, 0xFF	; 255
    535c:	5f 4f       	sbci	r21, 0xFF	; 255
    535e:	6f 4f       	sbci	r22, 0xFF	; 255
    5360:	7f 4f       	sbci	r23, 0xFF	; 255
    5362:	8f 4f       	sbci	r24, 0xFF	; 255
    5364:	9f 4f       	sbci	r25, 0xFF	; 255
    5366:	a2 2e       	mov	r10, r18
    5368:	b3 2e       	mov	r11, r19
    536a:	c4 2e       	mov	r12, r20
    536c:	d5 2e       	mov	r13, r21
    536e:	e6 2e       	mov	r14, r22
    5370:	f7 2e       	mov	r15, r23
    5372:	08 2f       	mov	r16, r24
    5374:	19 2f       	mov	r17, r25
    5376:	2a 2d       	mov	r18, r10
    5378:	3b 2d       	mov	r19, r11
    537a:	4c 2d       	mov	r20, r12
    537c:	5d 2d       	mov	r21, r13
    537e:	6e 2d       	mov	r22, r14
    5380:	7f 2d       	mov	r23, r15
    5382:	80 2f       	mov	r24, r16
    5384:	91 2f       	mov	r25, r17
    5386:	0e 94 cd 01 	call	0x39a	; 0x39a <__floatundisf>
    538a:	dc 01       	movw	r26, r24
    538c:	cb 01       	movw	r24, r22
    538e:	20 e0       	ldi	r18, 0x00	; 0
    5390:	30 e8       	ldi	r19, 0x80	; 128
    5392:	4b eb       	ldi	r20, 0xBB	; 187
    5394:	55 e4       	ldi	r21, 0x45	; 69
    5396:	bc 01       	movw	r22, r24
    5398:	cd 01       	movw	r24, r26
    539a:	0e 94 48 03 	call	0x690	; 0x690 <__divsf3>
    539e:	dc 01       	movw	r26, r24
    53a0:	cb 01       	movw	r24, r22
    53a2:	bc 01       	movw	r22, r24
    53a4:	cd 01       	movw	r24, r26
    53a6:	0e 94 1c 01 	call	0x238	; 0x238 <__fixunssfdi>
    53aa:	a2 2e       	mov	r10, r18
    53ac:	b3 2e       	mov	r11, r19
    53ae:	c4 2e       	mov	r12, r20
    53b0:	d5 2e       	mov	r13, r21
    53b2:	e6 2e       	mov	r14, r22
    53b4:	f7 2e       	mov	r15, r23
    53b6:	08 2f       	mov	r16, r24
    53b8:	19 2f       	mov	r17, r25
    53ba:	d6 01       	movw	r26, r12
    53bc:	c5 01       	movw	r24, r10
    53be:	bc 01       	movw	r22, r24
    53c0:	cd 01       	movw	r24, r26
    53c2:	0e 94 2e 16 	call	0x2c5c	; 0x2c5c <__portable_avr_delay_cycles>
					showMeByte(COA_measurment >> 8);
    53c6:	80 91 5c 20 	lds	r24, 0x205C
    53ca:	90 91 5d 20 	lds	r25, 0x205D
    53ce:	89 2f       	mov	r24, r25
    53d0:	99 27       	eor	r25, r25
    53d2:	0e 94 ef 18 	call	0x31de	; 0x31de <showMeByte>
					delay_ms(2000);
    53d6:	0e 94 22 16 	call	0x2c44	; 0x2c44 <sysclk_get_cpu_hz>
    53da:	dc 01       	movw	r26, r24
    53dc:	cb 01       	movw	r24, r22
    53de:	8c 01       	movw	r16, r24
    53e0:	9d 01       	movw	r18, r26
    53e2:	40 e0       	ldi	r20, 0x00	; 0
    53e4:	50 e0       	ldi	r21, 0x00	; 0
    53e6:	ba 01       	movw	r22, r20
    53e8:	0a a7       	std	Y+42, r16	; 0x2a
    53ea:	1b a7       	std	Y+43, r17	; 0x2b
    53ec:	2c a7       	std	Y+44, r18	; 0x2c
    53ee:	3d a7       	std	Y+45, r19	; 0x2d
    53f0:	4e a7       	std	Y+46, r20	; 0x2e
    53f2:	5f a7       	std	Y+47, r21	; 0x2f
    53f4:	68 ab       	std	Y+48, r22	; 0x30
    53f6:	79 ab       	std	Y+49, r23	; 0x31
    53f8:	1a a5       	ldd	r17, Y+42	; 0x2a
    53fa:	ce 57       	subi	r28, 0x7E	; 126
    53fc:	df 4f       	sbci	r29, 0xFF	; 255
    53fe:	18 83       	st	Y, r17
    5400:	c2 58       	subi	r28, 0x82	; 130
    5402:	d0 40       	sbci	r29, 0x00	; 0
    5404:	2b a5       	ldd	r18, Y+43	; 0x2b
    5406:	cd 57       	subi	r28, 0x7D	; 125
    5408:	df 4f       	sbci	r29, 0xFF	; 255
    540a:	28 83       	st	Y, r18
    540c:	c3 58       	subi	r28, 0x83	; 131
    540e:	d0 40       	sbci	r29, 0x00	; 0
    5410:	3c a5       	ldd	r19, Y+44	; 0x2c
    5412:	cc 57       	subi	r28, 0x7C	; 124
    5414:	df 4f       	sbci	r29, 0xFF	; 255
    5416:	38 83       	st	Y, r19
    5418:	c4 58       	subi	r28, 0x84	; 132
    541a:	d0 40       	sbci	r29, 0x00	; 0
    541c:	4d a5       	ldd	r20, Y+45	; 0x2d
    541e:	cb 57       	subi	r28, 0x7B	; 123
    5420:	df 4f       	sbci	r29, 0xFF	; 255
    5422:	48 83       	st	Y, r20
    5424:	c5 58       	subi	r28, 0x85	; 133
    5426:	d0 40       	sbci	r29, 0x00	; 0
    5428:	5e a5       	ldd	r21, Y+46	; 0x2e
    542a:	ca 57       	subi	r28, 0x7A	; 122
    542c:	df 4f       	sbci	r29, 0xFF	; 255
    542e:	58 83       	st	Y, r21
    5430:	c6 58       	subi	r28, 0x86	; 134
    5432:	d0 40       	sbci	r29, 0x00	; 0
    5434:	6f a5       	ldd	r22, Y+47	; 0x2f
    5436:	c9 57       	subi	r28, 0x79	; 121
    5438:	df 4f       	sbci	r29, 0xFF	; 255
    543a:	68 83       	st	Y, r22
    543c:	c7 58       	subi	r28, 0x87	; 135
    543e:	d0 40       	sbci	r29, 0x00	; 0
    5440:	78 a9       	ldd	r23, Y+48	; 0x30
    5442:	c8 57       	subi	r28, 0x78	; 120
    5444:	df 4f       	sbci	r29, 0xFF	; 255
    5446:	78 83       	st	Y, r23
    5448:	c8 58       	subi	r28, 0x88	; 136
    544a:	d0 40       	sbci	r29, 0x00	; 0
    544c:	89 a9       	ldd	r24, Y+49	; 0x31
    544e:	c7 57       	subi	r28, 0x77	; 119
    5450:	df 4f       	sbci	r29, 0xFF	; 255
    5452:	88 83       	st	Y, r24
    5454:	c9 58       	subi	r28, 0x89	; 137
    5456:	d0 40       	sbci	r29, 0x00	; 0
    5458:	ce 57       	subi	r28, 0x7E	; 126
    545a:	df 4f       	sbci	r29, 0xFF	; 255
    545c:	28 81       	ld	r18, Y
    545e:	c2 58       	subi	r28, 0x82	; 130
    5460:	d0 40       	sbci	r29, 0x00	; 0
    5462:	cd 57       	subi	r28, 0x7D	; 125
    5464:	df 4f       	sbci	r29, 0xFF	; 255
    5466:	38 81       	ld	r19, Y
    5468:	c3 58       	subi	r28, 0x83	; 131
    546a:	d0 40       	sbci	r29, 0x00	; 0
    546c:	cc 57       	subi	r28, 0x7C	; 124
    546e:	df 4f       	sbci	r29, 0xFF	; 255
    5470:	48 81       	ld	r20, Y
    5472:	c4 58       	subi	r28, 0x84	; 132
    5474:	d0 40       	sbci	r29, 0x00	; 0
    5476:	cb 57       	subi	r28, 0x7B	; 123
    5478:	df 4f       	sbci	r29, 0xFF	; 255
    547a:	58 81       	ld	r21, Y
    547c:	c5 58       	subi	r28, 0x85	; 133
    547e:	d0 40       	sbci	r29, 0x00	; 0
    5480:	ca 57       	subi	r28, 0x7A	; 122
    5482:	df 4f       	sbci	r29, 0xFF	; 255
    5484:	68 81       	ld	r22, Y
    5486:	c6 58       	subi	r28, 0x86	; 134
    5488:	d0 40       	sbci	r29, 0x00	; 0
    548a:	c9 57       	subi	r28, 0x79	; 121
    548c:	df 4f       	sbci	r29, 0xFF	; 255
    548e:	78 81       	ld	r23, Y
    5490:	c7 58       	subi	r28, 0x87	; 135
    5492:	d0 40       	sbci	r29, 0x00	; 0
    5494:	c8 57       	subi	r28, 0x78	; 120
    5496:	df 4f       	sbci	r29, 0xFF	; 255
    5498:	88 81       	ld	r24, Y
    549a:	c8 58       	subi	r28, 0x88	; 136
    549c:	d0 40       	sbci	r29, 0x00	; 0
    549e:	c7 57       	subi	r28, 0x77	; 119
    54a0:	df 4f       	sbci	r29, 0xFF	; 255
    54a2:	98 81       	ld	r25, Y
    54a4:	c9 58       	subi	r28, 0x89	; 137
    54a6:	d0 40       	sbci	r29, 0x00	; 0
    54a8:	02 e0       	ldi	r16, 0x02	; 2
    54aa:	0b d5       	rcall	.+2582   	; 0x5ec2 <__ashldi3>
    54ac:	a2 2e       	mov	r10, r18
    54ae:	b3 2e       	mov	r11, r19
    54b0:	c4 2e       	mov	r12, r20
    54b2:	d5 2e       	mov	r13, r21
    54b4:	e6 2e       	mov	r14, r22
    54b6:	f7 2e       	mov	r15, r23
    54b8:	08 2f       	mov	r16, r24
    54ba:	19 2f       	mov	r17, r25
    54bc:	ce 57       	subi	r28, 0x7E	; 126
    54be:	df 4f       	sbci	r29, 0xFF	; 255
    54c0:	a8 82       	st	Y, r10
    54c2:	c2 58       	subi	r28, 0x82	; 130
    54c4:	d0 40       	sbci	r29, 0x00	; 0
    54c6:	cd 57       	subi	r28, 0x7D	; 125
    54c8:	df 4f       	sbci	r29, 0xFF	; 255
    54ca:	b8 82       	st	Y, r11
    54cc:	c3 58       	subi	r28, 0x83	; 131
    54ce:	d0 40       	sbci	r29, 0x00	; 0
    54d0:	cc 57       	subi	r28, 0x7C	; 124
    54d2:	df 4f       	sbci	r29, 0xFF	; 255
    54d4:	c8 82       	st	Y, r12
    54d6:	c4 58       	subi	r28, 0x84	; 132
    54d8:	d0 40       	sbci	r29, 0x00	; 0
    54da:	cb 57       	subi	r28, 0x7B	; 123
    54dc:	df 4f       	sbci	r29, 0xFF	; 255
    54de:	d8 82       	st	Y, r13
    54e0:	c5 58       	subi	r28, 0x85	; 133
    54e2:	d0 40       	sbci	r29, 0x00	; 0
    54e4:	ca 57       	subi	r28, 0x7A	; 122
    54e6:	df 4f       	sbci	r29, 0xFF	; 255
    54e8:	e8 82       	st	Y, r14
    54ea:	c6 58       	subi	r28, 0x86	; 134
    54ec:	d0 40       	sbci	r29, 0x00	; 0
    54ee:	c9 57       	subi	r28, 0x79	; 121
    54f0:	df 4f       	sbci	r29, 0xFF	; 255
    54f2:	f8 82       	st	Y, r15
    54f4:	c7 58       	subi	r28, 0x87	; 135
    54f6:	d0 40       	sbci	r29, 0x00	; 0
    54f8:	c8 57       	subi	r28, 0x78	; 120
    54fa:	df 4f       	sbci	r29, 0xFF	; 255
    54fc:	08 83       	st	Y, r16
    54fe:	c8 58       	subi	r28, 0x88	; 136
    5500:	d0 40       	sbci	r29, 0x00	; 0
    5502:	c7 57       	subi	r28, 0x77	; 119
    5504:	df 4f       	sbci	r29, 0xFF	; 255
    5506:	18 83       	st	Y, r17
    5508:	c9 58       	subi	r28, 0x89	; 137
    550a:	d0 40       	sbci	r29, 0x00	; 0
    550c:	ce 57       	subi	r28, 0x7E	; 126
    550e:	df 4f       	sbci	r29, 0xFF	; 255
    5510:	28 81       	ld	r18, Y
    5512:	c2 58       	subi	r28, 0x82	; 130
    5514:	d0 40       	sbci	r29, 0x00	; 0
    5516:	cd 57       	subi	r28, 0x7D	; 125
    5518:	df 4f       	sbci	r29, 0xFF	; 255
    551a:	38 81       	ld	r19, Y
    551c:	c3 58       	subi	r28, 0x83	; 131
    551e:	d0 40       	sbci	r29, 0x00	; 0
    5520:	cc 57       	subi	r28, 0x7C	; 124
    5522:	df 4f       	sbci	r29, 0xFF	; 255
    5524:	48 81       	ld	r20, Y
    5526:	c4 58       	subi	r28, 0x84	; 132
    5528:	d0 40       	sbci	r29, 0x00	; 0
    552a:	cb 57       	subi	r28, 0x7B	; 123
    552c:	df 4f       	sbci	r29, 0xFF	; 255
    552e:	58 81       	ld	r21, Y
    5530:	c5 58       	subi	r28, 0x85	; 133
    5532:	d0 40       	sbci	r29, 0x00	; 0
    5534:	ca 57       	subi	r28, 0x7A	; 122
    5536:	df 4f       	sbci	r29, 0xFF	; 255
    5538:	68 81       	ld	r22, Y
    553a:	c6 58       	subi	r28, 0x86	; 134
    553c:	d0 40       	sbci	r29, 0x00	; 0
    553e:	c9 57       	subi	r28, 0x79	; 121
    5540:	df 4f       	sbci	r29, 0xFF	; 255
    5542:	78 81       	ld	r23, Y
    5544:	c7 58       	subi	r28, 0x87	; 135
    5546:	d0 40       	sbci	r29, 0x00	; 0
    5548:	c8 57       	subi	r28, 0x78	; 120
    554a:	df 4f       	sbci	r29, 0xFF	; 255
    554c:	88 81       	ld	r24, Y
    554e:	c8 58       	subi	r28, 0x88	; 136
    5550:	d0 40       	sbci	r29, 0x00	; 0
    5552:	c7 57       	subi	r28, 0x77	; 119
    5554:	df 4f       	sbci	r29, 0xFF	; 255
    5556:	98 81       	ld	r25, Y
    5558:	c9 58       	subi	r28, 0x89	; 137
    555a:	d0 40       	sbci	r29, 0x00	; 0
    555c:	05 e0       	ldi	r16, 0x05	; 5
    555e:	b1 d4       	rcall	.+2402   	; 0x5ec2 <__ashldi3>
    5560:	22 2e       	mov	r2, r18
    5562:	33 2e       	mov	r3, r19
    5564:	44 2e       	mov	r4, r20
    5566:	55 2e       	mov	r5, r21
    5568:	66 2e       	mov	r6, r22
    556a:	77 2e       	mov	r7, r23
    556c:	88 2e       	mov	r8, r24
    556e:	99 2e       	mov	r9, r25
    5570:	22 2d       	mov	r18, r2
    5572:	33 2d       	mov	r19, r3
    5574:	44 2d       	mov	r20, r4
    5576:	55 2d       	mov	r21, r5
    5578:	66 2d       	mov	r22, r6
    557a:	77 2d       	mov	r23, r7
    557c:	88 2d       	mov	r24, r8
    557e:	99 2d       	mov	r25, r9
    5580:	ce 57       	subi	r28, 0x7E	; 126
    5582:	df 4f       	sbci	r29, 0xFF	; 255
    5584:	a8 80       	ld	r10, Y
    5586:	c2 58       	subi	r28, 0x82	; 130
    5588:	d0 40       	sbci	r29, 0x00	; 0
    558a:	cd 57       	subi	r28, 0x7D	; 125
    558c:	df 4f       	sbci	r29, 0xFF	; 255
    558e:	b8 80       	ld	r11, Y
    5590:	c3 58       	subi	r28, 0x83	; 131
    5592:	d0 40       	sbci	r29, 0x00	; 0
    5594:	cc 57       	subi	r28, 0x7C	; 124
    5596:	df 4f       	sbci	r29, 0xFF	; 255
    5598:	c8 80       	ld	r12, Y
    559a:	c4 58       	subi	r28, 0x84	; 132
    559c:	d0 40       	sbci	r29, 0x00	; 0
    559e:	cb 57       	subi	r28, 0x7B	; 123
    55a0:	df 4f       	sbci	r29, 0xFF	; 255
    55a2:	d8 80       	ld	r13, Y
    55a4:	c5 58       	subi	r28, 0x85	; 133
    55a6:	d0 40       	sbci	r29, 0x00	; 0
    55a8:	ca 57       	subi	r28, 0x7A	; 122
    55aa:	df 4f       	sbci	r29, 0xFF	; 255
    55ac:	e8 80       	ld	r14, Y
    55ae:	c6 58       	subi	r28, 0x86	; 134
    55b0:	d0 40       	sbci	r29, 0x00	; 0
    55b2:	c9 57       	subi	r28, 0x79	; 121
    55b4:	df 4f       	sbci	r29, 0xFF	; 255
    55b6:	f8 80       	ld	r15, Y
    55b8:	c7 58       	subi	r28, 0x87	; 135
    55ba:	d0 40       	sbci	r29, 0x00	; 0
    55bc:	c8 57       	subi	r28, 0x78	; 120
    55be:	df 4f       	sbci	r29, 0xFF	; 255
    55c0:	08 81       	ld	r16, Y
    55c2:	c8 58       	subi	r28, 0x88	; 136
    55c4:	d0 40       	sbci	r29, 0x00	; 0
    55c6:	c7 57       	subi	r28, 0x77	; 119
    55c8:	df 4f       	sbci	r29, 0xFF	; 255
    55ca:	18 81       	ld	r17, Y
    55cc:	c9 58       	subi	r28, 0x89	; 137
    55ce:	d0 40       	sbci	r29, 0x00	; 0
    55d0:	90 d4       	rcall	.+2336   	; 0x5ef2 <__subdi3>
    55d2:	22 2e       	mov	r2, r18
    55d4:	33 2e       	mov	r3, r19
    55d6:	44 2e       	mov	r4, r20
    55d8:	55 2e       	mov	r5, r21
    55da:	66 2e       	mov	r6, r22
    55dc:	77 2e       	mov	r7, r23
    55de:	88 2e       	mov	r8, r24
    55e0:	99 2e       	mov	r9, r25
    55e2:	22 2d       	mov	r18, r2
    55e4:	33 2d       	mov	r19, r3
    55e6:	44 2d       	mov	r20, r4
    55e8:	55 2d       	mov	r21, r5
    55ea:	66 2d       	mov	r22, r6
    55ec:	77 2d       	mov	r23, r7
    55ee:	88 2d       	mov	r24, r8
    55f0:	99 2d       	mov	r25, r9
    55f2:	aa a4       	ldd	r10, Y+42	; 0x2a
    55f4:	bb a4       	ldd	r11, Y+43	; 0x2b
    55f6:	cc a4       	ldd	r12, Y+44	; 0x2c
    55f8:	dd a4       	ldd	r13, Y+45	; 0x2d
    55fa:	ee a4       	ldd	r14, Y+46	; 0x2e
    55fc:	ff a4       	ldd	r15, Y+47	; 0x2f
    55fe:	08 a9       	ldd	r16, Y+48	; 0x30
    5600:	19 a9       	ldd	r17, Y+49	; 0x31
    5602:	6e d4       	rcall	.+2268   	; 0x5ee0 <__adddi3>
    5604:	22 2e       	mov	r2, r18
    5606:	33 2e       	mov	r3, r19
    5608:	44 2e       	mov	r4, r20
    560a:	55 2e       	mov	r5, r21
    560c:	66 2e       	mov	r6, r22
    560e:	77 2e       	mov	r7, r23
    5610:	88 2e       	mov	r8, r24
    5612:	99 2e       	mov	r9, r25
    5614:	22 2d       	mov	r18, r2
    5616:	33 2d       	mov	r19, r3
    5618:	44 2d       	mov	r20, r4
    561a:	55 2d       	mov	r21, r5
    561c:	66 2d       	mov	r22, r6
    561e:	77 2d       	mov	r23, r7
    5620:	88 2d       	mov	r24, r8
    5622:	99 2d       	mov	r25, r9
    5624:	04 e0       	ldi	r16, 0x04	; 4
    5626:	4d d4       	rcall	.+2202   	; 0x5ec2 <__ashldi3>
    5628:	a2 2e       	mov	r10, r18
    562a:	b3 2e       	mov	r11, r19
    562c:	c4 2e       	mov	r12, r20
    562e:	d5 2e       	mov	r13, r21
    5630:	e6 2e       	mov	r14, r22
    5632:	f7 2e       	mov	r15, r23
    5634:	08 2f       	mov	r16, r24
    5636:	19 2f       	mov	r17, r25
    5638:	2a 2c       	mov	r2, r10
    563a:	3b 2c       	mov	r3, r11
    563c:	4c 2c       	mov	r4, r12
    563e:	5d 2c       	mov	r5, r13
    5640:	6e 2c       	mov	r6, r14
    5642:	7f 2c       	mov	r7, r15
    5644:	80 2e       	mov	r8, r16
    5646:	91 2e       	mov	r9, r17
    5648:	a2 2c       	mov	r10, r2
    564a:	b3 2c       	mov	r11, r3
    564c:	c4 2c       	mov	r12, r4
    564e:	d5 2c       	mov	r13, r5
    5650:	e6 2c       	mov	r14, r6
    5652:	f7 2c       	mov	r15, r7
    5654:	08 2d       	mov	r16, r8
    5656:	19 2d       	mov	r17, r9
    5658:	2a 2d       	mov	r18, r10
    565a:	3b 2d       	mov	r19, r11
    565c:	4c 2d       	mov	r20, r12
    565e:	5d 2d       	mov	r21, r13
    5660:	6e 2d       	mov	r22, r14
    5662:	7f 2d       	mov	r23, r15
    5664:	80 2f       	mov	r24, r16
    5666:	91 2f       	mov	r25, r17
    5668:	29 51       	subi	r18, 0x19	; 25
    566a:	3c 4f       	sbci	r19, 0xFC	; 252
    566c:	4f 4f       	sbci	r20, 0xFF	; 255
    566e:	5f 4f       	sbci	r21, 0xFF	; 255
    5670:	6f 4f       	sbci	r22, 0xFF	; 255
    5672:	7f 4f       	sbci	r23, 0xFF	; 255
    5674:	8f 4f       	sbci	r24, 0xFF	; 255
    5676:	9f 4f       	sbci	r25, 0xFF	; 255
    5678:	a2 2e       	mov	r10, r18
    567a:	b3 2e       	mov	r11, r19
    567c:	c4 2e       	mov	r12, r20
    567e:	d5 2e       	mov	r13, r21
    5680:	e6 2e       	mov	r14, r22
    5682:	f7 2e       	mov	r15, r23
    5684:	08 2f       	mov	r16, r24
    5686:	19 2f       	mov	r17, r25
    5688:	2a 2d       	mov	r18, r10
    568a:	3b 2d       	mov	r19, r11
    568c:	4c 2d       	mov	r20, r12
    568e:	5d 2d       	mov	r21, r13
    5690:	6e 2d       	mov	r22, r14
    5692:	7f 2d       	mov	r23, r15
    5694:	80 2f       	mov	r24, r16
    5696:	91 2f       	mov	r25, r17
    5698:	0e 94 cd 01 	call	0x39a	; 0x39a <__floatundisf>
    569c:	dc 01       	movw	r26, r24
    569e:	cb 01       	movw	r24, r22
    56a0:	20 e0       	ldi	r18, 0x00	; 0
    56a2:	30 e8       	ldi	r19, 0x80	; 128
    56a4:	4b eb       	ldi	r20, 0xBB	; 187
    56a6:	55 e4       	ldi	r21, 0x45	; 69
    56a8:	bc 01       	movw	r22, r24
    56aa:	cd 01       	movw	r24, r26
    56ac:	0e 94 48 03 	call	0x690	; 0x690 <__divsf3>
    56b0:	dc 01       	movw	r26, r24
    56b2:	cb 01       	movw	r24, r22
    56b4:	bc 01       	movw	r22, r24
    56b6:	cd 01       	movw	r24, r26
    56b8:	0e 94 1c 01 	call	0x238	; 0x238 <__fixunssfdi>
    56bc:	a2 2e       	mov	r10, r18
    56be:	b3 2e       	mov	r11, r19
    56c0:	c4 2e       	mov	r12, r20
    56c2:	d5 2e       	mov	r13, r21
    56c4:	e6 2e       	mov	r14, r22
    56c6:	f7 2e       	mov	r15, r23
    56c8:	08 2f       	mov	r16, r24
    56ca:	19 2f       	mov	r17, r25
    56cc:	d6 01       	movw	r26, r12
    56ce:	c5 01       	movw	r24, r10
    56d0:	bc 01       	movw	r22, r24
    56d2:	cd 01       	movw	r24, r26
    56d4:	0e 94 2e 16 	call	0x2c5c	; 0x2c5c <__portable_avr_delay_cycles>
					showMeByte(0);
    56d8:	80 e0       	ldi	r24, 0x00	; 0
    56da:	0e 94 ef 18 	call	0x31de	; 0x31de <showMeByte>
					delay_ms(500);
    56de:	0e 94 22 16 	call	0x2c44	; 0x2c44 <sysclk_get_cpu_hz>
    56e2:	dc 01       	movw	r26, r24
    56e4:	cb 01       	movw	r24, r22
    56e6:	8c 01       	movw	r16, r24
    56e8:	9d 01       	movw	r18, r26
    56ea:	40 e0       	ldi	r20, 0x00	; 0
    56ec:	50 e0       	ldi	r21, 0x00	; 0
    56ee:	ba 01       	movw	r22, r20
    56f0:	0a ab       	std	Y+50, r16	; 0x32
    56f2:	1b ab       	std	Y+51, r17	; 0x33
    56f4:	2c ab       	std	Y+52, r18	; 0x34
    56f6:	3d ab       	std	Y+53, r19	; 0x35
    56f8:	4e ab       	std	Y+54, r20	; 0x36
    56fa:	5f ab       	std	Y+55, r21	; 0x37
    56fc:	68 af       	std	Y+56, r22	; 0x38
    56fe:	79 af       	std	Y+57, r23	; 0x39
    5700:	1a a9       	ldd	r17, Y+50	; 0x32
    5702:	c6 57       	subi	r28, 0x76	; 118
    5704:	df 4f       	sbci	r29, 0xFF	; 255
    5706:	18 83       	st	Y, r17
    5708:	ca 58       	subi	r28, 0x8A	; 138
    570a:	d0 40       	sbci	r29, 0x00	; 0
    570c:	2b a9       	ldd	r18, Y+51	; 0x33
    570e:	c5 57       	subi	r28, 0x75	; 117
    5710:	df 4f       	sbci	r29, 0xFF	; 255
    5712:	28 83       	st	Y, r18
    5714:	cb 58       	subi	r28, 0x8B	; 139
    5716:	d0 40       	sbci	r29, 0x00	; 0
    5718:	3c a9       	ldd	r19, Y+52	; 0x34
    571a:	c4 57       	subi	r28, 0x74	; 116
    571c:	df 4f       	sbci	r29, 0xFF	; 255
    571e:	38 83       	st	Y, r19
    5720:	cc 58       	subi	r28, 0x8C	; 140
    5722:	d0 40       	sbci	r29, 0x00	; 0
    5724:	4d a9       	ldd	r20, Y+53	; 0x35
    5726:	c3 57       	subi	r28, 0x73	; 115
    5728:	df 4f       	sbci	r29, 0xFF	; 255
    572a:	48 83       	st	Y, r20
    572c:	cd 58       	subi	r28, 0x8D	; 141
    572e:	d0 40       	sbci	r29, 0x00	; 0
    5730:	5e a9       	ldd	r21, Y+54	; 0x36
    5732:	c2 57       	subi	r28, 0x72	; 114
    5734:	df 4f       	sbci	r29, 0xFF	; 255
    5736:	58 83       	st	Y, r21
    5738:	ce 58       	subi	r28, 0x8E	; 142
    573a:	d0 40       	sbci	r29, 0x00	; 0
    573c:	6f a9       	ldd	r22, Y+55	; 0x37
    573e:	c1 57       	subi	r28, 0x71	; 113
    5740:	df 4f       	sbci	r29, 0xFF	; 255
    5742:	68 83       	st	Y, r22
    5744:	cf 58       	subi	r28, 0x8F	; 143
    5746:	d0 40       	sbci	r29, 0x00	; 0
    5748:	78 ad       	ldd	r23, Y+56	; 0x38
    574a:	c0 57       	subi	r28, 0x70	; 112
    574c:	df 4f       	sbci	r29, 0xFF	; 255
    574e:	78 83       	st	Y, r23
    5750:	c0 59       	subi	r28, 0x90	; 144
    5752:	d0 40       	sbci	r29, 0x00	; 0
    5754:	89 ad       	ldd	r24, Y+57	; 0x39
    5756:	cf 56       	subi	r28, 0x6F	; 111
    5758:	df 4f       	sbci	r29, 0xFF	; 255
    575a:	88 83       	st	Y, r24
    575c:	c1 59       	subi	r28, 0x91	; 145
    575e:	d0 40       	sbci	r29, 0x00	; 0
    5760:	c6 57       	subi	r28, 0x76	; 118
    5762:	df 4f       	sbci	r29, 0xFF	; 255
    5764:	28 81       	ld	r18, Y
    5766:	ca 58       	subi	r28, 0x8A	; 138
    5768:	d0 40       	sbci	r29, 0x00	; 0
    576a:	c5 57       	subi	r28, 0x75	; 117
    576c:	df 4f       	sbci	r29, 0xFF	; 255
    576e:	38 81       	ld	r19, Y
    5770:	cb 58       	subi	r28, 0x8B	; 139
    5772:	d0 40       	sbci	r29, 0x00	; 0
    5774:	c4 57       	subi	r28, 0x74	; 116
    5776:	df 4f       	sbci	r29, 0xFF	; 255
    5778:	48 81       	ld	r20, Y
    577a:	cc 58       	subi	r28, 0x8C	; 140
    577c:	d0 40       	sbci	r29, 0x00	; 0
    577e:	c3 57       	subi	r28, 0x73	; 115
    5780:	df 4f       	sbci	r29, 0xFF	; 255
    5782:	58 81       	ld	r21, Y
    5784:	cd 58       	subi	r28, 0x8D	; 141
    5786:	d0 40       	sbci	r29, 0x00	; 0
    5788:	c2 57       	subi	r28, 0x72	; 114
    578a:	df 4f       	sbci	r29, 0xFF	; 255
    578c:	68 81       	ld	r22, Y
    578e:	ce 58       	subi	r28, 0x8E	; 142
    5790:	d0 40       	sbci	r29, 0x00	; 0
    5792:	c1 57       	subi	r28, 0x71	; 113
    5794:	df 4f       	sbci	r29, 0xFF	; 255
    5796:	78 81       	ld	r23, Y
    5798:	cf 58       	subi	r28, 0x8F	; 143
    579a:	d0 40       	sbci	r29, 0x00	; 0
    579c:	c0 57       	subi	r28, 0x70	; 112
    579e:	df 4f       	sbci	r29, 0xFF	; 255
    57a0:	88 81       	ld	r24, Y
    57a2:	c0 59       	subi	r28, 0x90	; 144
    57a4:	d0 40       	sbci	r29, 0x00	; 0
    57a6:	cf 56       	subi	r28, 0x6F	; 111
    57a8:	df 4f       	sbci	r29, 0xFF	; 255
    57aa:	98 81       	ld	r25, Y
    57ac:	c1 59       	subi	r28, 0x91	; 145
    57ae:	d0 40       	sbci	r29, 0x00	; 0
    57b0:	02 e0       	ldi	r16, 0x02	; 2
    57b2:	87 d3       	rcall	.+1806   	; 0x5ec2 <__ashldi3>
    57b4:	a2 2e       	mov	r10, r18
    57b6:	b3 2e       	mov	r11, r19
    57b8:	c4 2e       	mov	r12, r20
    57ba:	d5 2e       	mov	r13, r21
    57bc:	e6 2e       	mov	r14, r22
    57be:	f7 2e       	mov	r15, r23
    57c0:	08 2f       	mov	r16, r24
    57c2:	19 2f       	mov	r17, r25
    57c4:	c6 57       	subi	r28, 0x76	; 118
    57c6:	df 4f       	sbci	r29, 0xFF	; 255
    57c8:	a8 82       	st	Y, r10
    57ca:	ca 58       	subi	r28, 0x8A	; 138
    57cc:	d0 40       	sbci	r29, 0x00	; 0
    57ce:	c5 57       	subi	r28, 0x75	; 117
    57d0:	df 4f       	sbci	r29, 0xFF	; 255
    57d2:	b8 82       	st	Y, r11
    57d4:	cb 58       	subi	r28, 0x8B	; 139
    57d6:	d0 40       	sbci	r29, 0x00	; 0
    57d8:	c4 57       	subi	r28, 0x74	; 116
    57da:	df 4f       	sbci	r29, 0xFF	; 255
    57dc:	c8 82       	st	Y, r12
    57de:	cc 58       	subi	r28, 0x8C	; 140
    57e0:	d0 40       	sbci	r29, 0x00	; 0
    57e2:	c3 57       	subi	r28, 0x73	; 115
    57e4:	df 4f       	sbci	r29, 0xFF	; 255
    57e6:	d8 82       	st	Y, r13
    57e8:	cd 58       	subi	r28, 0x8D	; 141
    57ea:	d0 40       	sbci	r29, 0x00	; 0
    57ec:	c2 57       	subi	r28, 0x72	; 114
    57ee:	df 4f       	sbci	r29, 0xFF	; 255
    57f0:	e8 82       	st	Y, r14
    57f2:	ce 58       	subi	r28, 0x8E	; 142
    57f4:	d0 40       	sbci	r29, 0x00	; 0
    57f6:	c1 57       	subi	r28, 0x71	; 113
    57f8:	df 4f       	sbci	r29, 0xFF	; 255
    57fa:	f8 82       	st	Y, r15
    57fc:	cf 58       	subi	r28, 0x8F	; 143
    57fe:	d0 40       	sbci	r29, 0x00	; 0
    5800:	c0 57       	subi	r28, 0x70	; 112
    5802:	df 4f       	sbci	r29, 0xFF	; 255
    5804:	08 83       	st	Y, r16
    5806:	c0 59       	subi	r28, 0x90	; 144
    5808:	d0 40       	sbci	r29, 0x00	; 0
    580a:	cf 56       	subi	r28, 0x6F	; 111
    580c:	df 4f       	sbci	r29, 0xFF	; 255
    580e:	18 83       	st	Y, r17
    5810:	c1 59       	subi	r28, 0x91	; 145
    5812:	d0 40       	sbci	r29, 0x00	; 0
    5814:	c6 57       	subi	r28, 0x76	; 118
    5816:	df 4f       	sbci	r29, 0xFF	; 255
    5818:	28 81       	ld	r18, Y
    581a:	ca 58       	subi	r28, 0x8A	; 138
    581c:	d0 40       	sbci	r29, 0x00	; 0
    581e:	c5 57       	subi	r28, 0x75	; 117
    5820:	df 4f       	sbci	r29, 0xFF	; 255
    5822:	38 81       	ld	r19, Y
    5824:	cb 58       	subi	r28, 0x8B	; 139
    5826:	d0 40       	sbci	r29, 0x00	; 0
    5828:	c4 57       	subi	r28, 0x74	; 116
    582a:	df 4f       	sbci	r29, 0xFF	; 255
    582c:	48 81       	ld	r20, Y
    582e:	cc 58       	subi	r28, 0x8C	; 140
    5830:	d0 40       	sbci	r29, 0x00	; 0
    5832:	c3 57       	subi	r28, 0x73	; 115
    5834:	df 4f       	sbci	r29, 0xFF	; 255
    5836:	58 81       	ld	r21, Y
    5838:	cd 58       	subi	r28, 0x8D	; 141
    583a:	d0 40       	sbci	r29, 0x00	; 0
    583c:	c2 57       	subi	r28, 0x72	; 114
    583e:	df 4f       	sbci	r29, 0xFF	; 255
    5840:	68 81       	ld	r22, Y
    5842:	ce 58       	subi	r28, 0x8E	; 142
    5844:	d0 40       	sbci	r29, 0x00	; 0
    5846:	c1 57       	subi	r28, 0x71	; 113
    5848:	df 4f       	sbci	r29, 0xFF	; 255
    584a:	78 81       	ld	r23, Y
    584c:	cf 58       	subi	r28, 0x8F	; 143
    584e:	d0 40       	sbci	r29, 0x00	; 0
    5850:	c0 57       	subi	r28, 0x70	; 112
    5852:	df 4f       	sbci	r29, 0xFF	; 255
    5854:	88 81       	ld	r24, Y
    5856:	c0 59       	subi	r28, 0x90	; 144
    5858:	d0 40       	sbci	r29, 0x00	; 0
    585a:	cf 56       	subi	r28, 0x6F	; 111
    585c:	df 4f       	sbci	r29, 0xFF	; 255
    585e:	98 81       	ld	r25, Y
    5860:	c1 59       	subi	r28, 0x91	; 145
    5862:	d0 40       	sbci	r29, 0x00	; 0
    5864:	05 e0       	ldi	r16, 0x05	; 5
    5866:	2d d3       	rcall	.+1626   	; 0x5ec2 <__ashldi3>
    5868:	22 2e       	mov	r2, r18
    586a:	33 2e       	mov	r3, r19
    586c:	44 2e       	mov	r4, r20
    586e:	55 2e       	mov	r5, r21
    5870:	66 2e       	mov	r6, r22
    5872:	77 2e       	mov	r7, r23
    5874:	88 2e       	mov	r8, r24
    5876:	99 2e       	mov	r9, r25
    5878:	22 2d       	mov	r18, r2
    587a:	33 2d       	mov	r19, r3
    587c:	44 2d       	mov	r20, r4
    587e:	55 2d       	mov	r21, r5
    5880:	66 2d       	mov	r22, r6
    5882:	77 2d       	mov	r23, r7
    5884:	88 2d       	mov	r24, r8
    5886:	99 2d       	mov	r25, r9
    5888:	c6 57       	subi	r28, 0x76	; 118
    588a:	df 4f       	sbci	r29, 0xFF	; 255
    588c:	a8 80       	ld	r10, Y
    588e:	ca 58       	subi	r28, 0x8A	; 138
    5890:	d0 40       	sbci	r29, 0x00	; 0
    5892:	c5 57       	subi	r28, 0x75	; 117
    5894:	df 4f       	sbci	r29, 0xFF	; 255
    5896:	b8 80       	ld	r11, Y
    5898:	cb 58       	subi	r28, 0x8B	; 139
    589a:	d0 40       	sbci	r29, 0x00	; 0
    589c:	c4 57       	subi	r28, 0x74	; 116
    589e:	df 4f       	sbci	r29, 0xFF	; 255
    58a0:	c8 80       	ld	r12, Y
    58a2:	cc 58       	subi	r28, 0x8C	; 140
    58a4:	d0 40       	sbci	r29, 0x00	; 0
    58a6:	c3 57       	subi	r28, 0x73	; 115
    58a8:	df 4f       	sbci	r29, 0xFF	; 255
    58aa:	d8 80       	ld	r13, Y
    58ac:	cd 58       	subi	r28, 0x8D	; 141
    58ae:	d0 40       	sbci	r29, 0x00	; 0
    58b0:	c2 57       	subi	r28, 0x72	; 114
    58b2:	df 4f       	sbci	r29, 0xFF	; 255
    58b4:	e8 80       	ld	r14, Y
    58b6:	ce 58       	subi	r28, 0x8E	; 142
    58b8:	d0 40       	sbci	r29, 0x00	; 0
    58ba:	c1 57       	subi	r28, 0x71	; 113
    58bc:	df 4f       	sbci	r29, 0xFF	; 255
    58be:	f8 80       	ld	r15, Y
    58c0:	cf 58       	subi	r28, 0x8F	; 143
    58c2:	d0 40       	sbci	r29, 0x00	; 0
    58c4:	c0 57       	subi	r28, 0x70	; 112
    58c6:	df 4f       	sbci	r29, 0xFF	; 255
    58c8:	08 81       	ld	r16, Y
    58ca:	c0 59       	subi	r28, 0x90	; 144
    58cc:	d0 40       	sbci	r29, 0x00	; 0
    58ce:	cf 56       	subi	r28, 0x6F	; 111
    58d0:	df 4f       	sbci	r29, 0xFF	; 255
    58d2:	18 81       	ld	r17, Y
    58d4:	c1 59       	subi	r28, 0x91	; 145
    58d6:	d0 40       	sbci	r29, 0x00	; 0
    58d8:	0c d3       	rcall	.+1560   	; 0x5ef2 <__subdi3>
    58da:	22 2e       	mov	r2, r18
    58dc:	33 2e       	mov	r3, r19
    58de:	44 2e       	mov	r4, r20
    58e0:	55 2e       	mov	r5, r21
    58e2:	66 2e       	mov	r6, r22
    58e4:	77 2e       	mov	r7, r23
    58e6:	88 2e       	mov	r8, r24
    58e8:	99 2e       	mov	r9, r25
    58ea:	22 2d       	mov	r18, r2
    58ec:	33 2d       	mov	r19, r3
    58ee:	44 2d       	mov	r20, r4
    58f0:	55 2d       	mov	r21, r5
    58f2:	66 2d       	mov	r22, r6
    58f4:	77 2d       	mov	r23, r7
    58f6:	88 2d       	mov	r24, r8
    58f8:	99 2d       	mov	r25, r9
    58fa:	aa a8       	ldd	r10, Y+50	; 0x32
    58fc:	bb a8       	ldd	r11, Y+51	; 0x33
    58fe:	cc a8       	ldd	r12, Y+52	; 0x34
    5900:	dd a8       	ldd	r13, Y+53	; 0x35
    5902:	ee a8       	ldd	r14, Y+54	; 0x36
    5904:	ff a8       	ldd	r15, Y+55	; 0x37
    5906:	08 ad       	ldd	r16, Y+56	; 0x38
    5908:	19 ad       	ldd	r17, Y+57	; 0x39
    590a:	ea d2       	rcall	.+1492   	; 0x5ee0 <__adddi3>
    590c:	22 2e       	mov	r2, r18
    590e:	33 2e       	mov	r3, r19
    5910:	44 2e       	mov	r4, r20
    5912:	55 2e       	mov	r5, r21
    5914:	66 2e       	mov	r6, r22
    5916:	77 2e       	mov	r7, r23
    5918:	88 2e       	mov	r8, r24
    591a:	99 2e       	mov	r9, r25
    591c:	22 2d       	mov	r18, r2
    591e:	33 2d       	mov	r19, r3
    5920:	44 2d       	mov	r20, r4
    5922:	55 2d       	mov	r21, r5
    5924:	66 2d       	mov	r22, r6
    5926:	77 2d       	mov	r23, r7
    5928:	88 2d       	mov	r24, r8
    592a:	99 2d       	mov	r25, r9
    592c:	02 e0       	ldi	r16, 0x02	; 2
    592e:	c9 d2       	rcall	.+1426   	; 0x5ec2 <__ashldi3>
    5930:	a2 2e       	mov	r10, r18
    5932:	b3 2e       	mov	r11, r19
    5934:	c4 2e       	mov	r12, r20
    5936:	d5 2e       	mov	r13, r21
    5938:	e6 2e       	mov	r14, r22
    593a:	f7 2e       	mov	r15, r23
    593c:	08 2f       	mov	r16, r24
    593e:	19 2f       	mov	r17, r25
    5940:	2a 2c       	mov	r2, r10
    5942:	3b 2c       	mov	r3, r11
    5944:	4c 2c       	mov	r4, r12
    5946:	5d 2c       	mov	r5, r13
    5948:	6e 2c       	mov	r6, r14
    594a:	7f 2c       	mov	r7, r15
    594c:	80 2e       	mov	r8, r16
    594e:	91 2e       	mov	r9, r17
    5950:	a2 2c       	mov	r10, r2
    5952:	b3 2c       	mov	r11, r3
    5954:	c4 2c       	mov	r12, r4
    5956:	d5 2c       	mov	r13, r5
    5958:	e6 2c       	mov	r14, r6
    595a:	f7 2c       	mov	r15, r7
    595c:	08 2d       	mov	r16, r8
    595e:	19 2d       	mov	r17, r9
    5960:	2a 2d       	mov	r18, r10
    5962:	3b 2d       	mov	r19, r11
    5964:	4c 2d       	mov	r20, r12
    5966:	5d 2d       	mov	r21, r13
    5968:	6e 2d       	mov	r22, r14
    596a:	7f 2d       	mov	r23, r15
    596c:	80 2f       	mov	r24, r16
    596e:	91 2f       	mov	r25, r17
    5970:	29 51       	subi	r18, 0x19	; 25
    5972:	3c 4f       	sbci	r19, 0xFC	; 252
    5974:	4f 4f       	sbci	r20, 0xFF	; 255
    5976:	5f 4f       	sbci	r21, 0xFF	; 255
    5978:	6f 4f       	sbci	r22, 0xFF	; 255
    597a:	7f 4f       	sbci	r23, 0xFF	; 255
    597c:	8f 4f       	sbci	r24, 0xFF	; 255
    597e:	9f 4f       	sbci	r25, 0xFF	; 255
    5980:	a2 2e       	mov	r10, r18
    5982:	b3 2e       	mov	r11, r19
    5984:	c4 2e       	mov	r12, r20
    5986:	d5 2e       	mov	r13, r21
    5988:	e6 2e       	mov	r14, r22
    598a:	f7 2e       	mov	r15, r23
    598c:	08 2f       	mov	r16, r24
    598e:	19 2f       	mov	r17, r25
    5990:	2a 2d       	mov	r18, r10
    5992:	3b 2d       	mov	r19, r11
    5994:	4c 2d       	mov	r20, r12
    5996:	5d 2d       	mov	r21, r13
    5998:	6e 2d       	mov	r22, r14
    599a:	7f 2d       	mov	r23, r15
    599c:	80 2f       	mov	r24, r16
    599e:	91 2f       	mov	r25, r17
    59a0:	0e 94 cd 01 	call	0x39a	; 0x39a <__floatundisf>
    59a4:	dc 01       	movw	r26, r24
    59a6:	cb 01       	movw	r24, r22
    59a8:	20 e0       	ldi	r18, 0x00	; 0
    59aa:	30 e8       	ldi	r19, 0x80	; 128
    59ac:	4b eb       	ldi	r20, 0xBB	; 187
    59ae:	55 e4       	ldi	r21, 0x45	; 69
    59b0:	bc 01       	movw	r22, r24
    59b2:	cd 01       	movw	r24, r26
    59b4:	0e 94 48 03 	call	0x690	; 0x690 <__divsf3>
    59b8:	dc 01       	movw	r26, r24
    59ba:	cb 01       	movw	r24, r22
    59bc:	bc 01       	movw	r22, r24
    59be:	cd 01       	movw	r24, r26
    59c0:	0e 94 1c 01 	call	0x238	; 0x238 <__fixunssfdi>
    59c4:	a2 2e       	mov	r10, r18
    59c6:	b3 2e       	mov	r11, r19
    59c8:	c4 2e       	mov	r12, r20
    59ca:	d5 2e       	mov	r13, r21
    59cc:	e6 2e       	mov	r14, r22
    59ce:	f7 2e       	mov	r15, r23
    59d0:	08 2f       	mov	r16, r24
    59d2:	19 2f       	mov	r17, r25
    59d4:	d6 01       	movw	r26, r12
    59d6:	c5 01       	movw	r24, r10
    59d8:	bc 01       	movw	r22, r24
    59da:	cd 01       	movw	r24, r26
    59dc:	0e 94 2e 16 	call	0x2c5c	; 0x2c5c <__portable_avr_delay_cycles>
					showMeByte(COA_measurment);
    59e0:	80 91 5c 20 	lds	r24, 0x205C
    59e4:	90 91 5d 20 	lds	r25, 0x205D
    59e8:	0e 94 ef 18 	call	0x31de	; 0x31de <showMeByte>
					delay_ms(2000);
    59ec:	0e 94 22 16 	call	0x2c44	; 0x2c44 <sysclk_get_cpu_hz>
    59f0:	dc 01       	movw	r26, r24
    59f2:	cb 01       	movw	r24, r22
    59f4:	8c 01       	movw	r16, r24
    59f6:	9d 01       	movw	r18, r26
    59f8:	40 e0       	ldi	r20, 0x00	; 0
    59fa:	50 e0       	ldi	r21, 0x00	; 0
    59fc:	ba 01       	movw	r22, r20
    59fe:	0a af       	std	Y+58, r16	; 0x3a
    5a00:	1b af       	std	Y+59, r17	; 0x3b
    5a02:	2c af       	std	Y+60, r18	; 0x3c
    5a04:	3d af       	std	Y+61, r19	; 0x3d
    5a06:	4e af       	std	Y+62, r20	; 0x3e
    5a08:	5f af       	std	Y+63, r21	; 0x3f
    5a0a:	21 96       	adiw	r28, 0x01	; 1
    5a0c:	6f af       	std	Y+63, r22	; 0x3f
    5a0e:	21 97       	sbiw	r28, 0x01	; 1
    5a10:	22 96       	adiw	r28, 0x02	; 2
    5a12:	7f af       	std	Y+63, r23	; 0x3f
    5a14:	22 97       	sbiw	r28, 0x02	; 2
    5a16:	1a ad       	ldd	r17, Y+58	; 0x3a
    5a18:	ce 56       	subi	r28, 0x6E	; 110
    5a1a:	df 4f       	sbci	r29, 0xFF	; 255
    5a1c:	18 83       	st	Y, r17
    5a1e:	c2 59       	subi	r28, 0x92	; 146
    5a20:	d0 40       	sbci	r29, 0x00	; 0
    5a22:	2b ad       	ldd	r18, Y+59	; 0x3b
    5a24:	cd 56       	subi	r28, 0x6D	; 109
    5a26:	df 4f       	sbci	r29, 0xFF	; 255
    5a28:	28 83       	st	Y, r18
    5a2a:	c3 59       	subi	r28, 0x93	; 147
    5a2c:	d0 40       	sbci	r29, 0x00	; 0
    5a2e:	3c ad       	ldd	r19, Y+60	; 0x3c
    5a30:	cc 56       	subi	r28, 0x6C	; 108
    5a32:	df 4f       	sbci	r29, 0xFF	; 255
    5a34:	38 83       	st	Y, r19
    5a36:	c4 59       	subi	r28, 0x94	; 148
    5a38:	d0 40       	sbci	r29, 0x00	; 0
    5a3a:	4d ad       	ldd	r20, Y+61	; 0x3d
    5a3c:	cb 56       	subi	r28, 0x6B	; 107
    5a3e:	df 4f       	sbci	r29, 0xFF	; 255
    5a40:	48 83       	st	Y, r20
    5a42:	c5 59       	subi	r28, 0x95	; 149
    5a44:	d0 40       	sbci	r29, 0x00	; 0
    5a46:	5e ad       	ldd	r21, Y+62	; 0x3e
    5a48:	ca 56       	subi	r28, 0x6A	; 106
    5a4a:	df 4f       	sbci	r29, 0xFF	; 255
    5a4c:	58 83       	st	Y, r21
    5a4e:	c6 59       	subi	r28, 0x96	; 150
    5a50:	d0 40       	sbci	r29, 0x00	; 0
    5a52:	6f ad       	ldd	r22, Y+63	; 0x3f
    5a54:	c9 56       	subi	r28, 0x69	; 105
    5a56:	df 4f       	sbci	r29, 0xFF	; 255
    5a58:	68 83       	st	Y, r22
    5a5a:	c7 59       	subi	r28, 0x97	; 151
    5a5c:	d0 40       	sbci	r29, 0x00	; 0
    5a5e:	21 96       	adiw	r28, 0x01	; 1
    5a60:	7f ad       	ldd	r23, Y+63	; 0x3f
    5a62:	21 97       	sbiw	r28, 0x01	; 1
    5a64:	c8 56       	subi	r28, 0x68	; 104
    5a66:	df 4f       	sbci	r29, 0xFF	; 255
    5a68:	78 83       	st	Y, r23
    5a6a:	c8 59       	subi	r28, 0x98	; 152
    5a6c:	d0 40       	sbci	r29, 0x00	; 0
    5a6e:	22 96       	adiw	r28, 0x02	; 2
    5a70:	8f ad       	ldd	r24, Y+63	; 0x3f
    5a72:	22 97       	sbiw	r28, 0x02	; 2
    5a74:	c7 56       	subi	r28, 0x67	; 103
    5a76:	df 4f       	sbci	r29, 0xFF	; 255
    5a78:	88 83       	st	Y, r24
    5a7a:	c9 59       	subi	r28, 0x99	; 153
    5a7c:	d0 40       	sbci	r29, 0x00	; 0
    5a7e:	ce 56       	subi	r28, 0x6E	; 110
    5a80:	df 4f       	sbci	r29, 0xFF	; 255
    5a82:	28 81       	ld	r18, Y
    5a84:	c2 59       	subi	r28, 0x92	; 146
    5a86:	d0 40       	sbci	r29, 0x00	; 0
    5a88:	cd 56       	subi	r28, 0x6D	; 109
    5a8a:	df 4f       	sbci	r29, 0xFF	; 255
    5a8c:	38 81       	ld	r19, Y
    5a8e:	c3 59       	subi	r28, 0x93	; 147
    5a90:	d0 40       	sbci	r29, 0x00	; 0
    5a92:	cc 56       	subi	r28, 0x6C	; 108
    5a94:	df 4f       	sbci	r29, 0xFF	; 255
    5a96:	48 81       	ld	r20, Y
    5a98:	c4 59       	subi	r28, 0x94	; 148
    5a9a:	d0 40       	sbci	r29, 0x00	; 0
    5a9c:	cb 56       	subi	r28, 0x6B	; 107
    5a9e:	df 4f       	sbci	r29, 0xFF	; 255
    5aa0:	58 81       	ld	r21, Y
    5aa2:	c5 59       	subi	r28, 0x95	; 149
    5aa4:	d0 40       	sbci	r29, 0x00	; 0
    5aa6:	ca 56       	subi	r28, 0x6A	; 106
    5aa8:	df 4f       	sbci	r29, 0xFF	; 255
    5aaa:	68 81       	ld	r22, Y
    5aac:	c6 59       	subi	r28, 0x96	; 150
    5aae:	d0 40       	sbci	r29, 0x00	; 0
    5ab0:	c9 56       	subi	r28, 0x69	; 105
    5ab2:	df 4f       	sbci	r29, 0xFF	; 255
    5ab4:	78 81       	ld	r23, Y
    5ab6:	c7 59       	subi	r28, 0x97	; 151
    5ab8:	d0 40       	sbci	r29, 0x00	; 0
    5aba:	c8 56       	subi	r28, 0x68	; 104
    5abc:	df 4f       	sbci	r29, 0xFF	; 255
    5abe:	88 81       	ld	r24, Y
    5ac0:	c8 59       	subi	r28, 0x98	; 152
    5ac2:	d0 40       	sbci	r29, 0x00	; 0
    5ac4:	c7 56       	subi	r28, 0x67	; 103
    5ac6:	df 4f       	sbci	r29, 0xFF	; 255
    5ac8:	98 81       	ld	r25, Y
    5aca:	c9 59       	subi	r28, 0x99	; 153
    5acc:	d0 40       	sbci	r29, 0x00	; 0
    5ace:	02 e0       	ldi	r16, 0x02	; 2
    5ad0:	f8 d1       	rcall	.+1008   	; 0x5ec2 <__ashldi3>
    5ad2:	a2 2e       	mov	r10, r18
    5ad4:	b3 2e       	mov	r11, r19
    5ad6:	c4 2e       	mov	r12, r20
    5ad8:	d5 2e       	mov	r13, r21
    5ada:	e6 2e       	mov	r14, r22
    5adc:	f7 2e       	mov	r15, r23
    5ade:	08 2f       	mov	r16, r24
    5ae0:	19 2f       	mov	r17, r25
    5ae2:	ce 56       	subi	r28, 0x6E	; 110
    5ae4:	df 4f       	sbci	r29, 0xFF	; 255
    5ae6:	a8 82       	st	Y, r10
    5ae8:	c2 59       	subi	r28, 0x92	; 146
    5aea:	d0 40       	sbci	r29, 0x00	; 0
    5aec:	cd 56       	subi	r28, 0x6D	; 109
    5aee:	df 4f       	sbci	r29, 0xFF	; 255
    5af0:	b8 82       	st	Y, r11
    5af2:	c3 59       	subi	r28, 0x93	; 147
    5af4:	d0 40       	sbci	r29, 0x00	; 0
    5af6:	cc 56       	subi	r28, 0x6C	; 108
    5af8:	df 4f       	sbci	r29, 0xFF	; 255
    5afa:	c8 82       	st	Y, r12
    5afc:	c4 59       	subi	r28, 0x94	; 148
    5afe:	d0 40       	sbci	r29, 0x00	; 0
    5b00:	cb 56       	subi	r28, 0x6B	; 107
    5b02:	df 4f       	sbci	r29, 0xFF	; 255
    5b04:	d8 82       	st	Y, r13
    5b06:	c5 59       	subi	r28, 0x95	; 149
    5b08:	d0 40       	sbci	r29, 0x00	; 0
    5b0a:	ca 56       	subi	r28, 0x6A	; 106
    5b0c:	df 4f       	sbci	r29, 0xFF	; 255
    5b0e:	e8 82       	st	Y, r14
    5b10:	c6 59       	subi	r28, 0x96	; 150
    5b12:	d0 40       	sbci	r29, 0x00	; 0
    5b14:	c9 56       	subi	r28, 0x69	; 105
    5b16:	df 4f       	sbci	r29, 0xFF	; 255
    5b18:	f8 82       	st	Y, r15
    5b1a:	c7 59       	subi	r28, 0x97	; 151
    5b1c:	d0 40       	sbci	r29, 0x00	; 0
    5b1e:	c8 56       	subi	r28, 0x68	; 104
    5b20:	df 4f       	sbci	r29, 0xFF	; 255
    5b22:	08 83       	st	Y, r16
    5b24:	c8 59       	subi	r28, 0x98	; 152
    5b26:	d0 40       	sbci	r29, 0x00	; 0
    5b28:	c7 56       	subi	r28, 0x67	; 103
    5b2a:	df 4f       	sbci	r29, 0xFF	; 255
    5b2c:	18 83       	st	Y, r17
    5b2e:	c9 59       	subi	r28, 0x99	; 153
    5b30:	d0 40       	sbci	r29, 0x00	; 0
    5b32:	ce 56       	subi	r28, 0x6E	; 110
    5b34:	df 4f       	sbci	r29, 0xFF	; 255
    5b36:	28 81       	ld	r18, Y
    5b38:	c2 59       	subi	r28, 0x92	; 146
    5b3a:	d0 40       	sbci	r29, 0x00	; 0
    5b3c:	cd 56       	subi	r28, 0x6D	; 109
    5b3e:	df 4f       	sbci	r29, 0xFF	; 255
    5b40:	38 81       	ld	r19, Y
    5b42:	c3 59       	subi	r28, 0x93	; 147
    5b44:	d0 40       	sbci	r29, 0x00	; 0
    5b46:	cc 56       	subi	r28, 0x6C	; 108
    5b48:	df 4f       	sbci	r29, 0xFF	; 255
    5b4a:	48 81       	ld	r20, Y
    5b4c:	c4 59       	subi	r28, 0x94	; 148
    5b4e:	d0 40       	sbci	r29, 0x00	; 0
    5b50:	cb 56       	subi	r28, 0x6B	; 107
    5b52:	df 4f       	sbci	r29, 0xFF	; 255
    5b54:	58 81       	ld	r21, Y
    5b56:	c5 59       	subi	r28, 0x95	; 149
    5b58:	d0 40       	sbci	r29, 0x00	; 0
    5b5a:	ca 56       	subi	r28, 0x6A	; 106
    5b5c:	df 4f       	sbci	r29, 0xFF	; 255
    5b5e:	68 81       	ld	r22, Y
    5b60:	c6 59       	subi	r28, 0x96	; 150
    5b62:	d0 40       	sbci	r29, 0x00	; 0
    5b64:	c9 56       	subi	r28, 0x69	; 105
    5b66:	df 4f       	sbci	r29, 0xFF	; 255
    5b68:	78 81       	ld	r23, Y
    5b6a:	c7 59       	subi	r28, 0x97	; 151
    5b6c:	d0 40       	sbci	r29, 0x00	; 0
    5b6e:	c8 56       	subi	r28, 0x68	; 104
    5b70:	df 4f       	sbci	r29, 0xFF	; 255
    5b72:	88 81       	ld	r24, Y
    5b74:	c8 59       	subi	r28, 0x98	; 152
    5b76:	d0 40       	sbci	r29, 0x00	; 0
    5b78:	c7 56       	subi	r28, 0x67	; 103
    5b7a:	df 4f       	sbci	r29, 0xFF	; 255
    5b7c:	98 81       	ld	r25, Y
    5b7e:	c9 59       	subi	r28, 0x99	; 153
    5b80:	d0 40       	sbci	r29, 0x00	; 0
    5b82:	05 e0       	ldi	r16, 0x05	; 5
    5b84:	9e d1       	rcall	.+828    	; 0x5ec2 <__ashldi3>
    5b86:	22 2e       	mov	r2, r18
    5b88:	33 2e       	mov	r3, r19
    5b8a:	44 2e       	mov	r4, r20
    5b8c:	55 2e       	mov	r5, r21
    5b8e:	66 2e       	mov	r6, r22
    5b90:	77 2e       	mov	r7, r23
    5b92:	88 2e       	mov	r8, r24
    5b94:	99 2e       	mov	r9, r25
    5b96:	22 2d       	mov	r18, r2
    5b98:	33 2d       	mov	r19, r3
    5b9a:	44 2d       	mov	r20, r4
    5b9c:	55 2d       	mov	r21, r5
    5b9e:	66 2d       	mov	r22, r6
    5ba0:	77 2d       	mov	r23, r7
    5ba2:	88 2d       	mov	r24, r8
    5ba4:	99 2d       	mov	r25, r9
    5ba6:	ce 56       	subi	r28, 0x6E	; 110
    5ba8:	df 4f       	sbci	r29, 0xFF	; 255
    5baa:	a8 80       	ld	r10, Y
    5bac:	c2 59       	subi	r28, 0x92	; 146
    5bae:	d0 40       	sbci	r29, 0x00	; 0
    5bb0:	cd 56       	subi	r28, 0x6D	; 109
    5bb2:	df 4f       	sbci	r29, 0xFF	; 255
    5bb4:	b8 80       	ld	r11, Y
    5bb6:	c3 59       	subi	r28, 0x93	; 147
    5bb8:	d0 40       	sbci	r29, 0x00	; 0
    5bba:	cc 56       	subi	r28, 0x6C	; 108
    5bbc:	df 4f       	sbci	r29, 0xFF	; 255
    5bbe:	c8 80       	ld	r12, Y
    5bc0:	c4 59       	subi	r28, 0x94	; 148
    5bc2:	d0 40       	sbci	r29, 0x00	; 0
    5bc4:	cb 56       	subi	r28, 0x6B	; 107
    5bc6:	df 4f       	sbci	r29, 0xFF	; 255
    5bc8:	d8 80       	ld	r13, Y
    5bca:	c5 59       	subi	r28, 0x95	; 149
    5bcc:	d0 40       	sbci	r29, 0x00	; 0
    5bce:	ca 56       	subi	r28, 0x6A	; 106
    5bd0:	df 4f       	sbci	r29, 0xFF	; 255
    5bd2:	e8 80       	ld	r14, Y
    5bd4:	c6 59       	subi	r28, 0x96	; 150
    5bd6:	d0 40       	sbci	r29, 0x00	; 0
    5bd8:	c9 56       	subi	r28, 0x69	; 105
    5bda:	df 4f       	sbci	r29, 0xFF	; 255
    5bdc:	f8 80       	ld	r15, Y
    5bde:	c7 59       	subi	r28, 0x97	; 151
    5be0:	d0 40       	sbci	r29, 0x00	; 0
    5be2:	c8 56       	subi	r28, 0x68	; 104
    5be4:	df 4f       	sbci	r29, 0xFF	; 255
    5be6:	08 81       	ld	r16, Y
    5be8:	c8 59       	subi	r28, 0x98	; 152
    5bea:	d0 40       	sbci	r29, 0x00	; 0
    5bec:	c7 56       	subi	r28, 0x67	; 103
    5bee:	df 4f       	sbci	r29, 0xFF	; 255
    5bf0:	18 81       	ld	r17, Y
    5bf2:	c9 59       	subi	r28, 0x99	; 153
    5bf4:	d0 40       	sbci	r29, 0x00	; 0
    5bf6:	7d d1       	rcall	.+762    	; 0x5ef2 <__subdi3>
    5bf8:	22 2e       	mov	r2, r18
    5bfa:	33 2e       	mov	r3, r19
    5bfc:	44 2e       	mov	r4, r20
    5bfe:	55 2e       	mov	r5, r21
    5c00:	66 2e       	mov	r6, r22
    5c02:	77 2e       	mov	r7, r23
    5c04:	88 2e       	mov	r8, r24
    5c06:	99 2e       	mov	r9, r25
    5c08:	22 2d       	mov	r18, r2
    5c0a:	33 2d       	mov	r19, r3
    5c0c:	44 2d       	mov	r20, r4
    5c0e:	55 2d       	mov	r21, r5
    5c10:	66 2d       	mov	r22, r6
    5c12:	77 2d       	mov	r23, r7
    5c14:	88 2d       	mov	r24, r8
    5c16:	99 2d       	mov	r25, r9
    5c18:	aa ac       	ldd	r10, Y+58	; 0x3a
    5c1a:	bb ac       	ldd	r11, Y+59	; 0x3b
    5c1c:	cc ac       	ldd	r12, Y+60	; 0x3c
    5c1e:	dd ac       	ldd	r13, Y+61	; 0x3d
    5c20:	ee ac       	ldd	r14, Y+62	; 0x3e
    5c22:	ff ac       	ldd	r15, Y+63	; 0x3f
    5c24:	21 96       	adiw	r28, 0x01	; 1
    5c26:	0f ad       	ldd	r16, Y+63	; 0x3f
    5c28:	21 97       	sbiw	r28, 0x01	; 1
    5c2a:	22 96       	adiw	r28, 0x02	; 2
    5c2c:	1f ad       	ldd	r17, Y+63	; 0x3f
    5c2e:	22 97       	sbiw	r28, 0x02	; 2
    5c30:	57 d1       	rcall	.+686    	; 0x5ee0 <__adddi3>
    5c32:	22 2e       	mov	r2, r18
    5c34:	33 2e       	mov	r3, r19
    5c36:	44 2e       	mov	r4, r20
    5c38:	55 2e       	mov	r5, r21
    5c3a:	66 2e       	mov	r6, r22
    5c3c:	77 2e       	mov	r7, r23
    5c3e:	88 2e       	mov	r8, r24
    5c40:	99 2e       	mov	r9, r25
    5c42:	22 2d       	mov	r18, r2
    5c44:	33 2d       	mov	r19, r3
    5c46:	44 2d       	mov	r20, r4
    5c48:	55 2d       	mov	r21, r5
    5c4a:	66 2d       	mov	r22, r6
    5c4c:	77 2d       	mov	r23, r7
    5c4e:	88 2d       	mov	r24, r8
    5c50:	99 2d       	mov	r25, r9
    5c52:	04 e0       	ldi	r16, 0x04	; 4
    5c54:	36 d1       	rcall	.+620    	; 0x5ec2 <__ashldi3>
    5c56:	a2 2e       	mov	r10, r18
    5c58:	b3 2e       	mov	r11, r19
    5c5a:	c4 2e       	mov	r12, r20
    5c5c:	d5 2e       	mov	r13, r21
    5c5e:	e6 2e       	mov	r14, r22
    5c60:	f7 2e       	mov	r15, r23
    5c62:	08 2f       	mov	r16, r24
    5c64:	19 2f       	mov	r17, r25
    5c66:	2a 2c       	mov	r2, r10
    5c68:	3b 2c       	mov	r3, r11
    5c6a:	4c 2c       	mov	r4, r12
    5c6c:	5d 2c       	mov	r5, r13
    5c6e:	6e 2c       	mov	r6, r14
    5c70:	7f 2c       	mov	r7, r15
    5c72:	80 2e       	mov	r8, r16
    5c74:	91 2e       	mov	r9, r17
    5c76:	a2 2c       	mov	r10, r2
    5c78:	b3 2c       	mov	r11, r3
    5c7a:	c4 2c       	mov	r12, r4
    5c7c:	d5 2c       	mov	r13, r5
    5c7e:	e6 2c       	mov	r14, r6
    5c80:	f7 2c       	mov	r15, r7
    5c82:	08 2d       	mov	r16, r8
    5c84:	19 2d       	mov	r17, r9
    5c86:	2a 2d       	mov	r18, r10
    5c88:	3b 2d       	mov	r19, r11
    5c8a:	4c 2d       	mov	r20, r12
    5c8c:	5d 2d       	mov	r21, r13
    5c8e:	6e 2d       	mov	r22, r14
    5c90:	7f 2d       	mov	r23, r15
    5c92:	80 2f       	mov	r24, r16
    5c94:	91 2f       	mov	r25, r17
    5c96:	29 51       	subi	r18, 0x19	; 25
    5c98:	3c 4f       	sbci	r19, 0xFC	; 252
    5c9a:	4f 4f       	sbci	r20, 0xFF	; 255
    5c9c:	5f 4f       	sbci	r21, 0xFF	; 255
    5c9e:	6f 4f       	sbci	r22, 0xFF	; 255
    5ca0:	7f 4f       	sbci	r23, 0xFF	; 255
    5ca2:	8f 4f       	sbci	r24, 0xFF	; 255
    5ca4:	9f 4f       	sbci	r25, 0xFF	; 255
    5ca6:	a2 2e       	mov	r10, r18
    5ca8:	b3 2e       	mov	r11, r19
    5caa:	c4 2e       	mov	r12, r20
    5cac:	d5 2e       	mov	r13, r21
    5cae:	e6 2e       	mov	r14, r22
    5cb0:	f7 2e       	mov	r15, r23
    5cb2:	08 2f       	mov	r16, r24
    5cb4:	19 2f       	mov	r17, r25
    5cb6:	2a 2d       	mov	r18, r10
    5cb8:	3b 2d       	mov	r19, r11
    5cba:	4c 2d       	mov	r20, r12
    5cbc:	5d 2d       	mov	r21, r13
    5cbe:	6e 2d       	mov	r22, r14
    5cc0:	7f 2d       	mov	r23, r15
    5cc2:	80 2f       	mov	r24, r16
    5cc4:	91 2f       	mov	r25, r17
    5cc6:	0e 94 cd 01 	call	0x39a	; 0x39a <__floatundisf>
    5cca:	dc 01       	movw	r26, r24
    5ccc:	cb 01       	movw	r24, r22
    5cce:	20 e0       	ldi	r18, 0x00	; 0
    5cd0:	30 e8       	ldi	r19, 0x80	; 128
    5cd2:	4b eb       	ldi	r20, 0xBB	; 187
    5cd4:	55 e4       	ldi	r21, 0x45	; 69
    5cd6:	bc 01       	movw	r22, r24
    5cd8:	cd 01       	movw	r24, r26
    5cda:	0e 94 48 03 	call	0x690	; 0x690 <__divsf3>
    5cde:	dc 01       	movw	r26, r24
    5ce0:	cb 01       	movw	r24, r22
    5ce2:	bc 01       	movw	r22, r24
    5ce4:	cd 01       	movw	r24, r26
    5ce6:	0e 94 1c 01 	call	0x238	; 0x238 <__fixunssfdi>
    5cea:	a2 2e       	mov	r10, r18
    5cec:	b3 2e       	mov	r11, r19
    5cee:	c4 2e       	mov	r12, r20
    5cf0:	d5 2e       	mov	r13, r21
    5cf2:	e6 2e       	mov	r14, r22
    5cf4:	f7 2e       	mov	r15, r23
    5cf6:	08 2f       	mov	r16, r24
    5cf8:	19 2f       	mov	r17, r25
    5cfa:	d6 01       	movw	r26, r12
    5cfc:	c5 01       	movw	r24, r10
    5cfe:	bc 01       	movw	r22, r24
    5d00:	cd 01       	movw	r24, r26
    5d02:	0e 94 2e 16 	call	0x2c5c	; 0x2c5c <__portable_avr_delay_cycles>
				break;
    5d06:	03 c0       	rjmp	.+6      	; 0x5d0e <main+0x1938>
		{
			case 1: delay_ms(1000);
					gpio_toggle_pin(LED_VD1);
				break;
			case 2: //showMeByte(duoByte);
				break;
    5d08:	00 00       	nop
    5d0a:	01 c0       	rjmp	.+2      	; 0x5d0e <main+0x1938>
			case 3: //showMeByte(duoByte >> 8);
				break;
    5d0c:	00 00       	nop
					delay_ms(500);
					showMeByte(COA_measurment);
					delay_ms(2000);
				break;
		}
	}
    5d0e:	0c 94 5a 22 	jmp	0x44b4	; 0x44b4 <main+0xde>

00005d12 <board_init>:
#include <asf.h>
#include <board.h>
#include <conf_board.h>

void board_init(void)
{
    5d12:	cf 93       	push	r28
    5d14:	df 93       	push	r29
    5d16:	cd b7       	in	r28, 0x3d	; 61
    5d18:	de b7       	in	r29, 0x3e	; 62
	/* This function is meant to contain board-specific initialization code
	 * for, e.g., the I/O pins. The initialization can rely on application-
	 * specific board configuration, found in conf_board.h.
	 */
	//LEDs
	ioport_configure_port_pin(&PORTB, PIN0_bm, IOPORT_INIT_LOW | IOPORT_DIR_OUTPUT);
    5d1a:	41 e0       	ldi	r20, 0x01	; 1
    5d1c:	50 e0       	ldi	r21, 0x00	; 0
    5d1e:	61 e0       	ldi	r22, 0x01	; 1
    5d20:	80 e2       	ldi	r24, 0x20	; 32
    5d22:	96 e0       	ldi	r25, 0x06	; 6
    5d24:	0e 94 13 09 	call	0x1226	; 0x1226 <ioport_configure_port_pin>
	ioport_configure_port_pin(&PORTB, PIN2_bm, IOPORT_INIT_LOW | IOPORT_DIR_OUTPUT);
    5d28:	41 e0       	ldi	r20, 0x01	; 1
    5d2a:	50 e0       	ldi	r21, 0x00	; 0
    5d2c:	64 e0       	ldi	r22, 0x04	; 4
    5d2e:	80 e2       	ldi	r24, 0x20	; 32
    5d30:	96 e0       	ldi	r25, 0x06	; 6
    5d32:	0e 94 13 09 	call	0x1226	; 0x1226 <ioport_configure_port_pin>
	ioport_configure_port_pin(&PORTB, PIN3_bm, IOPORT_INIT_LOW | IOPORT_DIR_OUTPUT);
    5d36:	41 e0       	ldi	r20, 0x01	; 1
    5d38:	50 e0       	ldi	r21, 0x00	; 0
    5d3a:	68 e0       	ldi	r22, 0x08	; 8
    5d3c:	80 e2       	ldi	r24, 0x20	; 32
    5d3e:	96 e0       	ldi	r25, 0x06	; 6
    5d40:	0e 94 13 09 	call	0x1226	; 0x1226 <ioport_configure_port_pin>
	ioport_configure_port_pin(&PORTD, PIN0_bm, IOPORT_INIT_LOW | IOPORT_DIR_OUTPUT);
    5d44:	41 e0       	ldi	r20, 0x01	; 1
    5d46:	50 e0       	ldi	r21, 0x00	; 0
    5d48:	61 e0       	ldi	r22, 0x01	; 1
    5d4a:	80 e6       	ldi	r24, 0x60	; 96
    5d4c:	96 e0       	ldi	r25, 0x06	; 6
    5d4e:	0e 94 13 09 	call	0x1226	; 0x1226 <ioport_configure_port_pin>
	ioport_configure_port_pin(&PORTD, PIN1_bm, IOPORT_INIT_LOW | IOPORT_DIR_OUTPUT);
    5d52:	41 e0       	ldi	r20, 0x01	; 1
    5d54:	50 e0       	ldi	r21, 0x00	; 0
    5d56:	62 e0       	ldi	r22, 0x02	; 2
    5d58:	80 e6       	ldi	r24, 0x60	; 96
    5d5a:	96 e0       	ldi	r25, 0x06	; 6
    5d5c:	0e 94 13 09 	call	0x1226	; 0x1226 <ioport_configure_port_pin>
	ioport_configure_port_pin(&PORTD, PIN2_bm, IOPORT_INIT_LOW | IOPORT_DIR_OUTPUT);
    5d60:	41 e0       	ldi	r20, 0x01	; 1
    5d62:	50 e0       	ldi	r21, 0x00	; 0
    5d64:	64 e0       	ldi	r22, 0x04	; 4
    5d66:	80 e6       	ldi	r24, 0x60	; 96
    5d68:	96 e0       	ldi	r25, 0x06	; 6
    5d6a:	0e 94 13 09 	call	0x1226	; 0x1226 <ioport_configure_port_pin>
	ioport_configure_port_pin(&PORTD, PIN3_bm, IOPORT_INIT_LOW | IOPORT_DIR_OUTPUT);
    5d6e:	41 e0       	ldi	r20, 0x01	; 1
    5d70:	50 e0       	ldi	r21, 0x00	; 0
    5d72:	68 e0       	ldi	r22, 0x08	; 8
    5d74:	80 e6       	ldi	r24, 0x60	; 96
    5d76:	96 e0       	ldi	r25, 0x06	; 6
    5d78:	0e 94 13 09 	call	0x1226	; 0x1226 <ioport_configure_port_pin>
	ioport_configure_port_pin(&PORTD, PIN4_bm, IOPORT_INIT_LOW | IOPORT_DIR_OUTPUT);
    5d7c:	41 e0       	ldi	r20, 0x01	; 1
    5d7e:	50 e0       	ldi	r21, 0x00	; 0
    5d80:	60 e1       	ldi	r22, 0x10	; 16
    5d82:	80 e6       	ldi	r24, 0x60	; 96
    5d84:	96 e0       	ldi	r25, 0x06	; 6
    5d86:	0e 94 13 09 	call	0x1226	; 0x1226 <ioport_configure_port_pin>
	//A0-A7
	ioport_configure_port_pin(&PORTA, PIN0_bm, IOPORT_DIR_INPUT);
    5d8a:	40 e0       	ldi	r20, 0x00	; 0
    5d8c:	50 e0       	ldi	r21, 0x00	; 0
    5d8e:	61 e0       	ldi	r22, 0x01	; 1
    5d90:	80 e0       	ldi	r24, 0x00	; 0
    5d92:	96 e0       	ldi	r25, 0x06	; 6
    5d94:	0e 94 13 09 	call	0x1226	; 0x1226 <ioport_configure_port_pin>
	ioport_configure_port_pin(&PORTA, PIN1_bm, IOPORT_DIR_INPUT);
    5d98:	40 e0       	ldi	r20, 0x00	; 0
    5d9a:	50 e0       	ldi	r21, 0x00	; 0
    5d9c:	62 e0       	ldi	r22, 0x02	; 2
    5d9e:	80 e0       	ldi	r24, 0x00	; 0
    5da0:	96 e0       	ldi	r25, 0x06	; 6
    5da2:	0e 94 13 09 	call	0x1226	; 0x1226 <ioport_configure_port_pin>
	ioport_configure_port_pin(&PORTA, PIN2_bm, IOPORT_INIT_LOW | IOPORT_DIR_OUTPUT);
    5da6:	41 e0       	ldi	r20, 0x01	; 1
    5da8:	50 e0       	ldi	r21, 0x00	; 0
    5daa:	64 e0       	ldi	r22, 0x04	; 4
    5dac:	80 e0       	ldi	r24, 0x00	; 0
    5dae:	96 e0       	ldi	r25, 0x06	; 6
    5db0:	0e 94 13 09 	call	0x1226	; 0x1226 <ioport_configure_port_pin>
	ioport_configure_port_pin(&PORTA, PIN3_bm, IOPORT_INIT_LOW | IOPORT_DIR_OUTPUT);
    5db4:	41 e0       	ldi	r20, 0x01	; 1
    5db6:	50 e0       	ldi	r21, 0x00	; 0
    5db8:	68 e0       	ldi	r22, 0x08	; 8
    5dba:	80 e0       	ldi	r24, 0x00	; 0
    5dbc:	96 e0       	ldi	r25, 0x06	; 6
    5dbe:	0e 94 13 09 	call	0x1226	; 0x1226 <ioport_configure_port_pin>
	ioport_configure_port_pin(&PORTA, PIN4_bm, IOPORT_DIR_INPUT);
    5dc2:	40 e0       	ldi	r20, 0x00	; 0
    5dc4:	50 e0       	ldi	r21, 0x00	; 0
    5dc6:	60 e1       	ldi	r22, 0x10	; 16
    5dc8:	80 e0       	ldi	r24, 0x00	; 0
    5dca:	96 e0       	ldi	r25, 0x06	; 6
    5dcc:	0e 94 13 09 	call	0x1226	; 0x1226 <ioport_configure_port_pin>
	ioport_configure_port_pin(&PORTA, PIN5_bm, IOPORT_DIR_INPUT);
    5dd0:	40 e0       	ldi	r20, 0x00	; 0
    5dd2:	50 e0       	ldi	r21, 0x00	; 0
    5dd4:	60 e2       	ldi	r22, 0x20	; 32
    5dd6:	80 e0       	ldi	r24, 0x00	; 0
    5dd8:	96 e0       	ldi	r25, 0x06	; 6
    5dda:	0e 94 13 09 	call	0x1226	; 0x1226 <ioport_configure_port_pin>
	ioport_configure_port_pin(&PORTA, PIN6_bm, IOPORT_DIR_INPUT);
    5dde:	40 e0       	ldi	r20, 0x00	; 0
    5de0:	50 e0       	ldi	r21, 0x00	; 0
    5de2:	60 e4       	ldi	r22, 0x40	; 64
    5de4:	80 e0       	ldi	r24, 0x00	; 0
    5de6:	96 e0       	ldi	r25, 0x06	; 6
    5de8:	0e 94 13 09 	call	0x1226	; 0x1226 <ioport_configure_port_pin>
	ioport_configure_port_pin(&PORTA, PIN7_bm, IOPORT_DIR_INPUT);
    5dec:	40 e0       	ldi	r20, 0x00	; 0
    5dee:	50 e0       	ldi	r21, 0x00	; 0
    5df0:	60 e8       	ldi	r22, 0x80	; 128
    5df2:	80 e0       	ldi	r24, 0x00	; 0
    5df4:	96 e0       	ldi	r25, 0x06	; 6
    5df6:	0e 94 13 09 	call	0x1226	; 0x1226 <ioport_configure_port_pin>
	//USART
	ioport_configure_port_pin(&PORTE, PIN2_bm, IOPORT_DIR_INPUT);
    5dfa:	40 e0       	ldi	r20, 0x00	; 0
    5dfc:	50 e0       	ldi	r21, 0x00	; 0
    5dfe:	64 e0       	ldi	r22, 0x04	; 4
    5e00:	80 e8       	ldi	r24, 0x80	; 128
    5e02:	96 e0       	ldi	r25, 0x06	; 6
    5e04:	0e 94 13 09 	call	0x1226	; 0x1226 <ioport_configure_port_pin>
	ioport_configure_port_pin(&PORTE, PIN3_bm, IOPORT_INIT_LOW | IOPORT_DIR_OUTPUT);
    5e08:	41 e0       	ldi	r20, 0x01	; 1
    5e0a:	50 e0       	ldi	r21, 0x00	; 0
    5e0c:	68 e0       	ldi	r22, 0x08	; 8
    5e0e:	80 e8       	ldi	r24, 0x80	; 128
    5e10:	96 e0       	ldi	r25, 0x06	; 6
    5e12:	0e 94 13 09 	call	0x1226	; 0x1226 <ioport_configure_port_pin>
	//SPI
	ioport_configure_port_pin(&PORTC, PIN0_bm, IOPORT_INIT_LOW | IOPORT_DIR_OUTPUT);	// ,        
    5e16:	41 e0       	ldi	r20, 0x01	; 1
    5e18:	50 e0       	ldi	r21, 0x00	; 0
    5e1a:	61 e0       	ldi	r22, 0x01	; 1
    5e1c:	80 e4       	ldi	r24, 0x40	; 64
    5e1e:	96 e0       	ldi	r25, 0x06	; 6
    5e20:	0e 94 13 09 	call	0x1226	; 0x1226 <ioport_configure_port_pin>
	ioport_configure_port_pin(&PORTC, PIN1_bm, IOPORT_INIT_HIGH | IOPORT_DIR_OUTPUT); 
    5e24:	43 e0       	ldi	r20, 0x03	; 3
    5e26:	50 e0       	ldi	r21, 0x00	; 0
    5e28:	62 e0       	ldi	r22, 0x02	; 2
    5e2a:	80 e4       	ldi	r24, 0x40	; 64
    5e2c:	96 e0       	ldi	r25, 0x06	; 6
    5e2e:	0e 94 13 09 	call	0x1226	; 0x1226 <ioport_configure_port_pin>
	ioport_configure_port_pin(&PORTC, PIN2_bm, IOPORT_INIT_HIGH | IOPORT_DIR_OUTPUT);
    5e32:	43 e0       	ldi	r20, 0x03	; 3
    5e34:	50 e0       	ldi	r21, 0x00	; 0
    5e36:	64 e0       	ldi	r22, 0x04	; 4
    5e38:	80 e4       	ldi	r24, 0x40	; 64
    5e3a:	96 e0       	ldi	r25, 0x06	; 6
    5e3c:	0e 94 13 09 	call	0x1226	; 0x1226 <ioport_configure_port_pin>

	ioport_configure_port_pin(&PORTC, PIN4_bm, IOPORT_PULL_UP | IOPORT_DIR_OUTPUT);//IOPORT_DIR_INPUT);
    5e40:	41 e0       	ldi	r20, 0x01	; 1
    5e42:	58 e1       	ldi	r21, 0x18	; 24
    5e44:	60 e1       	ldi	r22, 0x10	; 16
    5e46:	80 e4       	ldi	r24, 0x40	; 64
    5e48:	96 e0       	ldi	r25, 0x06	; 6
    5e4a:	0e 94 13 09 	call	0x1226	; 0x1226 <ioport_configure_port_pin>
	ioport_configure_port_pin(&PORTC, PIN5_bm, IOPORT_INIT_HIGH | IOPORT_DIR_OUTPUT);
    5e4e:	43 e0       	ldi	r20, 0x03	; 3
    5e50:	50 e0       	ldi	r21, 0x00	; 0
    5e52:	60 e2       	ldi	r22, 0x20	; 32
    5e54:	80 e4       	ldi	r24, 0x40	; 64
    5e56:	96 e0       	ldi	r25, 0x06	; 6
    5e58:	0e 94 13 09 	call	0x1226	; 0x1226 <ioport_configure_port_pin>
	ioport_configure_port_pin(&PORTC, PIN6_bm, IOPORT_DIR_INPUT);
    5e5c:	40 e0       	ldi	r20, 0x00	; 0
    5e5e:	50 e0       	ldi	r21, 0x00	; 0
    5e60:	60 e4       	ldi	r22, 0x40	; 64
    5e62:	80 e4       	ldi	r24, 0x40	; 64
    5e64:	96 e0       	ldi	r25, 0x06	; 6
    5e66:	0e 94 13 09 	call	0x1226	; 0x1226 <ioport_configure_port_pin>
	ioport_configure_port_pin(&PORTC, PIN7_bm, IOPORT_INIT_HIGH | IOPORT_DIR_OUTPUT);
    5e6a:	43 e0       	ldi	r20, 0x03	; 3
    5e6c:	50 e0       	ldi	r21, 0x00	; 0
    5e6e:	60 e8       	ldi	r22, 0x80	; 128
    5e70:	80 e4       	ldi	r24, 0x40	; 64
    5e72:	96 e0       	ldi	r25, 0x06	; 6
    5e74:	0e 94 13 09 	call	0x1226	; 0x1226 <ioport_configure_port_pin>
}
    5e78:	df 91       	pop	r29
    5e7a:	cf 91       	pop	r28
    5e7c:	08 95       	ret

00005e7e <__udivmodsi4>:
    5e7e:	a1 e2       	ldi	r26, 0x21	; 33
    5e80:	1a 2e       	mov	r1, r26
    5e82:	aa 1b       	sub	r26, r26
    5e84:	bb 1b       	sub	r27, r27
    5e86:	fd 01       	movw	r30, r26
    5e88:	0d c0       	rjmp	.+26     	; 0x5ea4 <__udivmodsi4_ep>

00005e8a <__udivmodsi4_loop>:
    5e8a:	aa 1f       	adc	r26, r26
    5e8c:	bb 1f       	adc	r27, r27
    5e8e:	ee 1f       	adc	r30, r30
    5e90:	ff 1f       	adc	r31, r31
    5e92:	a2 17       	cp	r26, r18
    5e94:	b3 07       	cpc	r27, r19
    5e96:	e4 07       	cpc	r30, r20
    5e98:	f5 07       	cpc	r31, r21
    5e9a:	20 f0       	brcs	.+8      	; 0x5ea4 <__udivmodsi4_ep>
    5e9c:	a2 1b       	sub	r26, r18
    5e9e:	b3 0b       	sbc	r27, r19
    5ea0:	e4 0b       	sbc	r30, r20
    5ea2:	f5 0b       	sbc	r31, r21

00005ea4 <__udivmodsi4_ep>:
    5ea4:	66 1f       	adc	r22, r22
    5ea6:	77 1f       	adc	r23, r23
    5ea8:	88 1f       	adc	r24, r24
    5eaa:	99 1f       	adc	r25, r25
    5eac:	1a 94       	dec	r1
    5eae:	69 f7       	brne	.-38     	; 0x5e8a <__udivmodsi4_loop>
    5eb0:	60 95       	com	r22
    5eb2:	70 95       	com	r23
    5eb4:	80 95       	com	r24
    5eb6:	90 95       	com	r25
    5eb8:	9b 01       	movw	r18, r22
    5eba:	ac 01       	movw	r20, r24
    5ebc:	bd 01       	movw	r22, r26
    5ebe:	cf 01       	movw	r24, r30
    5ec0:	08 95       	ret

00005ec2 <__ashldi3>:
    5ec2:	0f 93       	push	r16
    5ec4:	0f 73       	andi	r16, 0x3F	; 63
    5ec6:	51 f0       	breq	.+20     	; 0x5edc <__ashldi3+0x1a>
    5ec8:	22 0f       	add	r18, r18
    5eca:	33 1f       	adc	r19, r19
    5ecc:	44 1f       	adc	r20, r20
    5ece:	55 1f       	adc	r21, r21
    5ed0:	66 1f       	adc	r22, r22
    5ed2:	77 1f       	adc	r23, r23
    5ed4:	88 1f       	adc	r24, r24
    5ed6:	99 1f       	adc	r25, r25
    5ed8:	0a 95       	dec	r16
    5eda:	b1 f7       	brne	.-20     	; 0x5ec8 <__ashldi3+0x6>
    5edc:	0f 91       	pop	r16
    5ede:	08 95       	ret

00005ee0 <__adddi3>:
    5ee0:	2a 0d       	add	r18, r10
    5ee2:	3b 1d       	adc	r19, r11
    5ee4:	4c 1d       	adc	r20, r12
    5ee6:	5d 1d       	adc	r21, r13
    5ee8:	6e 1d       	adc	r22, r14
    5eea:	7f 1d       	adc	r23, r15
    5eec:	80 1f       	adc	r24, r16
    5eee:	91 1f       	adc	r25, r17
    5ef0:	08 95       	ret

00005ef2 <__subdi3>:
    5ef2:	2a 19       	sub	r18, r10
    5ef4:	3b 09       	sbc	r19, r11
    5ef6:	4c 09       	sbc	r20, r12
    5ef8:	5d 09       	sbc	r21, r13
    5efa:	6e 09       	sbc	r22, r14
    5efc:	7f 09       	sbc	r23, r15
    5efe:	80 0b       	sbc	r24, r16
    5f00:	91 0b       	sbc	r25, r17
    5f02:	08 95       	ret

00005f04 <__clzsi2>:
    5f04:	06 d0       	rcall	.+12     	; 0x5f12 <__clzhi2>
    5f06:	84 ff       	sbrs	r24, 4
    5f08:	08 95       	ret
    5f0a:	cb 01       	movw	r24, r22
    5f0c:	02 d0       	rcall	.+4      	; 0x5f12 <__clzhi2>
    5f0e:	80 5f       	subi	r24, 0xF0	; 240
    5f10:	08 95       	ret

00005f12 <__clzhi2>:
    5f12:	aa 27       	eor	r26, r26
    5f14:	99 23       	and	r25, r25
    5f16:	29 f4       	brne	.+10     	; 0x5f22 <__clzhi2+0x10>
    5f18:	a8 5f       	subi	r26, 0xF8	; 248
    5f1a:	98 2b       	or	r25, r24
    5f1c:	11 f4       	brne	.+4      	; 0x5f22 <__clzhi2+0x10>
    5f1e:	80 e1       	ldi	r24, 0x10	; 16
    5f20:	08 95       	ret
    5f22:	90 31       	cpi	r25, 0x10	; 16
    5f24:	18 f4       	brcc	.+6      	; 0x5f2c <__clzhi2+0x1a>
    5f26:	ad 5f       	subi	r26, 0xFD	; 253
    5f28:	92 95       	swap	r25
    5f2a:	a3 95       	inc	r26
    5f2c:	99 0f       	add	r25, r25
    5f2e:	e8 f7       	brcc	.-6      	; 0x5f2a <__clzhi2+0x18>
    5f30:	8a 2f       	mov	r24, r26
    5f32:	99 27       	eor	r25, r25
    5f34:	08 95       	ret

00005f36 <__prologue_saves__>:
    5f36:	2f 92       	push	r2
    5f38:	3f 92       	push	r3
    5f3a:	4f 92       	push	r4
    5f3c:	5f 92       	push	r5
    5f3e:	6f 92       	push	r6
    5f40:	7f 92       	push	r7
    5f42:	8f 92       	push	r8
    5f44:	9f 92       	push	r9
    5f46:	af 92       	push	r10
    5f48:	bf 92       	push	r11
    5f4a:	cf 92       	push	r12
    5f4c:	df 92       	push	r13
    5f4e:	ef 92       	push	r14
    5f50:	ff 92       	push	r15
    5f52:	0f 93       	push	r16
    5f54:	1f 93       	push	r17
    5f56:	cf 93       	push	r28
    5f58:	df 93       	push	r29
    5f5a:	cd b7       	in	r28, 0x3d	; 61
    5f5c:	de b7       	in	r29, 0x3e	; 62
    5f5e:	ca 1b       	sub	r28, r26
    5f60:	db 0b       	sbc	r29, r27
    5f62:	cd bf       	out	0x3d, r28	; 61
    5f64:	de bf       	out	0x3e, r29	; 62
    5f66:	09 94       	ijmp

00005f68 <__epilogue_restores__>:
    5f68:	2a 88       	ldd	r2, Y+18	; 0x12
    5f6a:	39 88       	ldd	r3, Y+17	; 0x11
    5f6c:	48 88       	ldd	r4, Y+16	; 0x10
    5f6e:	5f 84       	ldd	r5, Y+15	; 0x0f
    5f70:	6e 84       	ldd	r6, Y+14	; 0x0e
    5f72:	7d 84       	ldd	r7, Y+13	; 0x0d
    5f74:	8c 84       	ldd	r8, Y+12	; 0x0c
    5f76:	9b 84       	ldd	r9, Y+11	; 0x0b
    5f78:	aa 84       	ldd	r10, Y+10	; 0x0a
    5f7a:	b9 84       	ldd	r11, Y+9	; 0x09
    5f7c:	c8 84       	ldd	r12, Y+8	; 0x08
    5f7e:	df 80       	ldd	r13, Y+7	; 0x07
    5f80:	ee 80       	ldd	r14, Y+6	; 0x06
    5f82:	fd 80       	ldd	r15, Y+5	; 0x05
    5f84:	0c 81       	ldd	r16, Y+4	; 0x04
    5f86:	1b 81       	ldd	r17, Y+3	; 0x03
    5f88:	aa 81       	ldd	r26, Y+2	; 0x02
    5f8a:	b9 81       	ldd	r27, Y+1	; 0x01
    5f8c:	ce 0f       	add	r28, r30
    5f8e:	d1 1d       	adc	r29, r1
    5f90:	cd bf       	out	0x3d, r28	; 61
    5f92:	de bf       	out	0x3e, r29	; 62
    5f94:	ed 01       	movw	r28, r26
    5f96:	08 95       	ret

00005f98 <__lshrdi3>:
    5f98:	0f 93       	push	r16
    5f9a:	0f 73       	andi	r16, 0x3F	; 63
    5f9c:	51 f0       	breq	.+20     	; 0x5fb2 <__lshrdi3+0x1a>
    5f9e:	96 95       	lsr	r25
    5fa0:	87 95       	ror	r24
    5fa2:	77 95       	ror	r23
    5fa4:	67 95       	ror	r22
    5fa6:	57 95       	ror	r21
    5fa8:	47 95       	ror	r20
    5faa:	37 95       	ror	r19
    5fac:	27 95       	ror	r18
    5fae:	0a 95       	dec	r16
    5fb0:	b1 f7       	brne	.-20     	; 0x5f9e <__lshrdi3+0x6>
    5fb2:	0f 91       	pop	r16
    5fb4:	08 95       	ret

00005fb6 <__cmpdi2>:
    5fb6:	2a 15       	cp	r18, r10
    5fb8:	3b 05       	cpc	r19, r11
    5fba:	4c 05       	cpc	r20, r12
    5fbc:	5d 05       	cpc	r21, r13
    5fbe:	6e 05       	cpc	r22, r14
    5fc0:	7f 05       	cpc	r23, r15
    5fc2:	80 07       	cpc	r24, r16
    5fc4:	91 07       	cpc	r25, r17
    5fc6:	08 95       	ret

00005fc8 <_exit>:
    5fc8:	f8 94       	cli

00005fca <__stop_program>:
    5fca:	ff cf       	rjmp	.-2      	; 0x5fca <__stop_program>
